lfence_with_v1_1.so:     file format elf64-x86-64


Disassembly of section .plt:

0000000000000c90 <.plt>:
 c90:	ff 35 72 c3 20 00    	pushq  0x20c372(%rip)        # 20d008 <_GLOBAL_OFFSET_TABLE_+0x8>
 c96:	ff 25 74 c3 20 00    	jmpq   *0x20c374(%rip)        # 20d010 <_GLOBAL_OFFSET_TABLE_+0x10>
 c9c:	0f 1f 40 00          	nopl   0x0(%rax)

0000000000000ca0 <lucet_vmctx_grow_memory@plt>:
 ca0:	ff 25 72 c3 20 00    	jmpq   *0x20c372(%rip)        # 20d018 <lucet_vmctx_grow_memory>
 ca6:	68 00 00 00 00       	pushq  $0x0
 cab:	e9 e0 ff ff ff       	jmpq   c90 <.plt>

0000000000000cb0 <lucet_vmctx_current_memory@plt>:
 cb0:	ff 25 6a c3 20 00    	jmpq   *0x20c36a(%rip)        # 20d020 <lucet_vmctx_current_memory>
 cb6:	68 01 00 00 00       	pushq  $0x1
 cbb:	e9 d0 ff ff ff       	jmpq   c90 <.plt>

Disassembly of section .text:

0000000000000cc0 <guest_func_abort>:
     cc0:	55                   	push   %rbp
     cc1:	48 89 e5             	mov    %rsp,%rbp
     cc4:	0f 0b                	ud2    
	...

0000000000000cd0 <guest_func_2>:
     cd0:	55                   	push   %rbp
     cd1:	48 89 e5             	mov    %rsp,%rbp
     cd4:	53                   	push   %rbx
     cd5:	41 54                	push   %r12
     cd7:	41 55                	push   %r13
     cd9:	41 56                	push   %r14
     cdb:	41 57                	push   %r15
     cdd:	48 81 ec 18 01 00 00 	sub    $0x118,%rsp
     ce4:	48 89 bc 24 f8 00 00 	mov    %rdi,0xf8(%rsp)
     ceb:	00 
     cec:	89 b4 24 14 01 00 00 	mov    %esi,0x114(%rsp)
     cf3:	89 94 24 10 01 00 00 	mov    %edx,0x110(%rsp)
     cfa:	31 c0                	xor    %eax,%eax
     cfc:	89 84 24 0c 01 00 00 	mov    %eax,0x10c(%rsp)
     d03:	49 89 ff             	mov    %rdi,%r15
     d06:	49 8b 47 f0          	mov    -0x10(%r15),%rax
     d0a:	0f ae e8             	lfence 
     d0d:	8b 00                	mov    (%rax),%eax
     d0f:	0f ae e8             	lfence 
     d12:	89 84 24 08 01 00 00 	mov    %eax,0x108(%rsp)
     d19:	41 89 c7             	mov    %eax,%r15d
     d1c:	41 81 c7 00 ff ff ff 	add    $0xffffff00,%r15d
     d23:	44 89 bc 24 04 01 00 	mov    %r15d,0x104(%rsp)
     d2a:	00 
     d2b:	49 89 ff             	mov    %rdi,%r15
     d2e:	49 8b 47 f0          	mov    -0x10(%r15),%rax
     d32:	44 8b bc 24 04 01 00 	mov    0x104(%rsp),%r15d
     d39:	00 
     d3a:	0f ae e8             	lfence 
     d3d:	44 89 38             	mov    %r15d,(%rax)
     d40:	44 8b bc 24 08 01 00 	mov    0x108(%rsp),%r15d
     d47:	00 
     d48:	41 83 c7 90          	add    $0xffffff90,%r15d
     d4c:	41 89 f6             	mov    %esi,%r14d
     d4f:	41 81 c6 90 00 00 00 	add    $0x90,%r14d
     d56:	44 89 f0             	mov    %r14d,%eax
     d59:	48 89 84 24 f0 00 00 	mov    %rax,0xf0(%rsp)
     d60:	00 
     d61:	49 89 fe             	mov    %rdi,%r14
     d64:	49 89 c5             	mov    %rax,%r13
     d67:	4b 8b 04 2e          	mov    (%r14,%r13,1),%rax
     d6b:	44 89 f9             	mov    %r15d,%ecx
     d6e:	49 89 ff             	mov    %rdi,%r15
     d71:	49 89 04 0f          	mov    %rax,(%r15,%rcx,1)
     d75:	44 8b bc 24 08 01 00 	mov    0x108(%rsp),%r15d
     d7c:	00 
     d7d:	41 83 c7 98          	add    $0xffffff98,%r15d
     d81:	41 89 f6             	mov    %esi,%r14d
     d84:	41 81 c6 98 00 00 00 	add    $0x98,%r14d
     d8b:	44 89 f0             	mov    %r14d,%eax
     d8e:	48 89 84 24 e8 00 00 	mov    %rax,0xe8(%rsp)
     d95:	00 
     d96:	49 89 fe             	mov    %rdi,%r14
     d99:	49 89 c5             	mov    %rax,%r13
     d9c:	4b 8b 04 2e          	mov    (%r14,%r13,1),%rax
     da0:	44 89 f9             	mov    %r15d,%ecx
     da3:	49 89 ff             	mov    %rdi,%r15
     da6:	49 89 04 0f          	mov    %rax,(%r15,%rcx,1)
     daa:	44 8b bc 24 08 01 00 	mov    0x108(%rsp),%r15d
     db1:	00 
     db2:	41 83 c7 a0          	add    $0xffffffa0,%r15d
     db6:	41 89 f6             	mov    %esi,%r14d
     db9:	41 81 c6 a0 00 00 00 	add    $0xa0,%r14d
     dc0:	44 89 f0             	mov    %r14d,%eax
     dc3:	48 89 84 24 e0 00 00 	mov    %rax,0xe0(%rsp)
     dca:	00 
     dcb:	49 89 fe             	mov    %rdi,%r14
     dce:	49 89 c5             	mov    %rax,%r13
     dd1:	4b 8b 04 2e          	mov    (%r14,%r13,1),%rax
     dd5:	44 89 f9             	mov    %r15d,%ecx
     dd8:	49 89 ff             	mov    %rdi,%r15
     ddb:	49 89 04 0f          	mov    %rax,(%r15,%rcx,1)
     ddf:	44 8b bc 24 08 01 00 	mov    0x108(%rsp),%r15d
     de6:	00 
     de7:	41 83 c7 a8          	add    $0xffffffa8,%r15d
     deb:	41 89 f6             	mov    %esi,%r14d
     dee:	41 81 c6 a8 00 00 00 	add    $0xa8,%r14d
     df5:	44 89 f0             	mov    %r14d,%eax
     df8:	48 89 84 24 d8 00 00 	mov    %rax,0xd8(%rsp)
     dff:	00 
     e00:	49 89 fe             	mov    %rdi,%r14
     e03:	49 89 c5             	mov    %rax,%r13
     e06:	4b 8b 04 2e          	mov    (%r14,%r13,1),%rax
     e0a:	44 89 f9             	mov    %r15d,%ecx
     e0d:	49 89 ff             	mov    %rdi,%r15
     e10:	49 89 04 0f          	mov    %rax,(%r15,%rcx,1)
     e14:	44 8b bc 24 08 01 00 	mov    0x108(%rsp),%r15d
     e1b:	00 
     e1c:	41 83 c7 b0          	add    $0xffffffb0,%r15d
     e20:	41 89 f6             	mov    %esi,%r14d
     e23:	41 81 c6 b0 00 00 00 	add    $0xb0,%r14d
     e2a:	44 89 f0             	mov    %r14d,%eax
     e2d:	48 89 84 24 d0 00 00 	mov    %rax,0xd0(%rsp)
     e34:	00 
     e35:	49 89 fe             	mov    %rdi,%r14
     e38:	49 89 c5             	mov    %rax,%r13
     e3b:	4b 8b 04 2e          	mov    (%r14,%r13,1),%rax
     e3f:	44 89 f9             	mov    %r15d,%ecx
     e42:	49 89 ff             	mov    %rdi,%r15
     e45:	49 89 04 0f          	mov    %rax,(%r15,%rcx,1)
     e49:	44 8b bc 24 08 01 00 	mov    0x108(%rsp),%r15d
     e50:	00 
     e51:	41 83 c7 b8          	add    $0xffffffb8,%r15d
     e55:	41 89 f6             	mov    %esi,%r14d
     e58:	41 81 c6 b8 00 00 00 	add    $0xb8,%r14d
     e5f:	44 89 f0             	mov    %r14d,%eax
     e62:	48 89 84 24 c8 00 00 	mov    %rax,0xc8(%rsp)
     e69:	00 
     e6a:	49 89 fe             	mov    %rdi,%r14
     e6d:	49 89 c5             	mov    %rax,%r13
     e70:	4b 8b 04 2e          	mov    (%r14,%r13,1),%rax
     e74:	44 89 f9             	mov    %r15d,%ecx
     e77:	49 89 ff             	mov    %rdi,%r15
     e7a:	49 89 04 0f          	mov    %rax,(%r15,%rcx,1)
     e7e:	44 8b bc 24 08 01 00 	mov    0x108(%rsp),%r15d
     e85:	00 
     e86:	41 83 c7 c8          	add    $0xffffffc8,%r15d
     e8a:	b8 08 04 00 00       	mov    $0x408,%eax
     e8f:	89 c0                	mov    %eax,%eax
     e91:	49 8b 04 06          	mov    (%r14,%rax,1),%rax
     e95:	44 89 f9             	mov    %r15d,%ecx
     e98:	49 89 ff             	mov    %rdi,%r15
     e9b:	49 89 04 0f          	mov    %rax,(%r15,%rcx,1)
     e9f:	44 8b bc 24 08 01 00 	mov    0x108(%rsp),%r15d
     ea6:	00 
     ea7:	41 83 c7 d0          	add    $0xffffffd0,%r15d
     eab:	b8 10 04 00 00       	mov    $0x410,%eax
     eb0:	89 c0                	mov    %eax,%eax
     eb2:	49 8b 04 06          	mov    (%r14,%rax,1),%rax
     eb6:	44 89 f9             	mov    %r15d,%ecx
     eb9:	49 89 ff             	mov    %rdi,%r15
     ebc:	49 89 04 0f          	mov    %rax,(%r15,%rcx,1)
     ec0:	44 8b bc 24 08 01 00 	mov    0x108(%rsp),%r15d
     ec7:	00 
     ec8:	41 83 c7 d8          	add    $0xffffffd8,%r15d
     ecc:	b8 18 04 00 00       	mov    $0x418,%eax
     ed1:	89 c0                	mov    %eax,%eax
     ed3:	49 8b 04 06          	mov    (%r14,%rax,1),%rax
     ed7:	44 89 f9             	mov    %r15d,%ecx
     eda:	49 89 ff             	mov    %rdi,%r15
     edd:	49 89 04 0f          	mov    %rax,(%r15,%rcx,1)
     ee1:	44 8b bc 24 08 01 00 	mov    0x108(%rsp),%r15d
     ee8:	00 
     ee9:	41 83 c7 f0          	add    $0xfffffff0,%r15d
     eed:	b8 30 04 00 00       	mov    $0x430,%eax
     ef2:	89 c0                	mov    %eax,%eax
     ef4:	49 8b 04 06          	mov    (%r14,%rax,1),%rax
     ef8:	44 89 f9             	mov    %r15d,%ecx
     efb:	49 89 ff             	mov    %rdi,%r15
     efe:	49 89 04 0f          	mov    %rax,(%r15,%rcx,1)
     f02:	44 8b bc 24 08 01 00 	mov    0x108(%rsp),%r15d
     f09:	00 
     f0a:	41 83 c7 f8          	add    $0xfffffff8,%r15d
     f0e:	b8 38 04 00 00       	mov    $0x438,%eax
     f13:	89 c0                	mov    %eax,%eax
     f15:	49 8b 04 06          	mov    (%r14,%rax,1),%rax
     f19:	44 89 f9             	mov    %r15d,%ecx
     f1c:	49 89 ff             	mov    %rdi,%r15
     f1f:	49 89 04 0f          	mov    %rax,(%r15,%rcx,1)
     f23:	41 89 f7             	mov    %esi,%r15d
     f26:	41 81 c7 80 00 00 00 	add    $0x80,%r15d
     f2d:	44 89 f8             	mov    %r15d,%eax
     f30:	48 89 84 24 c0 00 00 	mov    %rax,0xc0(%rsp)
     f37:	00 
     f38:	49 89 ff             	mov    %rdi,%r15
     f3b:	49 89 c6             	mov    %rax,%r14
     f3e:	4b 8b 04 37          	mov    (%r15,%r14,1),%rax
     f42:	44 8b bc 24 04 01 00 	mov    0x104(%rsp),%r15d
     f49:	00 
     f4a:	44 89 f9             	mov    %r15d,%ecx
     f4d:	49 89 ff             	mov    %rdi,%r15
     f50:	49 89 84 0f 80 00 00 	mov    %rax,0x80(%r15,%rcx,1)
     f57:	00 
     f58:	41 89 f7             	mov    %esi,%r15d
     f5b:	41 81 c7 88 00 00 00 	add    $0x88,%r15d
     f62:	44 89 f8             	mov    %r15d,%eax
     f65:	48 89 84 24 b8 00 00 	mov    %rax,0xb8(%rsp)
     f6c:	00 
     f6d:	49 89 ff             	mov    %rdi,%r15
     f70:	49 89 c6             	mov    %rax,%r14
     f73:	4b 8b 04 37          	mov    (%r15,%r14,1),%rax
     f77:	49 89 84 0f 88 00 00 	mov    %rax,0x88(%r15,%rcx,1)
     f7e:	00 
     f7f:	b8 00 04 00 00       	mov    $0x400,%eax
     f84:	89 c0                	mov    %eax,%eax
     f86:	49 8b 04 07          	mov    (%r15,%rax,1),%rax
     f8a:	49 89 84 0f c0 00 00 	mov    %rax,0xc0(%r15,%rcx,1)
     f91:	00 
     f92:	b8 20 04 00 00       	mov    $0x420,%eax
     f97:	89 c0                	mov    %eax,%eax
     f99:	49 8b 04 07          	mov    (%r15,%rax,1),%rax
     f9d:	49 89 84 0f e0 00 00 	mov    %rax,0xe0(%r15,%rcx,1)
     fa4:	00 
     fa5:	b8 28 04 00 00       	mov    $0x428,%eax
     faa:	89 c0                	mov    %eax,%eax
     fac:	49 8b 04 07          	mov    (%r15,%rax,1),%rax
     fb0:	49 89 84 0f e8 00 00 	mov    %rax,0xe8(%r15,%rcx,1)
     fb7:	00 
     fb8:	41 89 f7             	mov    %esi,%r15d
     fbb:	44 89 f8             	mov    %r15d,%eax
     fbe:	49 89 ff             	mov    %rdi,%r15
     fc1:	49 8b 84 07 c0 00 00 	mov    0xc0(%r15,%rax,1),%rax
     fc8:	00 
     fc9:	48 ba d1 82 e6 ad 7f 	movabs $0x510e527fade682d1,%rdx
     fd0:	52 0e 51 
     fd3:	48 31 d0             	xor    %rdx,%rax
     fd6:	48 89 84 24 b0 00 00 	mov    %rax,0xb0(%rsp)
     fdd:	00 
     fde:	49 89 c7             	mov    %rax,%r15
     fe1:	49 89 fe             	mov    %rdi,%r14
     fe4:	4d 89 bc 0e e0 00 00 	mov    %r15,0xe0(%r14,%rcx,1)
     feb:	00 
     fec:	41 89 f7             	mov    %esi,%r15d
     fef:	41 81 c7 c8 00 00 00 	add    $0xc8,%r15d
     ff6:	44 89 f8             	mov    %r15d,%eax
     ff9:	49 89 ff             	mov    %rdi,%r15
     ffc:	49 8b 04 07          	mov    (%r15,%rax,1),%rax
    1000:	48 ba 1f 6c 3e 2b 8c 	movabs $0x9b05688c2b3e6c1f,%rdx
    1007:	68 05 9b 
    100a:	48 31 d0             	xor    %rdx,%rax
    100d:	48 89 84 24 a8 00 00 	mov    %rax,0xa8(%rsp)
    1014:	00 
    1015:	49 89 c7             	mov    %rax,%r15
    1018:	4d 89 bc 0e e8 00 00 	mov    %r15,0xe8(%r14,%rcx,1)
    101f:	00 
    1020:	44 8b bc 24 10 01 00 	mov    0x110(%rsp),%r15d
    1027:	00 
    1028:	45 85 ff             	test   %r15d,%r15d
    102b:	74 1f                	je     104c <guest_func_2+0x37c>
    102d:	48 b8 94 42 be 04 54 	movabs $0xe07c265404be4294,%rax
    1034:	26 7c e0 
    1037:	48 89 84 24 a0 00 00 	mov    %rax,0xa0(%rsp)
    103e:	00 
    103f:	49 89 c7             	mov    %rax,%r15
    1042:	4d 89 bc 0e f0 00 00 	mov    %r15,0xf0(%r14,%rcx,1)
    1049:	00 
    104a:	eb 12                	jmp    105e <guest_func_2+0x38e>
    104c:	48 b8 6b bd 41 fb ab 	movabs $0x1f83d9abfb41bd6b,%rax
    1053:	d9 83 1f 
    1056:	48 89 84 24 a0 00 00 	mov    %rax,0xa0(%rsp)
    105d:	00 
    105e:	44 8b bc 24 0c 01 00 	mov    0x10c(%rsp),%r15d
    1065:	00 
    1066:	eb 03                	jmp    106b <guest_func_2+0x39b>
    1068:	41 89 c7             	mov    %eax,%r15d
    106b:	44 8b b4 24 04 01 00 	mov    0x104(%rsp),%r14d
    1072:	00 
    1073:	45 01 fe             	add    %r15d,%r14d
    1076:	44 8b ac 24 14 01 00 	mov    0x114(%rsp),%r13d
    107d:	00 
    107e:	45 01 fd             	add    %r15d,%r13d
    1081:	44 89 e8             	mov    %r13d,%eax
    1084:	4c 8b ac 24 f8 00 00 	mov    0xf8(%rsp),%r13
    108b:	00 
    108c:	49 8b 44 05 00       	mov    0x0(%r13,%rax,1),%rax
    1091:	44 89 f2             	mov    %r14d,%edx
    1094:	4d 89 ee             	mov    %r13,%r14
    1097:	49 89 04 16          	mov    %rax,(%r14,%rdx,1)
    109b:	44 89 f8             	mov    %r15d,%eax
    109e:	83 c0 08             	add    $0x8,%eax
    10a1:	81 f8 80 00 00 00    	cmp    $0x80,%eax
    10a7:	75 bf                	jne    1068 <guest_func_2+0x398>
    10a9:	48 b8 08 c9 bc f3 67 	movabs $0x6a09e667f3bcc908,%rax
    10b0:	e6 09 6a 
    10b3:	48 ba 3b a7 ca 84 85 	movabs $0xbb67ae8584caa73b,%rdx
    10ba:	ae 67 bb 
    10bd:	48 89 94 24 70 00 00 	mov    %rdx,0x70(%rsp)
    10c4:	00 
    10c5:	48 ba 2b f8 94 fe 72 	movabs $0x3c6ef372fe94f82b,%rdx
    10cc:	f3 6e 3c 
    10cf:	48 bb 79 21 7e 13 19 	movabs $0x5be0cd19137e2179,%rbx
    10d6:	cd e0 5b 
    10d9:	48 89 9c 24 58 00 00 	mov    %rbx,0x58(%rsp)
    10e0:	00 
    10e1:	48 bb f1 36 1d 5f 3a 	movabs $0xa54ff53a5f1d36f1,%rbx
    10e8:	f5 4f a5 
    10eb:	48 89 9c 24 90 00 00 	mov    %rbx,0x90(%rsp)
    10f2:	00 
    10f3:	4d 89 ef             	mov    %r13,%r15
    10f6:	49 8b 9c 0f b8 00 00 	mov    0xb8(%r15,%rcx,1),%rbx
    10fd:	00 
    10fe:	48 89 9c 24 68 00 00 	mov    %rbx,0x68(%rsp)
    1105:	00 
    1106:	49 8b 9c 0f 98 00 00 	mov    0x98(%r15,%rcx,1),%rbx
    110d:	00 
    110e:	48 89 9c 24 60 00 00 	mov    %rbx,0x60(%rsp)
    1115:	00 
    1116:	49 8b 9c 0f b0 00 00 	mov    0xb0(%r15,%rcx,1),%rbx
    111d:	00 
    111e:	48 89 9c 24 88 00 00 	mov    %rbx,0x88(%rsp)
    1125:	00 
    1126:	49 8b 9c 0f 90 00 00 	mov    0x90(%r15,%rcx,1),%rbx
    112d:	00 
    112e:	49 8b b4 0f a8 00 00 	mov    0xa8(%r15,%rcx,1),%rsi
    1135:	00 
    1136:	48 89 b4 24 80 00 00 	mov    %rsi,0x80(%rsp)
    113d:	00 
    113e:	49 8b b4 0f 88 00 00 	mov    0x88(%r15,%rcx,1),%rsi
    1145:	00 
    1146:	48 89 b4 24 78 00 00 	mov    %rsi,0x78(%rsp)
    114d:	00 
    114e:	49 8b b4 0f a0 00 00 	mov    0xa0(%r15,%rcx,1),%rsi
    1155:	00 
    1156:	48 89 b4 24 98 00 00 	mov    %rsi,0x98(%rsp)
    115d:	00 
    115e:	49 8b 8c 0f 80 00 00 	mov    0x80(%r15,%rcx,1),%rcx
    1165:	00 
    1166:	eb 09                	jmp    1171 <guest_func_2+0x4a1>
    1168:	48 89 de             	mov    %rbx,%rsi
    116b:	48 89 c3             	mov    %rax,%rbx
    116e:	48 89 f0             	mov    %rsi,%rax
    1171:	44 8b bc 24 0c 01 00 	mov    0x10c(%rsp),%r15d
    1178:	00 
    1179:	41 81 c7 40 04 00 00 	add    $0x440,%r15d
    1180:	44 89 fe             	mov    %r15d,%esi
    1183:	4c 8b bc 24 f8 00 00 	mov    0xf8(%rsp),%r15
    118a:	00 
    118b:	41 0f b6 34 37       	movzbl (%r15,%rsi,1),%esi
    1190:	c1 e6 03             	shl    $0x3,%esi
    1193:	44 8b bc 24 04 01 00 	mov    0x104(%rsp),%r15d
    119a:	00 
    119b:	44 01 fe             	add    %r15d,%esi
    119e:	89 f6                	mov    %esi,%esi
    11a0:	4c 8b bc 24 f8 00 00 	mov    0xf8(%rsp),%r15
    11a7:	00 
    11a8:	0f ae e8             	lfence 
    11ab:	49 8b 34 37          	mov    (%r15,%rsi,1),%rsi
    11af:	4c 8b bc 24 98 00 00 	mov    0x98(%rsp),%r15
    11b6:	00 
    11b7:	49 01 cf             	add    %rcx,%r15
    11ba:	4c 01 fe             	add    %r15,%rsi
    11bd:	48 89 f1             	mov    %rsi,%rcx
    11c0:	4c 8b bc 24 b0 00 00 	mov    0xb0(%rsp),%r15
    11c7:	00 
    11c8:	4c 31 f9             	xor    %r15,%rcx
    11cb:	48 c1 c1 20          	rol    $0x20,%rcx
    11cf:	48 89 8c 24 50 00 00 	mov    %rcx,0x50(%rsp)
    11d6:	00 
    11d7:	49 89 cf             	mov    %rcx,%r15
    11da:	49 01 c7             	add    %rax,%r15
    11dd:	4c 89 bc 24 48 00 00 	mov    %r15,0x48(%rsp)
    11e4:	00 
    11e5:	4c 8b bc 24 98 00 00 	mov    0x98(%rsp),%r15
    11ec:	00 
    11ed:	4c 8b b4 24 48 00 00 	mov    0x48(%rsp),%r14
    11f4:	00 
    11f5:	4d 31 f7             	xor    %r14,%r15
    11f8:	49 c1 c7 28          	rol    $0x28,%r15
    11fc:	4c 89 bc 24 40 00 00 	mov    %r15,0x40(%rsp)
    1203:	00 
    1204:	44 8b bc 24 0c 01 00 	mov    0x10c(%rsp),%r15d
    120b:	00 
    120c:	41 81 c7 41 04 00 00 	add    $0x441,%r15d
    1213:	44 89 f8             	mov    %r15d,%eax
    1216:	4c 8b bc 24 f8 00 00 	mov    0xf8(%rsp),%r15
    121d:	00 
    121e:	41 0f b6 04 07       	movzbl (%r15,%rax,1),%eax
    1223:	c1 e0 03             	shl    $0x3,%eax
    1226:	44 8b bc 24 04 01 00 	mov    0x104(%rsp),%r15d
    122d:	00 
    122e:	44 01 f8             	add    %r15d,%eax
    1231:	89 c0                	mov    %eax,%eax
    1233:	4c 8b bc 24 f8 00 00 	mov    0xf8(%rsp),%r15
    123a:	00 
    123b:	0f ae e8             	lfence 
    123e:	49 8b 04 07          	mov    (%r15,%rax,1),%rax
    1242:	48 01 f0             	add    %rsi,%rax
    1245:	4c 8b bc 24 40 00 00 	mov    0x40(%rsp),%r15
    124c:	00 
    124d:	49 01 c7             	add    %rax,%r15
    1250:	4c 89 bc 24 38 00 00 	mov    %r15,0x38(%rsp)
    1257:	00 
    1258:	44 8b bc 24 0c 01 00 	mov    0x10c(%rsp),%r15d
    125f:	00 
    1260:	41 81 c7 44 04 00 00 	add    $0x444,%r15d
    1267:	44 89 f8             	mov    %r15d,%eax
    126a:	4c 8b bc 24 f8 00 00 	mov    0xf8(%rsp),%r15
    1271:	00 
    1272:	41 0f b6 04 07       	movzbl (%r15,%rax,1),%eax
    1277:	c1 e0 03             	shl    $0x3,%eax
    127a:	44 8b bc 24 04 01 00 	mov    0x104(%rsp),%r15d
    1281:	00 
    1282:	44 01 f8             	add    %r15d,%eax
    1285:	89 c0                	mov    %eax,%eax
    1287:	4c 8b bc 24 f8 00 00 	mov    0xf8(%rsp),%r15
    128e:	00 
    128f:	0f ae e8             	lfence 
    1292:	49 8b 04 07          	mov    (%r15,%rax,1),%rax
    1296:	4c 8b bc 24 88 00 00 	mov    0x88(%rsp),%r15
    129d:	00 
    129e:	49 01 df             	add    %rbx,%r15
    12a1:	4c 01 f8             	add    %r15,%rax
    12a4:	4c 8b bc 24 a0 00 00 	mov    0xa0(%rsp),%r15
    12ab:	00 
    12ac:	49 31 c7             	xor    %rax,%r15
    12af:	49 c1 c7 20          	rol    $0x20,%r15
    12b3:	4c 89 f9             	mov    %r15,%rcx
    12b6:	48 01 d1             	add    %rdx,%rcx
    12b9:	48 89 8c 24 30 00 00 	mov    %rcx,0x30(%rsp)
    12c0:	00 
    12c1:	49 89 ce             	mov    %rcx,%r14
    12c4:	4c 8b ac 24 88 00 00 	mov    0x88(%rsp),%r13
    12cb:	00 
    12cc:	4d 31 ee             	xor    %r13,%r14
    12cf:	49 c1 c6 28          	rol    $0x28,%r14
    12d3:	4c 89 b4 24 28 00 00 	mov    %r14,0x28(%rsp)
    12da:	00 
    12db:	44 8b b4 24 0c 01 00 	mov    0x10c(%rsp),%r14d
    12e2:	00 
    12e3:	41 81 c6 45 04 00 00 	add    $0x445,%r14d
    12ea:	44 89 f1             	mov    %r14d,%ecx
    12ed:	4c 8b b4 24 f8 00 00 	mov    0xf8(%rsp),%r14
    12f4:	00 
    12f5:	41 0f b6 0c 0e       	movzbl (%r14,%rcx,1),%ecx
    12fa:	c1 e1 03             	shl    $0x3,%ecx
    12fd:	44 8b b4 24 04 01 00 	mov    0x104(%rsp),%r14d
    1304:	00 
    1305:	44 01 f1             	add    %r14d,%ecx
    1308:	89 c9                	mov    %ecx,%ecx
    130a:	4c 8b b4 24 f8 00 00 	mov    0xf8(%rsp),%r14
    1311:	00 
    1312:	0f ae e8             	lfence 
    1315:	49 8b 0c 0e          	mov    (%r14,%rcx,1),%rcx
    1319:	48 01 c1             	add    %rax,%rcx
    131c:	4c 8b b4 24 28 00 00 	mov    0x28(%rsp),%r14
    1323:	00 
    1324:	49 01 ce             	add    %rcx,%r14
    1327:	4c 89 b4 24 20 00 00 	mov    %r14,0x20(%rsp)
    132e:	00 
    132f:	44 8b b4 24 0c 01 00 	mov    0x10c(%rsp),%r14d
    1336:	00 
    1337:	41 81 c6 42 04 00 00 	add    $0x442,%r14d
    133e:	44 89 f0             	mov    %r14d,%eax
    1341:	4c 8b b4 24 f8 00 00 	mov    0xf8(%rsp),%r14
    1348:	00 
    1349:	41 0f b6 04 06       	movzbl (%r14,%rax,1),%eax
    134e:	c1 e0 03             	shl    $0x3,%eax
    1351:	44 8b b4 24 04 01 00 	mov    0x104(%rsp),%r14d
    1358:	00 
    1359:	44 01 f0             	add    %r14d,%eax
    135c:	89 c0                	mov    %eax,%eax
    135e:	4c 8b b4 24 f8 00 00 	mov    0xf8(%rsp),%r14
    1365:	00 
    1366:	0f ae e8             	lfence 
    1369:	49 8b 04 06          	mov    (%r14,%rax,1),%rax
    136d:	4c 8b b4 24 80 00 00 	mov    0x80(%rsp),%r14
    1374:	00 
    1375:	4c 8b ac 24 78 00 00 	mov    0x78(%rsp),%r13
    137c:	00 
    137d:	4d 01 ee             	add    %r13,%r14
    1380:	4c 01 f0             	add    %r14,%rax
    1383:	48 89 c1             	mov    %rax,%rcx
    1386:	4c 8b b4 24 a8 00 00 	mov    0xa8(%rsp),%r14
    138d:	00 
    138e:	4c 31 f1             	xor    %r14,%rcx
    1391:	48 c1 c1 20          	rol    $0x20,%rcx
    1395:	48 89 ca             	mov    %rcx,%rdx
    1398:	4c 8b b4 24 70 00 00 	mov    0x70(%rsp),%r14
    139f:	00 
    13a0:	4c 01 f2             	add    %r14,%rdx
    13a3:	48 89 d3             	mov    %rdx,%rbx
    13a6:	4c 8b b4 24 80 00 00 	mov    0x80(%rsp),%r14
    13ad:	00 
    13ae:	4c 31 f3             	xor    %r14,%rbx
    13b1:	48 c1 c3 28          	rol    $0x28,%rbx
    13b5:	48 89 9c 24 18 00 00 	mov    %rbx,0x18(%rsp)
    13bc:	00 
    13bd:	44 8b b4 24 0c 01 00 	mov    0x10c(%rsp),%r14d
    13c4:	00 
    13c5:	41 81 c6 43 04 00 00 	add    $0x443,%r14d
    13cc:	44 89 f3             	mov    %r14d,%ebx
    13cf:	4c 8b b4 24 f8 00 00 	mov    0xf8(%rsp),%r14
    13d6:	00 
    13d7:	41 0f b6 1c 1e       	movzbl (%r14,%rbx,1),%ebx
    13dc:	c1 e3 03             	shl    $0x3,%ebx
    13df:	44 8b b4 24 04 01 00 	mov    0x104(%rsp),%r14d
    13e6:	00 
    13e7:	44 01 f3             	add    %r14d,%ebx
    13ea:	89 db                	mov    %ebx,%ebx
    13ec:	4c 8b b4 24 f8 00 00 	mov    0xf8(%rsp),%r14
    13f3:	00 
    13f4:	0f ae e8             	lfence 
    13f7:	49 8b 1c 1e          	mov    (%r14,%rbx,1),%rbx
    13fb:	48 01 c3             	add    %rax,%rbx
    13fe:	4c 8b b4 24 18 00 00 	mov    0x18(%rsp),%r14
    1405:	00 
    1406:	49 01 de             	add    %rbx,%r14
    1409:	4c 89 b4 24 10 00 00 	mov    %r14,0x10(%rsp)
    1410:	00 
    1411:	49 31 ce             	xor    %rcx,%r14
    1414:	49 c1 c6 30          	rol    $0x30,%r14
    1418:	4c 89 b4 24 08 00 00 	mov    %r14,0x8(%rsp)
    141f:	00 
    1420:	49 01 d6             	add    %rdx,%r14
    1423:	4c 8b ac 24 20 00 00 	mov    0x20(%rsp),%r13
    142a:	00 
    142b:	4d 31 fd             	xor    %r15,%r13
    142e:	49 c1 c5 30          	rol    $0x30,%r13
    1432:	44 8b bc 24 0c 01 00 	mov    0x10c(%rsp),%r15d
    1439:	00 
    143a:	41 81 c7 4e 04 00 00 	add    $0x44e,%r15d
    1441:	44 89 f8             	mov    %r15d,%eax
    1444:	4c 8b bc 24 f8 00 00 	mov    0xf8(%rsp),%r15
    144b:	00 
    144c:	41 0f b6 04 07       	movzbl (%r15,%rax,1),%eax
    1451:	c1 e0 03             	shl    $0x3,%eax
    1454:	44 8b bc 24 04 01 00 	mov    0x104(%rsp),%r15d
    145b:	00 
    145c:	44 01 f8             	add    %r15d,%eax
    145f:	89 c0                	mov    %eax,%eax
    1461:	4c 8b bc 24 f8 00 00 	mov    0xf8(%rsp),%r15
    1468:	00 
    1469:	0f ae e8             	lfence 
    146c:	49 8b 04 07          	mov    (%r15,%rax,1),%rax
    1470:	44 8b bc 24 0c 01 00 	mov    0x10c(%rsp),%r15d
    1477:	00 
    1478:	41 81 c7 46 04 00 00 	add    $0x446,%r15d
    147f:	44 89 f9             	mov    %r15d,%ecx
    1482:	4c 8b bc 24 f8 00 00 	mov    0xf8(%rsp),%r15
    1489:	00 
    148a:	41 0f b6 0c 0f       	movzbl (%r15,%rcx,1),%ecx
    148f:	c1 e1 03             	shl    $0x3,%ecx
    1492:	44 8b bc 24 04 01 00 	mov    0x104(%rsp),%r15d
    1499:	00 
    149a:	44 01 f9             	add    %r15d,%ecx
    149d:	89 c9                	mov    %ecx,%ecx
    149f:	4c 8b bc 24 f8 00 00 	mov    0xf8(%rsp),%r15
    14a6:	00 
    14a7:	0f ae e8             	lfence 
    14aa:	49 8b 0c 0f          	mov    (%r15,%rcx,1),%rcx
    14ae:	4c 8b bc 24 68 00 00 	mov    0x68(%rsp),%r15
    14b5:	00 
    14b6:	4c 8b a4 24 60 00 00 	mov    0x60(%rsp),%r12
    14bd:	00 
    14be:	4d 01 e7             	add    %r12,%r15
    14c1:	4c 01 f9             	add    %r15,%rcx
    14c4:	48 89 ca             	mov    %rcx,%rdx
    14c7:	4c 8b bc 24 58 00 00 	mov    0x58(%rsp),%r15
    14ce:	00 
    14cf:	4c 31 fa             	xor    %r15,%rdx
    14d2:	48 c1 c2 20          	rol    $0x20,%rdx
    14d6:	48 89 d3             	mov    %rdx,%rbx
    14d9:	4c 8b bc 24 90 00 00 	mov    0x90(%rsp),%r15
    14e0:	00 
    14e1:	4c 01 fb             	add    %r15,%rbx
    14e4:	48 89 de             	mov    %rbx,%rsi
    14e7:	4c 8b bc 24 68 00 00 	mov    0x68(%rsp),%r15
    14ee:	00 
    14ef:	4c 31 fe             	xor    %r15,%rsi
    14f2:	48 c1 c6 28          	rol    $0x28,%rsi
    14f6:	44 8b bc 24 0c 01 00 	mov    0x10c(%rsp),%r15d
    14fd:	00 
    14fe:	41 81 c7 47 04 00 00 	add    $0x447,%r15d
    1505:	44 89 ff             	mov    %r15d,%edi
    1508:	4c 8b bc 24 f8 00 00 	mov    0xf8(%rsp),%r15
    150f:	00 
    1510:	41 0f b6 3c 3f       	movzbl (%r15,%rdi,1),%edi
    1515:	c1 e7 03             	shl    $0x3,%edi
    1518:	44 8b bc 24 04 01 00 	mov    0x104(%rsp),%r15d
    151f:	00 
    1520:	44 01 ff             	add    %r15d,%edi
    1523:	89 ff                	mov    %edi,%edi
    1525:	4c 8b bc 24 f8 00 00 	mov    0xf8(%rsp),%r15
    152c:	00 
    152d:	0f ae e8             	lfence 
    1530:	49 8b 3c 3f          	mov    (%r15,%rdi,1),%rdi
    1534:	48 01 cf             	add    %rcx,%rdi
    1537:	48 89 f1             	mov    %rsi,%rcx
    153a:	48 01 f9             	add    %rdi,%rcx
    153d:	4c 8b bc 24 50 00 00 	mov    0x50(%rsp),%r15
    1544:	00 
    1545:	4c 8b a4 24 38 00 00 	mov    0x38(%rsp),%r12
    154c:	00 
    154d:	4d 31 e7             	xor    %r12,%r15
    1550:	49 c1 c7 30          	rol    $0x30,%r15
    1554:	4c 89 ff             	mov    %r15,%rdi
    1557:	4c 8b a4 24 48 00 00 	mov    0x48(%rsp),%r12
    155e:	00 
    155f:	4c 01 e7             	add    %r12,%rdi
    1562:	49 89 f8             	mov    %rdi,%r8
    1565:	4c 8b a4 24 40 00 00 	mov    0x40(%rsp),%r12
    156c:	00 
    156d:	4d 31 e0             	xor    %r12,%r8
    1570:	49 c1 c0 01          	rol    $0x1,%r8
    1574:	49 89 c9             	mov    %rcx,%r9
    1577:	4d 01 c1             	add    %r8,%r9
    157a:	4c 01 c8             	add    %r9,%rax
    157d:	4d 89 e9             	mov    %r13,%r9
    1580:	49 31 c1             	xor    %rax,%r9
    1583:	49 c1 c1 20          	rol    $0x20,%r9
    1587:	4d 89 f2             	mov    %r14,%r10
    158a:	4d 01 ca             	add    %r9,%r10
    158d:	4d 31 d0             	xor    %r10,%r8
    1590:	49 c1 c0 28          	rol    $0x28,%r8
    1594:	44 8b a4 24 0c 01 00 	mov    0x10c(%rsp),%r12d
    159b:	00 
    159c:	41 81 c4 4f 04 00 00 	add    $0x44f,%r12d
    15a3:	45 89 e3             	mov    %r12d,%r11d
    15a6:	4c 8b a4 24 f8 00 00 	mov    0xf8(%rsp),%r12
    15ad:	00 
    15ae:	47 0f b6 1c 1c       	movzbl (%r12,%r11,1),%r11d
    15b3:	41 c1 e3 03          	shl    $0x3,%r11d
    15b7:	44 8b a4 24 04 01 00 	mov    0x104(%rsp),%r12d
    15be:	00 
    15bf:	45 01 e3             	add    %r12d,%r11d
    15c2:	45 89 db             	mov    %r11d,%r11d
    15c5:	4c 8b a4 24 f8 00 00 	mov    0xf8(%rsp),%r12
    15cc:	00 
    15cd:	0f ae e8             	lfence 
    15d0:	4f 8b 1c 1c          	mov    (%r12,%r11,1),%r11
    15d4:	49 01 c3             	add    %rax,%r11
    15d7:	4c 89 c0             	mov    %r8,%rax
    15da:	4c 01 d8             	add    %r11,%rax
    15dd:	48 89 84 24 60 00 00 	mov    %rax,0x60(%rsp)
    15e4:	00 
    15e5:	49 89 c4             	mov    %rax,%r12
    15e8:	4d 31 e1             	xor    %r12,%r9
    15eb:	49 c1 c1 30          	rol    $0x30,%r9
    15ef:	4c 89 8c 24 a0 00 00 	mov    %r9,0xa0(%rsp)
    15f6:	00 
    15f7:	4d 89 cc             	mov    %r9,%r12
    15fa:	4d 01 e2             	add    %r12,%r10
    15fd:	4c 89 94 24 70 00 00 	mov    %r10,0x70(%rsp)
    1604:	00 
    1605:	4d 89 d4             	mov    %r10,%r12
    1608:	4d 31 c4             	xor    %r8,%r12
    160b:	49 c1 c4 01          	rol    $0x1,%r12
    160f:	4c 89 a4 24 98 00 00 	mov    %r12,0x98(%rsp)
    1616:	00 
    1617:	44 8b a4 24 0c 01 00 	mov    0x10c(%rsp),%r12d
    161e:	00 
    161f:	41 81 c4 4c 04 00 00 	add    $0x44c,%r12d
    1626:	44 89 e0             	mov    %r12d,%eax
    1629:	4c 8b a4 24 f8 00 00 	mov    0xf8(%rsp),%r12
    1630:	00 
    1631:	41 0f b6 04 04       	movzbl (%r12,%rax,1),%eax
    1636:	c1 e0 03             	shl    $0x3,%eax
    1639:	44 8b a4 24 04 01 00 	mov    0x104(%rsp),%r12d
    1640:	00 
    1641:	44 01 e0             	add    %r12d,%eax
    1644:	89 c0                	mov    %eax,%eax
    1646:	4c 8b a4 24 f8 00 00 	mov    0xf8(%rsp),%r12
    164d:	00 
    164e:	0f ae e8             	lfence 
    1651:	49 8b 04 04          	mov    (%r12,%rax,1),%rax
    1655:	48 31 ca             	xor    %rcx,%rdx
    1658:	48 c1 c2 30          	rol    $0x30,%rdx
    165c:	48 89 d1             	mov    %rdx,%rcx
    165f:	48 01 d9             	add    %rbx,%rcx
    1662:	48 89 cb             	mov    %rcx,%rbx
    1665:	48 31 f3             	xor    %rsi,%rbx
    1668:	48 c1 c3 01          	rol    $0x1,%rbx
    166c:	4c 8b a4 24 20 00 00 	mov    0x20(%rsp),%r12
    1673:	00 
    1674:	49 01 dc             	add    %rbx,%r12
    1677:	4c 01 e0             	add    %r12,%rax
    167a:	4c 8b a4 24 08 00 00 	mov    0x8(%rsp),%r12
    1681:	00 
    1682:	49 31 c4             	xor    %rax,%r12
    1685:	49 c1 c4 20          	rol    $0x20,%r12
    1689:	4c 01 e7             	add    %r12,%rdi
    168c:	48 89 fe             	mov    %rdi,%rsi
    168f:	48 31 de             	xor    %rbx,%rsi
    1692:	48 c1 c6 28          	rol    $0x28,%rsi
    1696:	44 8b 9c 24 0c 01 00 	mov    0x10c(%rsp),%r11d
    169d:	00 
    169e:	41 81 c3 4d 04 00 00 	add    $0x44d,%r11d
    16a5:	44 89 db             	mov    %r11d,%ebx
    16a8:	4c 8b 9c 24 f8 00 00 	mov    0xf8(%rsp),%r11
    16af:	00 
    16b0:	41 0f b6 1c 1b       	movzbl (%r11,%rbx,1),%ebx
    16b5:	c1 e3 03             	shl    $0x3,%ebx
    16b8:	44 8b 9c 24 04 01 00 	mov    0x104(%rsp),%r11d
    16bf:	00 
    16c0:	44 01 db             	add    %r11d,%ebx
    16c3:	89 db                	mov    %ebx,%ebx
    16c5:	4c 8b 9c 24 f8 00 00 	mov    0xf8(%rsp),%r11
    16cc:	00 
    16cd:	0f ae e8             	lfence 
    16d0:	49 8b 1c 1b          	mov    (%r11,%rbx,1),%rbx
    16d4:	48 01 c3             	add    %rax,%rbx
    16d7:	48 89 f0             	mov    %rsi,%rax
    16da:	48 01 d8             	add    %rbx,%rax
    16dd:	49 31 c4             	xor    %rax,%r12
    16e0:	49 c1 c4 30          	rol    $0x30,%r12
    16e4:	4c 89 a4 24 a8 00 00 	mov    %r12,0xa8(%rsp)
    16eb:	00 
    16ec:	48 89 fb             	mov    %rdi,%rbx
    16ef:	4c 01 e3             	add    %r12,%rbx
    16f2:	48 89 df             	mov    %rbx,%rdi
    16f5:	48 31 f7             	xor    %rsi,%rdi
    16f8:	48 c1 c7 01          	rol    $0x1,%rdi
    16fc:	48 89 bc 24 68 00 00 	mov    %rdi,0x68(%rsp)
    1703:	00 
    1704:	44 8b a4 24 0c 01 00 	mov    0x10c(%rsp),%r12d
    170b:	00 
    170c:	41 81 c4 4a 04 00 00 	add    $0x44a,%r12d
    1713:	44 89 e6             	mov    %r12d,%esi
    1716:	4d 89 dc             	mov    %r11,%r12
    1719:	41 0f b6 34 34       	movzbl (%r12,%rsi,1),%esi
    171e:	c1 e6 03             	shl    $0x3,%esi
    1721:	44 8b a4 24 04 01 00 	mov    0x104(%rsp),%r12d
    1728:	00 
    1729:	44 01 e6             	add    %r12d,%esi
    172c:	89 f6                	mov    %esi,%esi
    172e:	4d 89 dc             	mov    %r11,%r12
    1731:	0f ae e8             	lfence 
    1734:	49 8b 34 34          	mov    (%r12,%rsi,1),%rsi
    1738:	4c 8b a4 24 30 00 00 	mov    0x30(%rsp),%r12
    173f:	00 
    1740:	4d 01 ec             	add    %r13,%r12
    1743:	4c 89 e7             	mov    %r12,%rdi
    1746:	4c 8b ac 24 28 00 00 	mov    0x28(%rsp),%r13
    174d:	00 
    174e:	4c 31 ef             	xor    %r13,%rdi
    1751:	48 c1 c7 01          	rol    $0x1,%rdi
    1755:	4c 8b ac 24 10 00 00 	mov    0x10(%rsp),%r13
    175c:	00 
    175d:	49 01 fd             	add    %rdi,%r13
    1760:	4c 01 ee             	add    %r13,%rsi
    1763:	49 31 f7             	xor    %rsi,%r15
    1766:	49 c1 c7 20          	rol    $0x20,%r15
    176a:	4d 89 f8             	mov    %r15,%r8
    176d:	49 01 c8             	add    %rcx,%r8
    1770:	4c 89 c1             	mov    %r8,%rcx
    1773:	48 31 f9             	xor    %rdi,%rcx
    1776:	48 c1 c1 28          	rol    $0x28,%rcx
    177a:	44 8b ac 24 0c 01 00 	mov    0x10c(%rsp),%r13d
    1781:	00 
    1782:	41 81 c5 4b 04 00 00 	add    $0x44b,%r13d
    1789:	44 89 ef             	mov    %r13d,%edi
    178c:	4d 89 dd             	mov    %r11,%r13
    178f:	41 0f b6 7c 3d 00    	movzbl 0x0(%r13,%rdi,1),%edi
    1795:	c1 e7 03             	shl    $0x3,%edi
    1798:	44 8b ac 24 04 01 00 	mov    0x104(%rsp),%r13d
    179f:	00 
    17a0:	44 01 ef             	add    %r13d,%edi
    17a3:	89 ff                	mov    %edi,%edi
    17a5:	4d 89 dd             	mov    %r11,%r13
    17a8:	0f ae e8             	lfence 
    17ab:	49 8b 7c 3d 00       	mov    0x0(%r13,%rdi,1),%rdi
    17b0:	48 01 f7             	add    %rsi,%rdi
    17b3:	48 89 ce             	mov    %rcx,%rsi
    17b6:	48 01 fe             	add    %rdi,%rsi
    17b9:	48 89 b4 24 78 00 00 	mov    %rsi,0x78(%rsp)
    17c0:	00 
    17c1:	49 89 f5             	mov    %rsi,%r13
    17c4:	4d 31 ef             	xor    %r13,%r15
    17c7:	49 c1 c7 30          	rol    $0x30,%r15
    17cb:	4c 89 bc 24 b0 00 00 	mov    %r15,0xb0(%rsp)
    17d2:	00 
    17d3:	4d 01 f8             	add    %r15,%r8
    17d6:	4c 89 84 24 90 00 00 	mov    %r8,0x90(%rsp)
    17dd:	00 
    17de:	4d 89 c7             	mov    %r8,%r15
    17e1:	49 31 cf             	xor    %rcx,%r15
    17e4:	49 c1 c7 01          	rol    $0x1,%r15
    17e8:	4c 89 bc 24 88 00 00 	mov    %r15,0x88(%rsp)
    17ef:	00 
    17f0:	44 8b bc 24 0c 01 00 	mov    0x10c(%rsp),%r15d
    17f7:	00 
    17f8:	41 81 c7 48 04 00 00 	add    $0x448,%r15d
    17ff:	44 89 f9             	mov    %r15d,%ecx
    1802:	4d 89 df             	mov    %r11,%r15
    1805:	41 0f b6 0c 0f       	movzbl (%r15,%rcx,1),%ecx
    180a:	c1 e1 03             	shl    $0x3,%ecx
    180d:	44 8b bc 24 04 01 00 	mov    0x104(%rsp),%r15d
    1814:	00 
    1815:	44 01 f9             	add    %r15d,%ecx
    1818:	89 c9                	mov    %ecx,%ecx
    181a:	4d 89 df             	mov    %r11,%r15
    181d:	0f ae e8             	lfence 
    1820:	49 8b 0c 0f          	mov    (%r15,%rcx,1),%rcx
    1824:	4c 8b bc 24 18 00 00 	mov    0x18(%rsp),%r15
    182b:	00 
    182c:	4d 31 f7             	xor    %r14,%r15
    182f:	49 c1 c7 01          	rol    $0x1,%r15
    1833:	4c 89 fe             	mov    %r15,%rsi
    1836:	4c 8b b4 24 38 00 00 	mov    0x38(%rsp),%r14
    183d:	00 
    183e:	4c 01 f6             	add    %r14,%rsi
    1841:	48 01 f1             	add    %rsi,%rcx
    1844:	48 31 ca             	xor    %rcx,%rdx
    1847:	48 c1 c2 20          	rol    $0x20,%rdx
    184b:	48 89 d6             	mov    %rdx,%rsi
    184e:	4c 01 e6             	add    %r12,%rsi
    1851:	48 89 f7             	mov    %rsi,%rdi
    1854:	4c 31 ff             	xor    %r15,%rdi
    1857:	48 c1 c7 28          	rol    $0x28,%rdi
    185b:	44 8b bc 24 0c 01 00 	mov    0x10c(%rsp),%r15d
    1862:	00 
    1863:	41 81 c7 49 04 00 00 	add    $0x449,%r15d
    186a:	45 89 f8             	mov    %r15d,%r8d
    186d:	4d 89 df             	mov    %r11,%r15
    1870:	47 0f b6 04 07       	movzbl (%r15,%r8,1),%r8d
    1875:	41 c1 e0 03          	shl    $0x3,%r8d
    1879:	44 8b bc 24 04 01 00 	mov    0x104(%rsp),%r15d
    1880:	00 
    1881:	45 01 f8             	add    %r15d,%r8d
    1884:	45 89 c0             	mov    %r8d,%r8d
    1887:	4d 89 df             	mov    %r11,%r15
    188a:	0f ae e8             	lfence 
    188d:	4f 8b 04 07          	mov    (%r15,%r8,1),%r8
    1891:	49 01 c8             	add    %rcx,%r8
    1894:	48 89 f9             	mov    %rdi,%rcx
    1897:	4c 01 c1             	add    %r8,%rcx
    189a:	48 31 ca             	xor    %rcx,%rdx
    189d:	48 c1 c2 30          	rol    $0x30,%rdx
    18a1:	48 89 94 24 58 00 00 	mov    %rdx,0x58(%rsp)
    18a8:	00 
    18a9:	49 89 d7             	mov    %rdx,%r15
    18ac:	48 89 f2             	mov    %rsi,%rdx
    18af:	4c 01 fa             	add    %r15,%rdx
    18b2:	48 89 d6             	mov    %rdx,%rsi
    18b5:	48 31 fe             	xor    %rdi,%rsi
    18b8:	48 c1 c6 01          	rol    $0x1,%rsi
    18bc:	48 89 b4 24 80 00 00 	mov    %rsi,0x80(%rsp)
    18c3:	00 
    18c4:	44 8b bc 24 0c 01 00 	mov    0x10c(%rsp),%r15d
    18cb:	00 
    18cc:	41 83 c7 10          	add    $0x10,%r15d
    18d0:	44 89 bc 24 0c 01 00 	mov    %r15d,0x10c(%rsp)
    18d7:	00 
    18d8:	41 81 ff c0 00 00 00 	cmp    $0xc0,%r15d
    18df:	0f 85 83 f8 ff ff    	jne    1168 <guest_func_2+0x498>
    18e5:	4d 89 df             	mov    %r11,%r15
    18e8:	4c 8b b4 24 c0 00 00 	mov    0xc0(%rsp),%r14
    18ef:	00 
    18f0:	4b 8b 34 37          	mov    (%r15,%r14,1),%rsi
    18f4:	48 31 cb             	xor    %rcx,%rbx
    18f7:	48 31 de             	xor    %rbx,%rsi
    18fa:	4b 89 34 37          	mov    %rsi,(%r15,%r14,1)
    18fe:	4c 8b b4 24 b8 00 00 	mov    0xb8(%rsp),%r14
    1905:	00 
    1906:	4b 8b 0c 37          	mov    (%r15,%r14,1),%rcx
    190a:	4d 89 d7             	mov    %r10,%r15
    190d:	4d 89 ee             	mov    %r13,%r14
    1910:	4d 31 f7             	xor    %r14,%r15
    1913:	4c 31 f9             	xor    %r15,%rcx
    1916:	4d 89 df             	mov    %r11,%r15
    1919:	4c 8b b4 24 b8 00 00 	mov    0xb8(%rsp),%r14
    1920:	00 
    1921:	4b 89 0c 37          	mov    %rcx,(%r15,%r14,1)
    1925:	4c 8b b4 24 f0 00 00 	mov    0xf0(%rsp),%r14
    192c:	00 
    192d:	4b 8b 0c 37          	mov    (%r15,%r14,1),%rcx
    1931:	48 31 c2             	xor    %rax,%rdx
    1934:	48 31 d1             	xor    %rdx,%rcx
    1937:	4b 89 0c 37          	mov    %rcx,(%r15,%r14,1)
    193b:	4c 8b b4 24 e8 00 00 	mov    0xe8(%rsp),%r14
    1942:	00 
    1943:	4b 8b 04 37          	mov    (%r15,%r14,1),%rax
    1947:	4c 8b bc 24 90 00 00 	mov    0x90(%rsp),%r15
    194e:	00 
    194f:	4c 8b b4 24 60 00 00 	mov    0x60(%rsp),%r14
    1956:	00 
    1957:	4d 31 f7             	xor    %r14,%r15
    195a:	4c 31 f8             	xor    %r15,%rax
    195d:	4d 89 df             	mov    %r11,%r15
    1960:	4c 8b b4 24 e8 00 00 	mov    0xe8(%rsp),%r14
    1967:	00 
    1968:	4b 89 04 37          	mov    %rax,(%r15,%r14,1)
    196c:	4c 8b b4 24 e0 00 00 	mov    0xe0(%rsp),%r14
    1973:	00 
    1974:	4b 8b 04 37          	mov    (%r15,%r14,1),%rax
    1978:	4c 8b bc 24 98 00 00 	mov    0x98(%rsp),%r15
    197f:	00 
    1980:	4c 8b b4 24 b0 00 00 	mov    0xb0(%rsp),%r14
    1987:	00 
    1988:	4d 31 f7             	xor    %r14,%r15
    198b:	4c 31 f8             	xor    %r15,%rax
    198e:	4d 89 df             	mov    %r11,%r15
    1991:	4c 8b b4 24 e0 00 00 	mov    0xe0(%rsp),%r14
    1998:	00 
    1999:	4b 89 04 37          	mov    %rax,(%r15,%r14,1)
    199d:	4c 8b b4 24 d8 00 00 	mov    0xd8(%rsp),%r14
    19a4:	00 
    19a5:	4b 8b 04 37          	mov    (%r15,%r14,1),%rax
    19a9:	4c 8b bc 24 80 00 00 	mov    0x80(%rsp),%r15
    19b0:	00 
    19b1:	4c 8b b4 24 a8 00 00 	mov    0xa8(%rsp),%r14
    19b8:	00 
    19b9:	4d 31 f7             	xor    %r14,%r15
    19bc:	4c 31 f8             	xor    %r15,%rax
    19bf:	4d 89 df             	mov    %r11,%r15
    19c2:	4c 8b b4 24 d8 00 00 	mov    0xd8(%rsp),%r14
    19c9:	00 
    19ca:	4b 89 04 37          	mov    %rax,(%r15,%r14,1)
    19ce:	4c 8b b4 24 d0 00 00 	mov    0xd0(%rsp),%r14
    19d5:	00 
    19d6:	4b 8b 04 37          	mov    (%r15,%r14,1),%rax
    19da:	4c 8b bc 24 88 00 00 	mov    0x88(%rsp),%r15
    19e1:	00 
    19e2:	4d 89 ce             	mov    %r9,%r14
    19e5:	4d 31 f7             	xor    %r14,%r15
    19e8:	4c 31 f8             	xor    %r15,%rax
    19eb:	4d 89 df             	mov    %r11,%r15
    19ee:	4c 8b b4 24 d0 00 00 	mov    0xd0(%rsp),%r14
    19f5:	00 
    19f6:	4b 89 04 37          	mov    %rax,(%r15,%r14,1)
    19fa:	4c 8b b4 24 c8 00 00 	mov    0xc8(%rsp),%r14
    1a01:	00 
    1a02:	4b 8b 04 37          	mov    (%r15,%r14,1),%rax
    1a06:	4c 8b bc 24 68 00 00 	mov    0x68(%rsp),%r15
    1a0d:	00 
    1a0e:	4c 8b b4 24 58 00 00 	mov    0x58(%rsp),%r14
    1a15:	00 
    1a16:	4d 31 f7             	xor    %r14,%r15
    1a19:	4c 31 f8             	xor    %r15,%rax
    1a1c:	4d 89 df             	mov    %r11,%r15
    1a1f:	4c 8b b4 24 c8 00 00 	mov    0xc8(%rsp),%r14
    1a26:	00 
    1a27:	4b 89 04 37          	mov    %rax,(%r15,%r14,1)
    1a2b:	49 8b 47 f0          	mov    -0x10(%r15),%rax
    1a2f:	44 8b bc 24 08 01 00 	mov    0x108(%rsp),%r15d
    1a36:	00 
    1a37:	0f ae e8             	lfence 
    1a3a:	44 89 38             	mov    %r15d,(%rax)
    1a3d:	48 81 c4 18 01 00 00 	add    $0x118,%rsp
    1a44:	41 5f                	pop    %r15
    1a46:	41 5e                	pop    %r14
    1a48:	41 5d                	pop    %r13
    1a4a:	41 5c                	pop    %r12
    1a4c:	5b                   	pop    %rbx
    1a4d:	5d                   	pop    %rbp
    1a4e:	c3                   	retq   
	...

0000000000001a50 <guest_func_blake2b_init>:
    1a50:	55                   	push   %rbp
    1a51:	48 89 e5             	mov    %rsp,%rbp
    1a54:	53                   	push   %rbx
    1a55:	41 54                	push   %r12
    1a57:	41 55                	push   %r13
    1a59:	41 56                	push   %r14
    1a5b:	41 57                	push   %r15
    1a5d:	48 83 ec 38          	sub    $0x38,%rsp
    1a61:	48 89 bc 24 18 00 00 	mov    %rdi,0x18(%rsp)
    1a68:	00 
    1a69:	89 b4 24 34 00 00 00 	mov    %esi,0x34(%rsp)
    1a70:	89 8c 24 2c 00 00 00 	mov    %ecx,0x2c(%rsp)
    1a77:	44 89 84 24 28 00 00 	mov    %r8d,0x28(%rsp)
    1a7e:	00 
    1a7f:	31 c0                	xor    %eax,%eax
    1a81:	89 84 24 24 00 00 00 	mov    %eax,0x24(%rsp)
    1a88:	31 c0                	xor    %eax,%eax
    1a8a:	b9 ff ff ff ff       	mov    $0xffffffff,%ecx
    1a8f:	89 d3                	mov    %edx,%ebx
    1a91:	83 c3 ff             	add    $0xffffffff,%ebx
    1a94:	83 fb 3f             	cmp    $0x3f,%ebx
    1a97:	0f 87 8c 03 00 00    	ja     1e29 <guest_func_blake2b_init+0x3d9>
    1a9d:	45 89 c7             	mov    %r8d,%r15d
    1aa0:	41 83 ff 40          	cmp    $0x40,%r15d
    1aa4:	0f 87 88 03 00 00    	ja     1e32 <guest_func_blake2b_init+0x3e2>
    1aaa:	b9 80 00 00 00       	mov    $0x80,%ecx
    1aaf:	89 8c 24 30 00 00 00 	mov    %ecx,0x30(%rsp)
    1ab6:	41 89 f7             	mov    %esi,%r15d
    1ab9:	41 81 c7 80 00 00 00 	add    $0x80,%r15d
    1ac0:	b9 00 04 00 00       	mov    $0x400,%ecx
    1ac5:	89 c9                	mov    %ecx,%ecx
    1ac7:	49 89 fe             	mov    %rdi,%r14
    1aca:	49 8b 0c 0e          	mov    (%r14,%rcx,1),%rcx
    1ace:	44 89 fb             	mov    %r15d,%ebx
    1ad1:	49 89 ff             	mov    %rdi,%r15
    1ad4:	49 89 0c 1f          	mov    %rcx,(%r15,%rbx,1)
    1ad8:	41 89 f7             	mov    %esi,%r15d
    1adb:	44 89 f9             	mov    %r15d,%ecx
    1ade:	49 89 ff             	mov    %rdi,%r15
    1ae1:	49 89 84 0f c0 00 00 	mov    %rax,0xc0(%r15,%rcx,1)
    1ae8:	00 
    1ae9:	41 89 f7             	mov    %esi,%r15d
    1aec:	41 81 c7 b8 00 00 00 	add    $0xb8,%r15d
    1af3:	be 38 04 00 00       	mov    $0x438,%esi
    1af8:	89 f6                	mov    %esi,%esi
    1afa:	49 8b 34 36          	mov    (%r14,%rsi,1),%rsi
    1afe:	44 89 ff             	mov    %r15d,%edi
    1b01:	4d 89 f7             	mov    %r14,%r15
    1b04:	49 89 34 3f          	mov    %rsi,(%r15,%rdi,1)
    1b08:	44 8b bc 24 34 00 00 	mov    0x34(%rsp),%r15d
    1b0f:	00 
    1b10:	41 81 c7 b0 00 00 00 	add    $0xb0,%r15d
    1b17:	be 30 04 00 00       	mov    $0x430,%esi
    1b1c:	89 f6                	mov    %esi,%esi
    1b1e:	49 8b 34 36          	mov    (%r14,%rsi,1),%rsi
    1b22:	44 89 ff             	mov    %r15d,%edi
    1b25:	4d 89 f7             	mov    %r14,%r15
    1b28:	49 89 34 3f          	mov    %rsi,(%r15,%rdi,1)
    1b2c:	44 8b bc 24 34 00 00 	mov    0x34(%rsp),%r15d
    1b33:	00 
    1b34:	41 81 c7 a8 00 00 00 	add    $0xa8,%r15d
    1b3b:	be 28 04 00 00       	mov    $0x428,%esi
    1b40:	89 f6                	mov    %esi,%esi
    1b42:	49 8b 34 36          	mov    (%r14,%rsi,1),%rsi
    1b46:	44 89 ff             	mov    %r15d,%edi
    1b49:	4d 89 f7             	mov    %r14,%r15
    1b4c:	49 89 34 3f          	mov    %rsi,(%r15,%rdi,1)
    1b50:	44 8b bc 24 34 00 00 	mov    0x34(%rsp),%r15d
    1b57:	00 
    1b58:	41 81 c7 a0 00 00 00 	add    $0xa0,%r15d
    1b5f:	be 20 04 00 00       	mov    $0x420,%esi
    1b64:	89 f6                	mov    %esi,%esi
    1b66:	49 8b 34 36          	mov    (%r14,%rsi,1),%rsi
    1b6a:	44 89 ff             	mov    %r15d,%edi
    1b6d:	4d 89 f7             	mov    %r14,%r15
    1b70:	49 89 34 3f          	mov    %rsi,(%r15,%rdi,1)
    1b74:	44 8b bc 24 34 00 00 	mov    0x34(%rsp),%r15d
    1b7b:	00 
    1b7c:	41 81 c7 98 00 00 00 	add    $0x98,%r15d
    1b83:	be 18 04 00 00       	mov    $0x418,%esi
    1b88:	89 f6                	mov    %esi,%esi
    1b8a:	49 8b 34 36          	mov    (%r14,%rsi,1),%rsi
    1b8e:	44 89 ff             	mov    %r15d,%edi
    1b91:	4d 89 f7             	mov    %r14,%r15
    1b94:	49 89 34 3f          	mov    %rsi,(%r15,%rdi,1)
    1b98:	44 8b bc 24 34 00 00 	mov    0x34(%rsp),%r15d
    1b9f:	00 
    1ba0:	41 81 c7 90 00 00 00 	add    $0x90,%r15d
    1ba7:	be 10 04 00 00       	mov    $0x410,%esi
    1bac:	89 f6                	mov    %esi,%esi
    1bae:	49 8b 34 36          	mov    (%r14,%rsi,1),%rsi
    1bb2:	44 89 ff             	mov    %r15d,%edi
    1bb5:	4d 89 f7             	mov    %r14,%r15
    1bb8:	49 89 34 3f          	mov    %rsi,(%r15,%rdi,1)
    1bbc:	44 8b bc 24 34 00 00 	mov    0x34(%rsp),%r15d
    1bc3:	00 
    1bc4:	41 81 c7 88 00 00 00 	add    $0x88,%r15d
    1bcb:	be 08 04 00 00       	mov    $0x408,%esi
    1bd0:	89 f6                	mov    %esi,%esi
    1bd2:	49 8b 34 36          	mov    (%r14,%rsi,1),%rsi
    1bd6:	44 89 ff             	mov    %r15d,%edi
    1bd9:	4d 89 f7             	mov    %r14,%r15
    1bdc:	49 89 34 3f          	mov    %rsi,(%r15,%rdi,1)
    1be0:	44 8b bc 24 34 00 00 	mov    0x34(%rsp),%r15d
    1be7:	00 
    1be8:	41 81 c7 c8 00 00 00 	add    $0xc8,%r15d
    1bef:	44 89 fe             	mov    %r15d,%esi
    1bf2:	4d 89 f7             	mov    %r14,%r15
    1bf5:	49 89 04 37          	mov    %rax,(%r15,%rsi,1)
    1bf9:	44 8b bc 24 34 00 00 	mov    0x34(%rsp),%r15d
    1c00:	00 
    1c01:	41 81 c7 d0 00 00 00 	add    $0xd0,%r15d
    1c08:	44 89 f8             	mov    %r15d,%eax
    1c0b:	44 8b bc 24 24 00 00 	mov    0x24(%rsp),%r15d
    1c12:	00 
    1c13:	45 89 3c 06          	mov    %r15d,(%r14,%rax,1)
    1c17:	45 89 c7             	mov    %r8d,%r15d
    1c1a:	41 c1 e7 08          	shl    $0x8,%r15d
    1c1e:	41 31 d7             	xor    %edx,%r15d
    1c21:	41 81 f7 00 00 01 01 	xor    $0x1010000,%r15d
    1c28:	44 89 f8             	mov    %r15d,%eax
    1c2b:	48 be 08 c9 bc f3 67 	movabs $0x6a09e667f3bcc908,%rsi
    1c32:	e6 09 6a 
    1c35:	48 31 f0             	xor    %rsi,%rax
    1c38:	4d 89 f7             	mov    %r14,%r15
    1c3b:	49 89 04 1f          	mov    %rax,(%r15,%rbx,1)
    1c3f:	41 89 94 0f d4 00 00 	mov    %edx,0xd4(%r15,%rcx,1)
    1c46:	00 
    1c47:	44 8b bc 24 34 00 00 	mov    0x34(%rsp),%r15d
    1c4e:	00 
    1c4f:	45 89 c6             	mov    %r8d,%r14d
    1c52:	45 01 f7             	add    %r14d,%r15d
    1c55:	44 8b b4 24 30 00 00 	mov    0x30(%rsp),%r14d
    1c5c:	00 
    1c5d:	45 89 c5             	mov    %r8d,%r13d
    1c60:	45 29 ee             	sub    %r13d,%r14d
    1c63:	4c 8b ac 24 18 00 00 	mov    0x18(%rsp),%r13
    1c6a:	00 
    1c6b:	44 8b a4 24 24 00 00 	mov    0x24(%rsp),%r12d
    1c72:	00 
    1c73:	4c 89 ef             	mov    %r13,%rdi
    1c76:	44 89 fe             	mov    %r15d,%esi
    1c79:	44 89 e2             	mov    %r12d,%edx
    1c7c:	44 89 f1             	mov    %r14d,%ecx
    1c7f:	e8 7c 2a 00 00       	callq  4700 <guest_func_memset>
    1c84:	44 8b bc 24 28 00 00 	mov    0x28(%rsp),%r15d
    1c8b:	00 
    1c8c:	45 85 ff             	test   %r15d,%r15d
    1c8f:	0f 84 a4 01 00 00    	je     1e39 <guest_func_blake2b_init+0x3e9>
    1c95:	44 8b bc 24 34 00 00 	mov    0x34(%rsp),%r15d
    1c9c:	00 
    1c9d:	41 81 c7 c0 00 00 00 	add    $0xc0,%r15d
    1ca4:	44 89 f8             	mov    %r15d,%eax
    1ca7:	48 89 84 24 10 00 00 	mov    %rax,0x10(%rsp)
    1cae:	00 
    1caf:	44 8b bc 24 24 00 00 	mov    0x24(%rsp),%r15d
    1cb6:	00 
    1cb7:	44 89 bc 24 20 00 00 	mov    %r15d,0x20(%rsp)
    1cbe:	00 
    1cbf:	44 8b bc 24 34 00 00 	mov    0x34(%rsp),%r15d
    1cc6:	00 
    1cc7:	44 89 f8             	mov    %r15d,%eax
    1cca:	48 89 84 24 08 00 00 	mov    %rax,0x8(%rsp)
    1cd1:	00 
    1cd2:	4c 8b bc 24 18 00 00 	mov    0x18(%rsp),%r15
    1cd9:	00 
    1cda:	49 89 c6             	mov    %rax,%r14
    1cdd:	43 8b 84 37 d0 00 00 	mov    0xd0(%r15,%r14,1),%eax
    1ce4:	00 
    1ce5:	0f ae e8             	lfence 
    1ce8:	81 f8 80 00 00 00    	cmp    $0x80,%eax
    1cee:	0f 85 88 00 00 00    	jne    1d7c <guest_func_blake2b_init+0x32c> // 2ยบ for
    1cf4:	4c 8b b4 24 10 00 00 	mov    0x10(%rsp),%r14
    1cfb:	00 
    1cfc:	4b 8b 04 37          	mov    (%r15,%r14,1),%rax
    1d00:	48 89 c1             	mov    %rax,%rcx
    1d03:	48 81 c1 80 00 00 00 	add    $0x80,%rcx
    1d0a:	4b 89 0c 37          	mov    %rcx,(%r15,%r14,1)
    1d0e:	48 83 f8 80          	cmp    $0xffffffffffffff80,%rax
    1d12:	0f ae e8             	lfence 
    1d15:	72 1c                	jb     1d33 <guest_func_blake2b_init+0x2e3>
    1d17:	4c 8b b4 24 08 00 00 	mov    0x8(%rsp),%r14
    1d1e:	00 
    1d1f:	4b 8b 84 37 c8 00 00 	mov    0xc8(%r15,%r14,1),%rax
    1d26:	00 
    1d27:	48 83 c0 01          	add    $0x1,%rax
    1d2b:	4b 89 84 37 c8 00 00 	mov    %rax,0xc8(%r15,%r14,1)
    1d32:	00 
    1d33:	4c 8b bc 24 18 00 00 	mov    0x18(%rsp),%r15
    1d3a:	00 
    1d3b:	44 8b b4 24 34 00 00 	mov    0x34(%rsp),%r14d
    1d42:	00 
    1d43:	44 8b ac 24 24 00 00 	mov    0x24(%rsp),%r13d
    1d4a:	00 
    1d4b:	4c 89 ff             	mov    %r15,%rdi
    1d4e:	44 89 f6             	mov    %r14d,%esi
    1d51:	44 89 ea             	mov    %r13d,%edx
    1d54:	e8 77 ef ff ff       	callq  cd0 <guest_func_2>
    1d59:	44 8b bc 24 24 00 00 	mov    0x24(%rsp),%r15d
    1d60:	00 
    1d61:	4c 8b b4 24 18 00 00 	mov    0x18(%rsp),%r14
    1d68:	00 
    1d69:	4c 8b ac 24 08 00 00 	mov    0x8(%rsp),%r13
    1d70:	00 
    1d71:	47 89 bc 2e d0 00 00 	mov    %r15d,0xd0(%r14,%r13,1)
    1d78:	00 
    1d79:	44 89 f8             	mov    %r15d,%eax
    1d7c:	44 8b bc 24 2c 00 00 	mov    0x2c(%rsp),%r15d
    1d83:	00 
    1d84:	44 89 f9             	mov    %r15d,%ecx
    1d87:	4c 8b bc 24 18 00 00 	mov    0x18(%rsp),%r15
    1d8e:	00 
    1d8f:	41 0f b6 0c 0f       	movzbl (%r15,%rcx,1),%ecx
    1d94:	89 c2                	mov    %eax,%edx
    1d96:	83 c2 01             	add    $0x1,%edx
    1d99:	44 8b bc 24 34 00 00 	mov    0x34(%rsp),%r15d
    1da0:	00 
    1da1:	44 89 fb             	mov    %r15d,%ebx
    1da4:	4c 8b bc 24 18 00 00 	mov    0x18(%rsp),%r15
    1dab:	00 
    1dac:	41 89 94 1f d0 00 00 	mov    %edx,0xd0(%r15,%rbx,1)
    1db3:	00 
    1db4:	44 8b bc 24 34 00 00 	mov    0x34(%rsp),%r15d
    1dbb:	00 
    1dbc:	41 01 c7             	add    %eax,%r15d
    1dbf:	44 89 f8             	mov    %r15d,%eax
    1dc2:	4c 8b bc 24 18 00 00 	mov    0x18(%rsp),%r15
    1dc9:	00 
    1dca:	41 88 0c 07          	mov    %cl,(%r15,%rax,1)
    1dce:	44 8b bc 24 2c 00 00 	mov    0x2c(%rsp),%r15d
    1dd5:	00 
    1dd6:	41 83 c7 01          	add    $0x1,%r15d
    1dda:	44 89 bc 24 2c 00 00 	mov    %r15d,0x2c(%rsp)
    1de1:	00 
    1de2:	44 8b bc 24 28 00 00 	mov    0x28(%rsp),%r15d
    1de9:	00 
    1dea:	41 83 c7 ff          	add    $0xffffffff,%r15d
    1dee:	44 89 bc 24 28 00 00 	mov    %r15d,0x28(%rsp)
    1df5:	00 
    1df6:	45 85 ff             	test   %r15d,%r15d
    1df9:	0f 85 c0 fe ff ff    	jne    1cbf <guest_func_blake2b_init+0x26f>
    1dff:	44 8b bc 24 30 00 00 	mov    0x30(%rsp),%r15d
    1e06:	00 
    1e07:	4c 8b b4 24 18 00 00 	mov    0x18(%rsp),%r14
    1e0e:	00 
    1e0f:	45 89 bc 1e d0 00 00 	mov    %r15d,0xd0(%r14,%rbx,1)
    1e16:	00 
    1e17:	44 8b bc 24 20 00 00 	mov    0x20(%rsp),%r15d
    1e1e:	00 
    1e1f:	44 89 bc 24 24 00 00 	mov    %r15d,0x24(%rsp)
    1e26:	00 
    1e27:	eb 10                	jmp    1e39 <guest_func_blake2b_init+0x3e9>
    1e29:	89 8c 24 24 00 00 00 	mov    %ecx,0x24(%rsp)
    1e30:	eb 07                	jmp    1e39 <guest_func_blake2b_init+0x3e9>
    1e32:	89 8c 24 24 00 00 00 	mov    %ecx,0x24(%rsp)
    1e39:	44 8b bc 24 24 00 00 	mov    0x24(%rsp),%r15d
    1e40:	00 
    1e41:	44 89 f8             	mov    %r15d,%eax
    1e44:	48 83 c4 38          	add    $0x38,%rsp
    1e48:	41 5f                	pop    %r15
    1e4a:	41 5e                	pop    %r14
    1e4c:	41 5d                	pop    %r13
    1e4e:	41 5c                	pop    %r12
    1e50:	5b                   	pop    %rbx
    1e51:	5d                   	pop    %rbp
    1e52:	c3                   	retq   
	...

0000000000001e60 <guest_func_sbrk>:
    1e60:	55                   	push   %rbp
    1e61:	48 89 e5             	mov    %rsp,%rbp
    1e64:	41 57                	push   %r15
    1e66:	48 83 ec 18          	sub    $0x18,%rsp
    1e6a:	48 89 bc 24 08 00 00 	mov    %rdi,0x8(%rsp)
    1e71:	00 
    1e72:	85 f6                	test   %esi,%esi
    1e74:	75 16                	jne    1e8c <guest_func_sbrk+0x2c>
    1e76:	49 89 ff             	mov    %rdi,%r15
    1e79:	4c 89 ff             	mov    %r15,%rdi
    1e7c:	e8 2f ee ff ff       	callq  cb0 <lucet_vmctx_current_memory@plt>
    1e81:	c1 e0 10             	shl    $0x10,%eax
    1e84:	48 83 c4 18          	add    $0x18,%rsp
    1e88:	41 5f                	pop    %r15
    1e8a:	5d                   	pop    %rbp
    1e8b:	c3                   	retq   
    1e8c:	89 f0                	mov    %esi,%eax
    1e8e:	81 e0 ff ff 00 00    	and    $0xffff,%eax
    1e94:	85 c0                	test   %eax,%eax
    1e96:	75 5a                	jne    1ef2 <guest_func_sbrk+0x92>
    1e98:	b8 ff ff ff ff       	mov    $0xffffffff,%eax
    1e9d:	89 84 24 14 00 00 00 	mov    %eax,0x14(%rsp)
    1ea4:	83 fe ff             	cmp    $0xffffffff,%esi
    1ea7:	7e 49                	jle    1ef2 <guest_func_sbrk+0x92>
    1ea9:	c1 ee 10             	shr    $0x10,%esi
    1eac:	49 89 ff             	mov    %rdi,%r15
    1eaf:	4c 89 ff             	mov    %r15,%rdi
    1eb2:	e8 e9 ed ff ff       	callq  ca0 <lucet_vmctx_grow_memory@plt>
    1eb7:	83 f8 ff             	cmp    $0xffffffff,%eax
    1eba:	75 2b                	jne    1ee7 <guest_func_sbrk+0x87>
    1ebc:	b8 f0 06 00 00       	mov    $0x6f0,%eax
    1ec1:	b9 30 00 00 00       	mov    $0x30,%ecx
    1ec6:	89 c0                	mov    %eax,%eax
    1ec8:	4c 8b bc 24 08 00 00 	mov    0x8(%rsp),%r15
    1ecf:	00 
    1ed0:	41 89 0c 07          	mov    %ecx,(%r15,%rax,1)
    1ed4:	44 8b bc 24 14 00 00 	mov    0x14(%rsp),%r15d
    1edb:	00 
    1edc:	44 89 f8             	mov    %r15d,%eax
    1edf:	48 83 c4 18          	add    $0x18,%rsp
    1ee3:	41 5f                	pop    %r15
    1ee5:	5d                   	pop    %rbp
    1ee6:	c3                   	retq   
    1ee7:	c1 e0 10             	shl    $0x10,%eax
    1eea:	48 83 c4 18          	add    $0x18,%rsp
    1eee:	41 5f                	pop    %r15
    1ef0:	5d                   	pop    %rbp
    1ef1:	c3                   	retq   
    1ef2:	0f 0b                	ud2    
	...

0000000000001f00 <guest_func_memcpy>:
    1f00:	55                   	push   %rbp
    1f01:	48 89 e5             	mov    %rsp,%rbp
    1f04:	53                   	push   %rbx
    1f05:	41 54                	push   %r12
    1f07:	41 55                	push   %r13
    1f09:	31 c0                	xor    %eax,%eax
    1f0b:	85 c9                	test   %ecx,%ecx
    1f0d:	74 40                	je     1f4f <guest_func_memcpy+0x4f>
    1f0f:	89 d3                	mov    %edx,%ebx
    1f11:	83 e3 03             	and    $0x3,%ebx
    1f14:	85 db                	test   %ebx,%ebx
    1f16:	74 37                	je     1f4f <guest_func_memcpy+0x4f>
    1f18:	89 f3                	mov    %esi,%ebx
    1f1a:	41 89 c8             	mov    %ecx,%r8d
    1f1d:	eb 03                	jmp    1f22 <guest_func_memcpy+0x22>
    1f1f:	41 89 c8             	mov    %ecx,%r8d
    1f22:	89 d1                	mov    %edx,%ecx
    1f24:	0f b6 0c 0f          	movzbl (%rdi,%rcx,1),%ecx
    1f28:	41 89 d9             	mov    %ebx,%r9d
    1f2b:	42 88 0c 0f          	mov    %cl,(%rdi,%r9,1)
    1f2f:	44 89 c1             	mov    %r8d,%ecx
    1f32:	83 c1 ff             	add    $0xffffffff,%ecx
    1f35:	83 c3 01             	add    $0x1,%ebx
    1f38:	83 c2 01             	add    $0x1,%edx
    1f3b:	41 83 f8 01          	cmp    $0x1,%r8d
    1f3f:	74 10                	je     1f51 <guest_func_memcpy+0x51>
    1f41:	41 89 d0             	mov    %edx,%r8d
    1f44:	41 83 e0 03          	and    $0x3,%r8d
    1f48:	45 85 c0             	test   %r8d,%r8d
    1f4b:	75 d2                	jne    1f1f <guest_func_memcpy+0x1f>
    1f4d:	eb 02                	jmp    1f51 <guest_func_memcpy+0x51>
    1f4f:	89 f3                	mov    %esi,%ebx
    1f51:	41 89 d8             	mov    %ebx,%r8d
    1f54:	41 83 e0 03          	and    $0x3,%r8d
    1f58:	45 85 c0             	test   %r8d,%r8d
    1f5b:	0f 85 06 01 00 00    	jne    2067 <guest_func_memcpy+0x167>
    1f61:	83 f9 10             	cmp    $0x10,%ecx
    1f64:	72 70                	jb     1fd6 <guest_func_memcpy+0xd6>
    1f66:	eb 03                	jmp    1f6b <guest_func_memcpy+0x6b>
    1f68:	40 89 c3             	rex mov %eax,%ebx
    1f6b:	89 d0                	mov    %edx,%eax
    1f6d:	8b 04 07             	mov    (%rdi,%rax,1),%eax
    1f70:	41 89 d8             	mov    %ebx,%r8d
    1f73:	42 89 04 07          	mov    %eax,(%rdi,%r8,1)
    1f77:	89 d8                	mov    %ebx,%eax
    1f79:	83 c0 04             	add    $0x4,%eax
    1f7c:	41 89 d0             	mov    %edx,%r8d
    1f7f:	41 83 c0 04          	add    $0x4,%r8d
    1f83:	45 89 c0             	mov    %r8d,%r8d
    1f86:	46 8b 04 07          	mov    (%rdi,%r8,1),%r8d
    1f8a:	89 c0                	mov    %eax,%eax
    1f8c:	44 89 04 07          	mov    %r8d,(%rdi,%rax,1)
    1f90:	89 d8                	mov    %ebx,%eax
    1f92:	83 c0 08             	add    $0x8,%eax
    1f95:	41 89 d0             	mov    %edx,%r8d
    1f98:	41 83 c0 08          	add    $0x8,%r8d
    1f9c:	45 89 c0             	mov    %r8d,%r8d
    1f9f:	46 8b 04 07          	mov    (%rdi,%r8,1),%r8d
    1fa3:	89 c0                	mov    %eax,%eax
    1fa5:	44 89 04 07          	mov    %r8d,(%rdi,%rax,1)
    1fa9:	89 d8                	mov    %ebx,%eax
    1fab:	83 c0 0c             	add    $0xc,%eax
    1fae:	41 89 d0             	mov    %edx,%r8d
    1fb1:	41 83 c0 0c          	add    $0xc,%r8d
    1fb5:	45 89 c0             	mov    %r8d,%r8d
    1fb8:	46 8b 04 07          	mov    (%rdi,%r8,1),%r8d
    1fbc:	89 c0                	mov    %eax,%eax
    1fbe:	44 89 04 07          	mov    %r8d,(%rdi,%rax,1)
    1fc2:	40 89 d8             	rex mov %ebx,%eax
    1fc5:	83 c0 10             	add    $0x10,%eax
    1fc8:	83 c2 10             	add    $0x10,%edx
    1fcb:	83 c1 f0             	add    $0xfffffff0,%ecx
    1fce:	83 f9 0f             	cmp    $0xf,%ecx
    1fd1:	77 95                	ja     1f68 <guest_func_memcpy+0x68>
    1fd3:	40 89 c3             	rex mov %eax,%ebx
    1fd6:	89 c8                	mov    %ecx,%eax
    1fd8:	83 e0 08             	and    $0x8,%eax
    1fdb:	85 c0                	test   %eax,%eax
    1fdd:	74 13                	je     1ff2 <guest_func_memcpy+0xf2>
    1fdf:	89 d0                	mov    %edx,%eax
    1fe1:	48 8b 04 07          	mov    (%rdi,%rax,1),%rax
    1fe5:	41 89 d8             	mov    %ebx,%r8d
    1fe8:	4a 89 04 07          	mov    %rax,(%rdi,%r8,1)
    1fec:	83 c3 08             	add    $0x8,%ebx
    1fef:	83 c2 08             	add    $0x8,%edx
    1ff2:	89 c8                	mov    %ecx,%eax
    1ff4:	83 e0 04             	and    $0x4,%eax
    1ff7:	85 c0                	test   %eax,%eax
    1ff9:	74 12                	je     200d <guest_func_memcpy+0x10d>
    1ffb:	89 d0                	mov    %edx,%eax
    1ffd:	8b 04 07             	mov    (%rdi,%rax,1),%eax
    2000:	41 89 d8             	mov    %ebx,%r8d
    2003:	42 89 04 07          	mov    %eax,(%rdi,%r8,1)
    2007:	83 c3 04             	add    $0x4,%ebx
    200a:	83 c2 04             	add    $0x4,%edx
    200d:	89 c8                	mov    %ecx,%eax
    200f:	83 e0 02             	and    $0x2,%eax
    2012:	85 c0                	test   %eax,%eax
    2014:	74 31                	je     2047 <guest_func_memcpy+0x147>
    2016:	89 d0                	mov    %edx,%eax
    2018:	44 0f b6 04 07       	movzbl (%rdi,%rax,1),%r8d
    201d:	41 89 d9             	mov    %ebx,%r9d
    2020:	45 89 c2             	mov    %r8d,%r10d
    2023:	49 89 f8             	mov    %rdi,%r8
    2026:	40 89 cf             	rex mov %ecx,%edi
    2029:	44 89 d1             	mov    %r10d,%ecx
    202c:	43 88 0c 08          	mov    %cl,(%r8,%r9,1)
    2030:	41 0f b6 44 00 01    	movzbl 0x1(%r8,%rax,1),%eax
    2036:	43 88 44 08 01       	mov    %al,0x1(%r8,%r9,1)
    203b:	83 c3 02             	add    $0x2,%ebx
    203e:	83 c2 02             	add    $0x2,%edx
    2041:	40 89 f9             	rex mov %edi,%ecx
    2044:	4c 89 c7             	mov    %r8,%rdi
    2047:	83 e1 01             	and    $0x1,%ecx
    204a:	85 c9                	test   %ecx,%ecx
    204c:	0f 84 1e 05 00 00    	je     2570 <guest_func_memcpy+0x670>
    2052:	89 d0                	mov    %edx,%eax
    2054:	0f b6 04 07          	movzbl (%rdi,%rax,1),%eax
    2058:	89 d9                	mov    %ebx,%ecx
    205a:	88 04 0f             	mov    %al,(%rdi,%rcx,1)
    205d:	40 89 f0             	rex mov %esi,%eax
    2060:	41 5d                	pop    %r13
    2062:	41 5c                	pop    %r12
    2064:	5b                   	pop    %rbx
    2065:	5d                   	pop    %rbp
    2066:	c3                   	retq   
    2067:	83 f9 20             	cmp    $0x20,%ecx
    206a:	0f 82 1a 03 00 00    	jb     238a <guest_func_memcpy+0x48a>
    2070:	41 83 c0 ff          	add    $0xffffffff,%r8d
    2074:	41 83 f8 03          	cmp    $0x3,%r8d
    2078:	0f 83 0c 03 00 00    	jae    238a <guest_func_memcpy+0x48a>
    207e:	45 89 c0             	mov    %r8d,%r8d
    2081:	4c 8d 0d f2 04 00 00 	lea    0x4f2(%rip),%r9        # 257a <guest_func_memcpy+0x67a>
    2088:	4f 63 04 81          	movslq (%r9,%r8,4),%r8
    208c:	4d 01 c1             	add    %r8,%r9
    208f:	0f ae e8             	lfence 
    2092:	41 ff e1             	jmpq   *%r9
    2095:	41 89 d0             	mov    %edx,%r8d
    2098:	46 0f b6 4c 07 01    	movzbl 0x1(%rdi,%r8,1),%r9d
    209e:	41 89 da             	mov    %ebx,%r10d
    20a1:	45 89 cb             	mov    %r9d,%r11d
    20a4:	49 89 f9             	mov    %rdi,%r9
    20a7:	40 89 c7             	rex mov %eax,%edi
    20aa:	44 89 d8             	mov    %r11d,%eax
    20ad:	43 88 44 11 01       	mov    %al,0x1(%r9,%r10,1)
    20b2:	43 8b 04 01          	mov    (%r9,%r8,1),%eax
    20b6:	43 88 04 11          	mov    %al,(%r9,%r10,1)
    20ba:	47 0f b6 44 01 02    	movzbl 0x2(%r9,%r8,1),%r8d
    20c0:	45 89 c3             	mov    %r8d,%r11d
    20c3:	41 89 d8             	mov    %ebx,%r8d
    20c6:	44 89 db             	mov    %r11d,%ebx
    20c9:	43 88 5c 11 02       	mov    %bl,0x2(%r9,%r10,1)
    20ce:	83 c1 fd             	add    $0xfffffffd,%ecx
    20d1:	44 89 c3             	mov    %r8d,%ebx
    20d4:	83 c3 03             	add    $0x3,%ebx
    20d7:	41 89 f8             	mov    %edi,%r8d
    20da:	4c 89 cf             	mov    %r9,%rdi
    20dd:	45 89 c1             	mov    %r8d,%r9d
    20e0:	41 01 d9             	add    %ebx,%r9d
    20e3:	41 89 d2             	mov    %edx,%r10d
    20e6:	45 01 c2             	add    %r8d,%r10d
    20e9:	45 89 d3             	mov    %r10d,%r11d
    20ec:	41 83 c3 04          	add    $0x4,%r11d
    20f0:	45 89 db             	mov    %r11d,%r11d
    20f3:	46 8b 1c 1f          	mov    (%rdi,%r11,1),%r11d
    20f7:	45 89 dc             	mov    %r11d,%r12d
    20fa:	41 c1 e4 08          	shl    $0x8,%r12d
    20fe:	c1 e8 18             	shr    $0x18,%eax
    2101:	41 09 c4             	or     %eax,%r12d
    2104:	44 89 c8             	mov    %r9d,%eax
    2107:	44 89 24 07          	mov    %r12d,(%rdi,%rax,1)
    210b:	44 89 c8             	mov    %r9d,%eax
    210e:	83 c0 04             	add    $0x4,%eax
    2111:	45 89 d4             	mov    %r10d,%r12d
    2114:	41 83 c4 08          	add    $0x8,%r12d
    2118:	45 89 e4             	mov    %r12d,%r12d
    211b:	46 8b 24 27          	mov    (%rdi,%r12,1),%r12d
    211f:	45 89 e5             	mov    %r12d,%r13d
    2122:	41 c1 e5 08          	shl    $0x8,%r13d
    2126:	41 c1 eb 18          	shr    $0x18,%r11d
    212a:	45 09 dd             	or     %r11d,%r13d
    212d:	89 c0                	mov    %eax,%eax
    212f:	44 89 2c 07          	mov    %r13d,(%rdi,%rax,1)
    2133:	44 89 c8             	mov    %r9d,%eax
    2136:	83 c0 08             	add    $0x8,%eax
    2139:	45 89 d3             	mov    %r10d,%r11d
    213c:	41 83 c3 0c          	add    $0xc,%r11d
    2140:	45 89 db             	mov    %r11d,%r11d
    2143:	46 8b 1c 1f          	mov    (%rdi,%r11,1),%r11d
    2147:	45 89 dd             	mov    %r11d,%r13d
    214a:	41 c1 e5 08          	shl    $0x8,%r13d
    214e:	41 c1 ec 18          	shr    $0x18,%r12d
    2152:	45 09 e5             	or     %r12d,%r13d
    2155:	89 c0                	mov    %eax,%eax
    2157:	44 89 2c 07          	mov    %r13d,(%rdi,%rax,1)
    215b:	41 83 c1 0c          	add    $0xc,%r9d
    215f:	41 83 c2 10          	add    $0x10,%r10d
    2163:	44 89 d0             	mov    %r10d,%eax
    2166:	8b 04 07             	mov    (%rdi,%rax,1),%eax
    2169:	41 89 c2             	mov    %eax,%r10d
    216c:	41 c1 e2 08          	shl    $0x8,%r10d
    2170:	41 c1 eb 18          	shr    $0x18,%r11d
    2174:	45 09 da             	or     %r11d,%r10d
    2177:	45 89 c9             	mov    %r9d,%r9d
    217a:	46 89 14 0f          	mov    %r10d,(%rdi,%r9,1)
    217e:	41 83 c0 10          	add    $0x10,%r8d
    2182:	83 c1 f0             	add    $0xfffffff0,%ecx
    2185:	83 f9 10             	cmp    $0x10,%ecx
    2188:	0f 87 4f ff ff ff    	ja     20dd <guest_func_memcpy+0x1dd>
    218e:	44 89 c0             	mov    %r8d,%eax
    2191:	01 d8                	add    %ebx,%eax
    2193:	44 01 c2             	add    %r8d,%edx
    2196:	83 c2 03             	add    $0x3,%edx
    2199:	40 89 c3             	rex mov %eax,%ebx
    219c:	e9 e9 01 00 00       	jmpq   238a <guest_func_memcpy+0x48a>
    21a1:	41 89 d0             	mov    %edx,%r8d
    21a4:	46 8b 0c 07          	mov    (%rdi,%r8,1),%r9d
    21a8:	41 89 da             	mov    %ebx,%r10d
    21ab:	45 89 cb             	mov    %r9d,%r11d
    21ae:	49 89 f9             	mov    %rdi,%r9
    21b1:	40 89 c7             	rex mov %eax,%edi
    21b4:	44 89 d8             	mov    %r11d,%eax
    21b7:	43 88 04 11          	mov    %al,(%r9,%r10,1)
    21bb:	47 0f b6 44 01 01    	movzbl 0x1(%r9,%r8,1),%r8d
    21c1:	45 89 c3             	mov    %r8d,%r11d
    21c4:	41 89 d8             	mov    %ebx,%r8d
    21c7:	44 89 db             	mov    %r11d,%ebx
    21ca:	43 88 5c 11 01       	mov    %bl,0x1(%r9,%r10,1)
    21cf:	83 c1 fe             	add    $0xfffffffe,%ecx
    21d2:	44 89 c3             	mov    %r8d,%ebx
    21d5:	83 c3 02             	add    $0x2,%ebx
    21d8:	41 89 f8             	mov    %edi,%r8d
    21db:	4c 89 cf             	mov    %r9,%rdi
    21de:	45 89 c1             	mov    %r8d,%r9d
    21e1:	41 01 d9             	add    %ebx,%r9d
    21e4:	41 89 d2             	mov    %edx,%r10d
    21e7:	45 01 c2             	add    %r8d,%r10d
    21ea:	45 89 d3             	mov    %r10d,%r11d
    21ed:	41 83 c3 04          	add    $0x4,%r11d
    21f1:	45 89 db             	mov    %r11d,%r11d
    21f4:	46 8b 1c 1f          	mov    (%rdi,%r11,1),%r11d
    21f8:	45 89 dc             	mov    %r11d,%r12d
    21fb:	41 c1 e4 10          	shl    $0x10,%r12d
    21ff:	c1 e8 10             	shr    $0x10,%eax
    2202:	41 09 c4             	or     %eax,%r12d
    2205:	44 89 c8             	mov    %r9d,%eax
    2208:	44 89 24 07          	mov    %r12d,(%rdi,%rax,1)
    220c:	44 89 c8             	mov    %r9d,%eax
    220f:	83 c0 04             	add    $0x4,%eax
    2212:	45 89 d4             	mov    %r10d,%r12d
    2215:	41 83 c4 08          	add    $0x8,%r12d
    2219:	45 89 e4             	mov    %r12d,%r12d
    221c:	46 8b 24 27          	mov    (%rdi,%r12,1),%r12d
    2220:	45 89 e5             	mov    %r12d,%r13d
    2223:	41 c1 e5 10          	shl    $0x10,%r13d
    2227:	41 c1 eb 10          	shr    $0x10,%r11d
    222b:	45 09 dd             	or     %r11d,%r13d
    222e:	89 c0                	mov    %eax,%eax
    2230:	44 89 2c 07          	mov    %r13d,(%rdi,%rax,1)
    2234:	44 89 c8             	mov    %r9d,%eax
    2237:	83 c0 08             	add    $0x8,%eax
    223a:	45 89 d3             	mov    %r10d,%r11d
    223d:	41 83 c3 0c          	add    $0xc,%r11d
    2241:	45 89 db             	mov    %r11d,%r11d
    2244:	46 8b 1c 1f          	mov    (%rdi,%r11,1),%r11d
    2248:	45 89 dd             	mov    %r11d,%r13d
    224b:	41 c1 e5 10          	shl    $0x10,%r13d
    224f:	41 c1 ec 10          	shr    $0x10,%r12d
    2253:	45 09 e5             	or     %r12d,%r13d
    2256:	89 c0                	mov    %eax,%eax
    2258:	44 89 2c 07          	mov    %r13d,(%rdi,%rax,1)
    225c:	41 83 c1 0c          	add    $0xc,%r9d
    2260:	41 83 c2 10          	add    $0x10,%r10d
    2264:	44 89 d0             	mov    %r10d,%eax
    2267:	8b 04 07             	mov    (%rdi,%rax,1),%eax
    226a:	41 89 c2             	mov    %eax,%r10d
    226d:	41 c1 e2 10          	shl    $0x10,%r10d
    2271:	41 c1 eb 10          	shr    $0x10,%r11d
    2275:	45 09 da             	or     %r11d,%r10d
    2278:	45 89 c9             	mov    %r9d,%r9d
    227b:	46 89 14 0f          	mov    %r10d,(%rdi,%r9,1)
    227f:	41 83 c0 10          	add    $0x10,%r8d
    2283:	83 c1 f0             	add    $0xfffffff0,%ecx
    2286:	83 f9 11             	cmp    $0x11,%ecx
    2289:	0f 87 4f ff ff ff    	ja     21de <guest_func_memcpy+0x2de>
    228f:	44 89 c0             	mov    %r8d,%eax
    2292:	01 d8                	add    %ebx,%eax
    2294:	44 01 c2             	add    %r8d,%edx
    2297:	83 c2 02             	add    $0x2,%edx
    229a:	40 89 c3             	rex mov %eax,%ebx
    229d:	e9 e8 00 00 00       	jmpq   238a <guest_func_memcpy+0x48a>
    22a2:	41 89 d0             	mov    %edx,%r8d
    22a5:	46 8b 04 07          	mov    (%rdi,%r8,1),%r8d
    22a9:	41 89 d9             	mov    %ebx,%r9d
    22ac:	45 89 c2             	mov    %r8d,%r10d
    22af:	49 89 f8             	mov    %rdi,%r8
    22b2:	40 89 c7             	rex mov %eax,%edi
    22b5:	44 89 d0             	mov    %r10d,%eax
    22b8:	43 88 04 08          	mov    %al,(%r8,%r9,1)
    22bc:	83 c1 ff             	add    $0xffffffff,%ecx
    22bf:	83 c3 01             	add    $0x1,%ebx
    22c2:	41 89 f9             	mov    %edi,%r9d
    22c5:	4c 89 c7             	mov    %r8,%rdi
    22c8:	45 89 c8             	mov    %r9d,%r8d
    22cb:	45 89 c1             	mov    %r8d,%r9d
    22ce:	41 01 d9             	add    %ebx,%r9d
    22d1:	41 89 d2             	mov    %edx,%r10d
    22d4:	45 01 c2             	add    %r8d,%r10d
    22d7:	45 89 d3             	mov    %r10d,%r11d
    22da:	41 83 c3 04          	add    $0x4,%r11d
    22de:	45 89 db             	mov    %r11d,%r11d
    22e1:	46 8b 1c 1f          	mov    (%rdi,%r11,1),%r11d
    22e5:	45 89 dc             	mov    %r11d,%r12d
    22e8:	41 c1 e4 18          	shl    $0x18,%r12d
    22ec:	c1 e8 08             	shr    $0x8,%eax
    22ef:	41 09 c4             	or     %eax,%r12d
    22f2:	44 89 c8             	mov    %r9d,%eax
    22f5:	44 89 24 07          	mov    %r12d,(%rdi,%rax,1)
    22f9:	44 89 c8             	mov    %r9d,%eax
    22fc:	83 c0 04             	add    $0x4,%eax
    22ff:	45 89 d4             	mov    %r10d,%r12d
    2302:	41 83 c4 08          	add    $0x8,%r12d
    2306:	45 89 e4             	mov    %r12d,%r12d
    2309:	46 8b 24 27          	mov    (%rdi,%r12,1),%r12d
    230d:	45 89 e5             	mov    %r12d,%r13d
    2310:	41 c1 e5 18          	shl    $0x18,%r13d
    2314:	41 c1 eb 08          	shr    $0x8,%r11d
    2318:	45 09 dd             	or     %r11d,%r13d
    231b:	89 c0                	mov    %eax,%eax
    231d:	44 89 2c 07          	mov    %r13d,(%rdi,%rax,1)
    2321:	44 89 c8             	mov    %r9d,%eax
    2324:	83 c0 08             	add    $0x8,%eax
    2327:	45 89 d3             	mov    %r10d,%r11d
    232a:	41 83 c3 0c          	add    $0xc,%r11d
    232e:	45 89 db             	mov    %r11d,%r11d
    2331:	46 8b 1c 1f          	mov    (%rdi,%r11,1),%r11d
    2335:	45 89 dd             	mov    %r11d,%r13d
    2338:	41 c1 e5 18          	shl    $0x18,%r13d
    233c:	41 c1 ec 08          	shr    $0x8,%r12d
    2340:	45 09 e5             	or     %r12d,%r13d
    2343:	89 c0                	mov    %eax,%eax
    2345:	44 89 2c 07          	mov    %r13d,(%rdi,%rax,1)
    2349:	41 83 c1 0c          	add    $0xc,%r9d
    234d:	41 83 c2 10          	add    $0x10,%r10d
    2351:	44 89 d0             	mov    %r10d,%eax
    2354:	8b 04 07             	mov    (%rdi,%rax,1),%eax
    2357:	41 89 c2             	mov    %eax,%r10d
    235a:	41 c1 e2 18          	shl    $0x18,%r10d
    235e:	41 c1 eb 08          	shr    $0x8,%r11d
    2362:	45 09 da             	or     %r11d,%r10d
    2365:	45 89 c9             	mov    %r9d,%r9d
    2368:	46 89 14 0f          	mov    %r10d,(%rdi,%r9,1)
    236c:	41 83 c0 10          	add    $0x10,%r8d
    2370:	83 c1 f0             	add    $0xfffffff0,%ecx
    2373:	83 f9 12             	cmp    $0x12,%ecx
    2376:	0f 87 4f ff ff ff    	ja     22cb <guest_func_memcpy+0x3cb>
    237c:	44 89 c0             	mov    %r8d,%eax
    237f:	01 d8                	add    %ebx,%eax
    2381:	44 01 c2             	add    %r8d,%edx
    2384:	83 c2 01             	add    $0x1,%edx
    2387:	40 89 c3             	rex mov %eax,%ebx
    238a:	89 c8                	mov    %ecx,%eax
    238c:	83 e0 10             	and    $0x10,%eax
    238f:	85 c0                	test   %eax,%eax
    2391:	0f 84 c1 00 00 00    	je     2458 <guest_func_memcpy+0x558>
    2397:	89 d0                	mov    %edx,%eax
    2399:	44 0f b7 04 07       	movzwl (%rdi,%rax,1),%r8d
    239e:	41 89 d9             	mov    %ebx,%r9d
    23a1:	66 46 89 04 0f       	mov    %r8w,(%rdi,%r9,1)
    23a6:	44 0f b6 44 07 02    	movzbl 0x2(%rdi,%rax,1),%r8d
    23ac:	45 89 c2             	mov    %r8d,%r10d
    23af:	49 89 f8             	mov    %rdi,%r8
    23b2:	40 89 cf             	rex mov %ecx,%edi
    23b5:	44 89 d1             	mov    %r10d,%ecx
    23b8:	43 88 4c 08 02       	mov    %cl,0x2(%r8,%r9,1)
    23bd:	41 0f b6 4c 00 03    	movzbl 0x3(%r8,%rax,1),%ecx
    23c3:	43 88 4c 08 03       	mov    %cl,0x3(%r8,%r9,1)
    23c8:	41 0f b6 4c 00 04    	movzbl 0x4(%r8,%rax,1),%ecx
    23ce:	43 88 4c 08 04       	mov    %cl,0x4(%r8,%r9,1)
    23d3:	41 0f b6 4c 00 05    	movzbl 0x5(%r8,%rax,1),%ecx
    23d9:	43 88 4c 08 05       	mov    %cl,0x5(%r8,%r9,1)
    23de:	41 0f b6 4c 00 06    	movzbl 0x6(%r8,%rax,1),%ecx
    23e4:	43 88 4c 08 06       	mov    %cl,0x6(%r8,%r9,1)
    23e9:	41 0f b6 4c 00 07    	movzbl 0x7(%r8,%rax,1),%ecx
    23ef:	43 88 4c 08 07       	mov    %cl,0x7(%r8,%r9,1)
    23f4:	41 0f b6 4c 00 08    	movzbl 0x8(%r8,%rax,1),%ecx
    23fa:	43 88 4c 08 08       	mov    %cl,0x8(%r8,%r9,1)
    23ff:	41 0f b6 4c 00 09    	movzbl 0x9(%r8,%rax,1),%ecx
    2405:	43 88 4c 08 09       	mov    %cl,0x9(%r8,%r9,1)
    240a:	41 0f b6 4c 00 0a    	movzbl 0xa(%r8,%rax,1),%ecx
    2410:	43 88 4c 08 0a       	mov    %cl,0xa(%r8,%r9,1)
    2415:	41 0f b6 4c 00 0b    	movzbl 0xb(%r8,%rax,1),%ecx
    241b:	43 88 4c 08 0b       	mov    %cl,0xb(%r8,%r9,1)
    2420:	41 0f b6 4c 00 0c    	movzbl 0xc(%r8,%rax,1),%ecx
    2426:	43 88 4c 08 0c       	mov    %cl,0xc(%r8,%r9,1)
    242b:	41 0f b6 4c 00 0d    	movzbl 0xd(%r8,%rax,1),%ecx
    2431:	43 88 4c 08 0d       	mov    %cl,0xd(%r8,%r9,1)
    2436:	41 0f b6 4c 00 0e    	movzbl 0xe(%r8,%rax,1),%ecx
    243c:	43 88 4c 08 0e       	mov    %cl,0xe(%r8,%r9,1)
    2441:	41 0f b6 44 00 0f    	movzbl 0xf(%r8,%rax,1),%eax
    2447:	43 88 44 08 0f       	mov    %al,0xf(%r8,%r9,1)
    244c:	83 c3 10             	add    $0x10,%ebx
    244f:	83 c2 10             	add    $0x10,%edx
    2452:	40 89 f9             	rex mov %edi,%ecx
    2455:	4c 89 c7             	mov    %r8,%rdi
    2458:	89 c8                	mov    %ecx,%eax
    245a:	83 e0 08             	and    $0x8,%eax
    245d:	85 c0                	test   %eax,%eax
    245f:	74 73                	je     24d4 <guest_func_memcpy+0x5d4>
    2461:	89 d0                	mov    %edx,%eax
    2463:	44 0f b6 04 07       	movzbl (%rdi,%rax,1),%r8d
    2468:	41 89 d9             	mov    %ebx,%r9d
    246b:	45 89 c2             	mov    %r8d,%r10d
    246e:	49 89 f8             	mov    %rdi,%r8
    2471:	40 89 cf             	rex mov %ecx,%edi
    2474:	44 89 d1             	mov    %r10d,%ecx
    2477:	43 88 0c 08          	mov    %cl,(%r8,%r9,1)
    247b:	41 0f b6 4c 00 01    	movzbl 0x1(%r8,%rax,1),%ecx
    2481:	43 88 4c 08 01       	mov    %cl,0x1(%r8,%r9,1)
    2486:	41 0f b6 4c 00 02    	movzbl 0x2(%r8,%rax,1),%ecx
    248c:	43 88 4c 08 02       	mov    %cl,0x2(%r8,%r9,1)
    2491:	41 0f b6 4c 00 03    	movzbl 0x3(%r8,%rax,1),%ecx
    2497:	43 88 4c 08 03       	mov    %cl,0x3(%r8,%r9,1)
    249c:	41 0f b6 4c 00 04    	movzbl 0x4(%r8,%rax,1),%ecx
    24a2:	43 88 4c 08 04       	mov    %cl,0x4(%r8,%r9,1)
    24a7:	41 0f b6 4c 00 05    	movzbl 0x5(%r8,%rax,1),%ecx
    24ad:	43 88 4c 08 05       	mov    %cl,0x5(%r8,%r9,1)
    24b2:	41 0f b6 4c 00 06    	movzbl 0x6(%r8,%rax,1),%ecx
    24b8:	43 88 4c 08 06       	mov    %cl,0x6(%r8,%r9,1)
    24bd:	41 0f b6 44 00 07    	movzbl 0x7(%r8,%rax,1),%eax
    24c3:	43 88 44 08 07       	mov    %al,0x7(%r8,%r9,1)
    24c8:	83 c3 08             	add    $0x8,%ebx
    24cb:	83 c2 08             	add    $0x8,%edx
    24ce:	40 89 f9             	rex mov %edi,%ecx
    24d1:	4c 89 c7             	mov    %r8,%rdi
    24d4:	89 c8                	mov    %ecx,%eax
    24d6:	83 e0 04             	and    $0x4,%eax
    24d9:	85 c0                	test   %eax,%eax
    24db:	74 47                	je     2524 <guest_func_memcpy+0x624>
    24dd:	89 d0                	mov    %edx,%eax
    24df:	44 0f b6 04 07       	movzbl (%rdi,%rax,1),%r8d
    24e4:	41 89 d9             	mov    %ebx,%r9d
    24e7:	45 89 c2             	mov    %r8d,%r10d
    24ea:	49 89 f8             	mov    %rdi,%r8
    24ed:	40 89 cf             	rex mov %ecx,%edi
    24f0:	44 89 d1             	mov    %r10d,%ecx
    24f3:	43 88 0c 08          	mov    %cl,(%r8,%r9,1)
    24f7:	41 0f b6 4c 00 01    	movzbl 0x1(%r8,%rax,1),%ecx
    24fd:	43 88 4c 08 01       	mov    %cl,0x1(%r8,%r9,1)
    2502:	41 0f b6 4c 00 02    	movzbl 0x2(%r8,%rax,1),%ecx
    2508:	43 88 4c 08 02       	mov    %cl,0x2(%r8,%r9,1)
    250d:	41 0f b6 44 00 03    	movzbl 0x3(%r8,%rax,1),%eax
    2513:	43 88 44 08 03       	mov    %al,0x3(%r8,%r9,1)
    2518:	83 c3 04             	add    $0x4,%ebx
    251b:	83 c2 04             	add    $0x4,%edx
    251e:	40 89 f9             	rex mov %edi,%ecx
    2521:	4c 89 c7             	mov    %r8,%rdi
    2524:	89 c8                	mov    %ecx,%eax
    2526:	83 e0 02             	and    $0x2,%eax
    2529:	85 c0                	test   %eax,%eax
    252b:	74 31                	je     255e <guest_func_memcpy+0x65e>
    252d:	89 d0                	mov    %edx,%eax
    252f:	44 0f b6 04 07       	movzbl (%rdi,%rax,1),%r8d
    2534:	41 89 d9             	mov    %ebx,%r9d
    2537:	45 89 c2             	mov    %r8d,%r10d
    253a:	49 89 f8             	mov    %rdi,%r8
    253d:	40 89 cf             	rex mov %ecx,%edi
    2540:	44 89 d1             	mov    %r10d,%ecx
    2543:	43 88 0c 08          	mov    %cl,(%r8,%r9,1)
    2547:	41 0f b6 44 00 01    	movzbl 0x1(%r8,%rax,1),%eax
    254d:	43 88 44 08 01       	mov    %al,0x1(%r8,%r9,1)
    2552:	83 c3 02             	add    $0x2,%ebx
    2555:	83 c2 02             	add    $0x2,%edx
    2558:	40 89 f9             	rex mov %edi,%ecx
    255b:	4c 89 c7             	mov    %r8,%rdi
    255e:	83 e1 01             	and    $0x1,%ecx
    2561:	85 c9                	test   %ecx,%ecx
    2563:	74 0b                	je     2570 <guest_func_memcpy+0x670>
    2565:	89 d0                	mov    %edx,%eax
    2567:	0f b6 04 07          	movzbl (%rdi,%rax,1),%eax
    256b:	89 d9                	mov    %ebx,%ecx
    256d:	88 04 0f             	mov    %al,(%rdi,%rcx,1)
    2570:	40 89 f0             	rex mov %esi,%eax
    2573:	41 5d                	pop    %r13
    2575:	41 5c                	pop    %r12
    2577:	5b                   	pop    %rbx
    2578:	5d                   	pop    %rbp
    2579:	c3                   	retq   
    257a:	1b fb                	sbb    %ebx,%edi
    257c:	ff                   	(bad)  
    257d:	ff 27                	jmpq   *(%rdi)
    257f:	fc                   	cld    
    2580:	ff                   	(bad)  
    2581:	ff 28                	ljmp   *(%rax)
    2583:	fd                   	std    
    2584:	ff                   	(bad)  
    2585:	ff 00                	incl   (%rax)
	...

0000000000002590 <guest_func_blake2b_long>:
    2590:	55                   	push   %rbp
    2591:	48 89 e5             	mov    %rsp,%rbp
    2594:	53                   	push   %rbx
    2595:	41 54                	push   %r12
    2597:	41 55                	push   %r13
    2599:	41 56                	push   %r14
    259b:	41 57                	push   %r15
    259d:	48 81 ec e8 00 00 00 	sub    $0xe8,%rsp
    25a4:	48 89 bc 24 a8 00 00 	mov    %rdi,0xa8(%rsp)
    25ab:	00 
    25ac:	89 b4 24 e4 00 00 00 	mov    %esi,0xe4(%rsp)
    25b3:	89 94 24 e0 00 00 00 	mov    %edx,0xe0(%rsp)
    25ba:	89 8c 24 dc 00 00 00 	mov    %ecx,0xdc(%rsp)
    25c1:	44 89 84 24 d8 00 00 	mov    %r8d,0xd8(%rsp)
    25c8:	00 
    25c9:	31 c0                	xor    %eax,%eax
    25cb:	89 84 24 d4 00 00 00 	mov    %eax,0xd4(%rsp)
    25d2:	31 c0                	xor    %eax,%eax
    25d4:	48 89 84 24 a0 00 00 	mov    %rax,0xa0(%rsp)
    25db:	00 
    25dc:	49 89 ff             	mov    %rdi,%r15
    25df:	49 8b 47 f0          	mov    -0x10(%r15),%rax
    25e3:	0f ae e8             	lfence 
    25e6:	8b 00                	mov    (%rax),%eax
    25e8:	0f ae e8             	lfence 
    25eb:	89 c1                	mov    %eax,%ecx
    25ed:	81 c1 a0 fe ff ff    	add    $0xfffffea0,%ecx
    25f3:	89 8c 24 d0 00 00 00 	mov    %ecx,0xd0(%rsp)
    25fa:	49 8b 4f f0          	mov    -0x10(%r15),%rcx
    25fe:	44 8b bc 24 d0 00 00 	mov    0xd0(%rsp),%r15d
    2605:	00 
    2606:	0f ae e8             	lfence 
    2609:	44 89 39             	mov    %r15d,(%rcx)
    260c:	41 89 d7             	mov    %edx,%r15d
    260f:	41 c1 ef 18          	shr    $0x18,%r15d
    2613:	44 89 bc 24 cc 00 00 	mov    %r15d,0xcc(%rsp)
    261a:	00 
    261b:	41 89 d7             	mov    %edx,%r15d
    261e:	41 c1 ef 10          	shr    $0x10,%r15d
    2622:	44 89 bc 24 c8 00 00 	mov    %r15d,0xc8(%rsp)
    2629:	00 
    262a:	41 89 d7             	mov    %edx,%r15d
    262d:	41 c1 ef 08          	shr    $0x8,%r15d
    2631:	44 89 bc 24 c4 00 00 	mov    %r15d,0xc4(%rsp)
    2638:	00 
    2639:	b9 40 00 00 00       	mov    $0x40,%ecx
    263e:	89 8c 24 c0 00 00 00 	mov    %ecx,0xc0(%rsp)
    2645:	41 89 d7             	mov    %edx,%r15d
    2648:	41 83 ff 40          	cmp    $0x40,%r15d
    264c:	0f 87 c5 04 00 00    	ja     2b17 <guest_func_blake2b_long+0x587>
    2652:	b9 ff ff ff ff       	mov    $0xffffffff,%ecx
    2657:	41 83 c7 ff          	add    $0xffffffff,%r15d
    265b:	41 83 ff 3f          	cmp    $0x3f,%r15d
    265f:	0f 87 72 0e 00 00    	ja     34d7 <guest_func_blake2b_long+0xf47>
    2665:	89 c1                	mov    %eax,%ecx
    2667:	83 c1 e0             	add    $0xffffffe0,%ecx
    266a:	ba 38 04 00 00       	mov    $0x438,%edx
    266f:	89 d2                	mov    %edx,%edx
    2671:	49 89 ff             	mov    %rdi,%r15
    2674:	49 8b 14 17          	mov    (%r15,%rdx,1),%rdx
    2678:	89 c9                	mov    %ecx,%ecx
    267a:	49 89 14 0f          	mov    %rdx,(%r15,%rcx,1)
    267e:	89 c1                	mov    %eax,%ecx
    2680:	83 c1 d8             	add    $0xffffffd8,%ecx
    2683:	ba 30 04 00 00       	mov    $0x430,%edx
    2688:	89 d2                	mov    %edx,%edx
    268a:	49 8b 14 17          	mov    (%r15,%rdx,1),%rdx
    268e:	89 c9                	mov    %ecx,%ecx
    2690:	49 89 14 0f          	mov    %rdx,(%r15,%rcx,1)
    2694:	89 c1                	mov    %eax,%ecx
    2696:	83 c1 d0             	add    $0xffffffd0,%ecx
    2699:	ba 28 04 00 00       	mov    $0x428,%edx
    269e:	89 d2                	mov    %edx,%edx
    26a0:	49 8b 14 17          	mov    (%r15,%rdx,1),%rdx
    26a4:	89 c9                	mov    %ecx,%ecx
    26a6:	49 89 14 0f          	mov    %rdx,(%r15,%rcx,1)
    26aa:	89 c1                	mov    %eax,%ecx
    26ac:	83 c1 c8             	add    $0xffffffc8,%ecx
    26af:	ba 20 04 00 00       	mov    $0x420,%edx
    26b4:	89 d2                	mov    %edx,%edx
    26b6:	49 8b 14 17          	mov    (%r15,%rdx,1),%rdx
    26ba:	89 c9                	mov    %ecx,%ecx
    26bc:	49 89 14 0f          	mov    %rdx,(%r15,%rcx,1)
    26c0:	89 c1                	mov    %eax,%ecx
    26c2:	83 c1 c0             	add    $0xffffffc0,%ecx
    26c5:	ba 18 04 00 00       	mov    $0x418,%edx
    26ca:	89 d2                	mov    %edx,%edx
    26cc:	49 8b 14 17          	mov    (%r15,%rdx,1),%rdx
    26d0:	89 c9                	mov    %ecx,%ecx
    26d2:	49 89 14 0f          	mov    %rdx,(%r15,%rcx,1)
    26d6:	89 c1                	mov    %eax,%ecx
    26d8:	83 c1 b8             	add    $0xffffffb8,%ecx
    26db:	ba 10 04 00 00       	mov    $0x410,%edx
    26e0:	89 d2                	mov    %edx,%edx
    26e2:	49 8b 14 17          	mov    (%r15,%rdx,1),%rdx
    26e6:	89 c9                	mov    %ecx,%ecx
    26e8:	49 89 14 0f          	mov    %rdx,(%r15,%rcx,1)
    26ec:	89 c1                	mov    %eax,%ecx
    26ee:	83 c1 b0             	add    $0xffffffb0,%ecx
    26f1:	ba 08 04 00 00       	mov    $0x408,%edx
    26f6:	89 d2                	mov    %edx,%edx
    26f8:	49 8b 14 17          	mov    (%r15,%rdx,1),%rdx
    26fc:	89 c9                	mov    %ecx,%ecx
    26fe:	49 89 14 0f          	mov    %rdx,(%r15,%rcx,1)
    2702:	89 c1                	mov    %eax,%ecx
    2704:	83 c1 f0             	add    $0xfffffff0,%ecx
    2707:	89 c9                	mov    %ecx,%ecx
    2709:	4c 8b bc 24 a0 00 00 	mov    0xa0(%rsp),%r15
    2710:	00 
    2711:	49 89 fe             	mov    %rdi,%r14
    2714:	4d 89 3c 0e          	mov    %r15,(%r14,%rcx,1)
    2718:	44 8b bc 24 d0 00 00 	mov    0xd0(%rsp),%r15d
    271f:	00 
    2720:	44 89 f9             	mov    %r15d,%ecx
    2723:	48 89 8c 24 98 00 00 	mov    %rcx,0x98(%rsp)
    272a:	00 
    272b:	4c 8b bc 24 a0 00 00 	mov    0xa0(%rsp),%r15
    2732:	00 
    2733:	49 89 cd             	mov    %rcx,%r13
    2736:	4f 89 bc 2e 48 01 00 	mov    %r15,0x148(%r14,%r13,1)
    273d:	00 
    273e:	44 8b bc 24 e0 00 00 	mov    0xe0(%rsp),%r15d
    2745:	00 
    2746:	44 89 f9             	mov    %r15d,%ecx
    2749:	48 ba 08 c9 bd f2 67 	movabs $0x6a09e667f2bdc908,%rdx
    2750:	e6 09 6a 
    2753:	48 31 d1             	xor    %rdx,%rcx
    2756:	49 89 ff             	mov    %rdi,%r15
    2759:	4d 89 ee             	mov    %r13,%r14
    275c:	4b 89 8c 37 08 01 00 	mov    %rcx,0x108(%r15,%r14,1)
    2763:	00 
    2764:	44 8b bc 24 e0 00 00 	mov    0xe0(%rsp),%r15d
    276b:	00 
    276c:	49 89 fe             	mov    %rdi,%r14
    276f:	47 89 bc 2e 5c 01 00 	mov    %r15d,0x15c(%r14,%r13,1)
    2776:	00 
    2777:	81 c0 28 ff ff ff    	add    $0xffffff28,%eax
    277d:	b9 80 00 00 00       	mov    $0x80,%ecx
    2782:	49 89 ff             	mov    %rdi,%r15
    2785:	44 8b b4 24 d4 00 00 	mov    0xd4(%rsp),%r14d
    278c:	00 
    278d:	4c 89 ff             	mov    %r15,%rdi
    2790:	40 89 c6             	rex mov %eax,%esi
    2793:	44 89 f2             	mov    %r14d,%edx
    2796:	e8 65 1f 00 00       	callq  4700 <guest_func_memset>
    279b:	b8 04 00 00 00       	mov    $0x4,%eax
    27a0:	4c 8b bc 24 a8 00 00 	mov    0xa8(%rsp),%r15
    27a7:	00 
    27a8:	4c 8b b4 24 98 00 00 	mov    0x98(%rsp),%r14
    27af:	00 
    27b0:	43 89 84 37 58 01 00 	mov    %eax,0x158(%r15,%r14,1)
    27b7:	00 
    27b8:	44 8b bc 24 c8 00 00 	mov    0xc8(%rsp),%r15d
    27bf:	00 
    27c0:	4c 8b b4 24 a8 00 00 	mov    0xa8(%rsp),%r14
    27c7:	00 
    27c8:	4c 8b ac 24 98 00 00 	mov    0x98(%rsp),%r13
    27cf:	00 
    27d0:	44 89 f9             	mov    %r15d,%ecx
    27d3:	43 88 8c 2e 8a 00 00 	mov    %cl,0x8a(%r14,%r13,1)
    27da:	00 
    27db:	44 8b bc 24 c4 00 00 	mov    0xc4(%rsp),%r15d
    27e2:	00 
    27e3:	44 89 f9             	mov    %r15d,%ecx
    27e6:	43 88 8c 2e 89 00 00 	mov    %cl,0x89(%r14,%r13,1)
    27ed:	00 
    27ee:	44 8b bc 24 e0 00 00 	mov    0xe0(%rsp),%r15d
    27f5:	00 
    27f6:	44 89 f9             	mov    %r15d,%ecx
    27f9:	43 88 8c 2e 88 00 00 	mov    %cl,0x88(%r14,%r13,1)
    2800:	00 
    2801:	44 8b bc 24 cc 00 00 	mov    0xcc(%rsp),%r15d
    2808:	00 
    2809:	44 89 f9             	mov    %r15d,%ecx
    280c:	43 88 8c 2e 8b 00 00 	mov    %cl,0x8b(%r14,%r13,1)
    2813:	00 
    2814:	44 8b bc 24 d8 00 00 	mov    0xd8(%rsp),%r15d
    281b:	00 
    281c:	45 85 ff             	test   %r15d,%r15d
    281f:	0f 84 66 01 00 00    	je     298b <guest_func_blake2b_long+0x3fb>
    2825:	81 f8 80 00 00 00    	cmp    $0x80,%eax
    282b:	0f 85 a5 00 00 00    	jne    28d6 <guest_func_blake2b_long+0x346>
    2831:	44 8b bc 24 d0 00 00 	mov    0xd0(%rsp),%r15d
    2838:	00 
    2839:	44 89 f8             	mov    %r15d,%eax
    283c:	48 89 84 24 90 00 00 	mov    %rax,0x90(%rsp)
    2843:	00 
    2844:	4c 8b bc 24 a8 00 00 	mov    0xa8(%rsp),%r15
    284b:	00 
    284c:	49 89 c6             	mov    %rax,%r14
    284f:	4b 8b 84 37 48 01 00 	mov    0x148(%r15,%r14,1),%rax
    2856:	00 
    2857:	48 89 c1             	mov    %rax,%rcx
    285a:	48 81 c1 80 00 00 00 	add    $0x80,%rcx
    2861:	4b 89 8c 37 48 01 00 	mov    %rcx,0x148(%r15,%r14,1)
    2868:	00 
    2869:	48 83 f8 80          	cmp    $0xffffffffffffff80,%rax
    286d:	0f ae e8             	lfence 
    2870:	72 14                	jb     2886 <guest_func_blake2b_long+0x2f6>
    2872:	4b 8b 84 37 50 01 00 	mov    0x150(%r15,%r14,1),%rax
    2879:	00 
    287a:	48 83 c0 01          	add    $0x1,%rax
    287e:	4b 89 84 37 50 01 00 	mov    %rax,0x150(%r15,%r14,1)
    2885:	00 
    2886:	44 8b bc 24 d0 00 00 	mov    0xd0(%rsp),%r15d
    288d:	00 
    288e:	41 81 c7 88 00 00 00 	add    $0x88,%r15d
    2895:	4c 8b b4 24 a8 00 00 	mov    0xa8(%rsp),%r14
    289c:	00 
    289d:	44 8b ac 24 d4 00 00 	mov    0xd4(%rsp),%r13d
    28a4:	00 
    28a5:	4c 89 f7             	mov    %r14,%rdi
    28a8:	44 89 fe             	mov    %r15d,%esi
    28ab:	44 89 ea             	mov    %r13d,%edx
    28ae:	e8 1d e4 ff ff       	callq  cd0 <guest_func_2>
    28b3:	44 8b bc 24 d4 00 00 	mov    0xd4(%rsp),%r15d
    28ba:	00 
    28bb:	4c 8b b4 24 a8 00 00 	mov    0xa8(%rsp),%r14
    28c2:	00 
    28c3:	4c 8b ac 24 90 00 00 	mov    0x90(%rsp),%r13
    28ca:	00 
    28cb:	47 89 bc 2e 58 01 00 	mov    %r15d,0x158(%r14,%r13,1)
    28d2:	00 
    28d3:	44 89 f8             	mov    %r15d,%eax
    28d6:	44 8b bc 24 dc 00 00 	mov    0xdc(%rsp),%r15d
    28dd:	00 
    28de:	44 89 f9             	mov    %r15d,%ecx
    28e1:	4c 8b bc 24 a8 00 00 	mov    0xa8(%rsp),%r15
    28e8:	00 
    28e9:	41 0f b6 0c 0f       	movzbl (%r15,%rcx,1),%ecx
    28ee:	89 c2                	mov    %eax,%edx
    28f0:	83 c2 01             	add    $0x1,%edx
    28f3:	44 8b bc 24 d0 00 00 	mov    0xd0(%rsp),%r15d
    28fa:	00 
    28fb:	44 89 fb             	mov    %r15d,%ebx
    28fe:	4c 8b bc 24 a8 00 00 	mov    0xa8(%rsp),%r15
    2905:	00 
    2906:	41 89 94 1f 58 01 00 	mov    %edx,0x158(%r15,%rbx,1)
    290d:	00 
    290e:	44 8b bc 24 d0 00 00 	mov    0xd0(%rsp),%r15d
    2915:	00 
    2916:	41 81 c7 88 00 00 00 	add    $0x88,%r15d
    291d:	41 01 c7             	add    %eax,%r15d
    2920:	44 89 f8             	mov    %r15d,%eax
    2923:	4c 8b bc 24 a8 00 00 	mov    0xa8(%rsp),%r15
    292a:	00 
    292b:	41 88 0c 07          	mov    %cl,(%r15,%rax,1)
    292f:	44 8b bc 24 dc 00 00 	mov    0xdc(%rsp),%r15d
    2936:	00 
    2937:	41 83 c7 01          	add    $0x1,%r15d
    293b:	44 89 bc 24 dc 00 00 	mov    %r15d,0xdc(%rsp)
    2942:	00 
    2943:	4c 8b bc 24 a8 00 00 	mov    0xa8(%rsp),%r15
    294a:	00 
    294b:	41 8b 84 1f 58 01 00 	mov    0x158(%r15,%rbx,1),%eax
    2952:	00 
    2953:	0f ae e8             	lfence 
    2956:	44 8b bc 24 d8 00 00 	mov    0xd8(%rsp),%r15d
    295d:	00 
    295e:	41 83 c7 ff          	add    $0xffffffff,%r15d
    2962:	44 89 bc 24 d8 00 00 	mov    %r15d,0xd8(%rsp)
    2969:	00 
    296a:	45 85 ff             	test   %r15d,%r15d
    296d:	0f 85 b2 fe ff ff    	jne    2825 <guest_func_blake2b_long+0x295>
    2973:	4c 8b bc 24 a8 00 00 	mov    0xa8(%rsp),%r15
    297a:	00 
    297b:	49 8b 8c 1f 48 01 00 	mov    0x148(%r15,%rbx,1),%rcx
    2982:	00 
    2983:	48 89 8c 24 a0 00 00 	mov    %rcx,0xa0(%rsp)
    298a:	00 
    298b:	89 c1                	mov    %eax,%ecx
    298d:	4c 8b bc 24 a0 00 00 	mov    0xa0(%rsp),%r15
    2994:	00 
    2995:	4c 01 f9             	add    %r15,%rcx
    2998:	44 8b bc 24 d0 00 00 	mov    0xd0(%rsp),%r15d
    299f:	00 
    29a0:	44 89 fa             	mov    %r15d,%edx
    29a3:	4c 8b bc 24 a8 00 00 	mov    0xa8(%rsp),%r15
    29aa:	00 
    29ab:	49 89 8c 17 48 01 00 	mov    %rcx,0x148(%r15,%rdx,1)
    29b2:	00 
    29b3:	4c 8b bc 24 a0 00 00 	mov    0xa0(%rsp),%r15
    29ba:	00 
    29bb:	4c 39 f9             	cmp    %r15,%rcx
    29be:	0f ae e8             	lfence 
    29c1:	73 1c                	jae    29df <guest_func_blake2b_long+0x44f>
    29c3:	4c 8b bc 24 a8 00 00 	mov    0xa8(%rsp),%r15
    29ca:	00 
    29cb:	49 8b 8c 17 50 01 00 	mov    0x150(%r15,%rdx,1),%rcx
    29d2:	00 
    29d3:	48 83 c1 01          	add    $0x1,%rcx
    29d7:	49 89 8c 17 50 01 00 	mov    %rcx,0x150(%r15,%rdx,1)
    29de:	00 
    29df:	83 f8 7f             	cmp    $0x7f,%eax
    29e2:	77 59                	ja     2a3d <guest_func_blake2b_long+0x4ad>
    29e4:	44 8b bc 24 d0 00 00 	mov    0xd0(%rsp),%r15d
    29eb:	00 
    29ec:	44 89 f9             	mov    %r15d,%ecx
    29ef:	81 c1 88 00 00 00    	add    $0x88,%ecx
    29f5:	89 c3                	mov    %eax,%ebx
    29f7:	83 c3 01             	add    $0x1,%ebx
    29fa:	4c 8b bc 24 a8 00 00 	mov    0xa8(%rsp),%r15
    2a01:	00 
    2a02:	41 89 9c 17 58 01 00 	mov    %ebx,0x158(%r15,%rdx,1)
    2a09:	00 
    2a0a:	89 cb                	mov    %ecx,%ebx
    2a0c:	01 c3                	add    %eax,%ebx
    2a0e:	89 d8                	mov    %ebx,%eax
    2a10:	44 8b bc 24 d4 00 00 	mov    0xd4(%rsp),%r15d
    2a17:	00 
    2a18:	4c 8b b4 24 a8 00 00 	mov    0xa8(%rsp),%r14
    2a1f:	00 
    2a20:	44 89 fb             	mov    %r15d,%ebx
    2a23:	41 88 1c 06          	mov    %bl,(%r14,%rax,1)
    2a27:	4d 89 f7             	mov    %r14,%r15
    2a2a:	41 8b 84 17 58 01 00 	mov    0x158(%r15,%rdx,1),%eax
    2a31:	00 
    2a32:	0f ae e8             	lfence 
    2a35:	81 f8 80 00 00 00    	cmp    $0x80,%eax
    2a3b:	72 b8                	jb     29f5 <guest_func_blake2b_long+0x465>
    2a3d:	44 8b bc 24 d0 00 00 	mov    0xd0(%rsp),%r15d
    2a44:	00 
    2a45:	41 81 c7 88 00 00 00 	add    $0x88,%r15d
    2a4c:	b8 01 00 00 00       	mov    $0x1,%eax
    2a51:	4c 8b b4 24 a8 00 00 	mov    0xa8(%rsp),%r14
    2a58:	00 
    2a59:	4c 89 f7             	mov    %r14,%rdi
    2a5c:	44 89 fe             	mov    %r15d,%esi
    2a5f:	40 89 c2             	rex mov %eax,%edx
    2a62:	e8 69 e2 ff ff       	callq  cd0 <guest_func_2>
    2a67:	44 8b bc 24 d0 00 00 	mov    0xd0(%rsp),%r15d
    2a6e:	00 
    2a6f:	44 89 f8             	mov    %r15d,%eax
    2a72:	4c 8b bc 24 a8 00 00 	mov    0xa8(%rsp),%r15
    2a79:	00 
    2a7a:	41 8b 84 07 5c 01 00 	mov    0x15c(%r15,%rax,1),%eax
    2a81:	00 
    2a82:	0f ae e8             	lfence 
    2a85:	85 c0                	test   %eax,%eax
    2a87:	75 0d                	jne    2a96 <guest_func_blake2b_long+0x506>
    2a89:	44 8b bc 24 d4 00 00 	mov    0xd4(%rsp),%r15d
    2a90:	00 
    2a91:	e9 44 0a 00 00       	jmpq   34da <guest_func_blake2b_long+0xf4a>
    2a96:	44 8b bc 24 d4 00 00 	mov    0xd4(%rsp),%r15d
    2a9d:	00 
    2a9e:	45 89 fe             	mov    %r15d,%r14d
    2aa1:	eb 06                	jmp    2aa9 <guest_func_blake2b_long+0x519>
    2aa3:	41 89 d7             	mov    %edx,%r15d
    2aa6:	41 89 ce             	mov    %ecx,%r14d
    2aa9:	44 8b ac 24 e4 00 00 	mov    0xe4(%rsp),%r13d
    2ab0:	00 
    2ab1:	45 01 fd             	add    %r15d,%r13d
    2ab4:	44 89 f9             	mov    %r15d,%ecx
    2ab7:	83 e1 f8             	and    $0xfffffff8,%ecx
    2aba:	44 8b a4 24 d0 00 00 	mov    0xd0(%rsp),%r12d
    2ac1:	00 
    2ac2:	41 01 cc             	add    %ecx,%r12d
    2ac5:	41 81 c4 08 01 00 00 	add    $0x108,%r12d
    2acc:	44 89 e1             	mov    %r12d,%ecx
    2acf:	4c 8b a4 24 a8 00 00 	mov    0xa8(%rsp),%r12
    2ad6:	00 
    2ad7:	49 8b 0c 0c          	mov    (%r12,%rcx,1),%rcx
    2adb:	44 89 f2             	mov    %r14d,%edx
    2ade:	83 e2 38             	and    $0x38,%edx
    2ae1:	89 d2                	mov    %edx,%edx
    2ae3:	48 89 cb             	mov    %rcx,%rbx
    2ae6:	48 89 d1             	mov    %rdx,%rcx
    2ae9:	48 89 da             	mov    %rbx,%rdx
    2aec:	48 d3 ea             	shr    %cl,%rdx
    2aef:	44 89 e9             	mov    %r13d,%ecx
    2af2:	4d 89 e5             	mov    %r12,%r13
    2af5:	41 88 54 0d 00       	mov    %dl,0x0(%r13,%rcx,1)
    2afa:	44 89 f1             	mov    %r14d,%ecx
    2afd:	83 c1 08             	add    $0x8,%ecx
    2b00:	44 89 fa             	mov    %r15d,%edx
    2b03:	83 c2 01             	add    $0x1,%edx
    2b06:	39 d0                	cmp    %edx,%eax
    2b08:	75 99                	jne    2aa3 <guest_func_blake2b_long+0x513>
    2b0a:	44 8b bc 24 d4 00 00 	mov    0xd4(%rsp),%r15d
    2b11:	00 
    2b12:	e9 c3 09 00 00       	jmpq   34da <guest_func_blake2b_long+0xf4a>
    2b17:	89 c1                	mov    %eax,%ecx
    2b19:	83 c1 b0             	add    $0xffffffb0,%ecx
    2b1c:	ba 08 04 00 00       	mov    $0x408,%edx
    2b21:	89 d2                	mov    %edx,%edx
    2b23:	49 89 ff             	mov    %rdi,%r15
    2b26:	49 8b 14 17          	mov    (%r15,%rdx,1),%rdx
    2b2a:	89 c9                	mov    %ecx,%ecx
    2b2c:	49 89 14 0f          	mov    %rdx,(%r15,%rcx,1)
    2b30:	89 c1                	mov    %eax,%ecx
    2b32:	83 c1 b8             	add    $0xffffffb8,%ecx
    2b35:	ba 10 04 00 00       	mov    $0x410,%edx
    2b3a:	89 d2                	mov    %edx,%edx
    2b3c:	49 8b 14 17          	mov    (%r15,%rdx,1),%rdx
    2b40:	89 c9                	mov    %ecx,%ecx
    2b42:	49 89 14 0f          	mov    %rdx,(%r15,%rcx,1)
    2b46:	89 c1                	mov    %eax,%ecx
    2b48:	83 c1 c0             	add    $0xffffffc0,%ecx
    2b4b:	ba 18 04 00 00       	mov    $0x418,%edx
    2b50:	89 d2                	mov    %edx,%edx
    2b52:	49 8b 14 17          	mov    (%r15,%rdx,1),%rdx
    2b56:	89 c9                	mov    %ecx,%ecx
    2b58:	49 89 14 0f          	mov    %rdx,(%r15,%rcx,1)
    2b5c:	89 c1                	mov    %eax,%ecx
    2b5e:	83 c1 c8             	add    $0xffffffc8,%ecx
    2b61:	ba 20 04 00 00       	mov    $0x420,%edx
    2b66:	89 d2                	mov    %edx,%edx
    2b68:	49 8b 14 17          	mov    (%r15,%rdx,1),%rdx
    2b6c:	89 c9                	mov    %ecx,%ecx
    2b6e:	49 89 14 0f          	mov    %rdx,(%r15,%rcx,1)
    2b72:	89 c1                	mov    %eax,%ecx
    2b74:	83 c1 d0             	add    $0xffffffd0,%ecx
    2b77:	ba 28 04 00 00       	mov    $0x428,%edx
    2b7c:	89 d2                	mov    %edx,%edx
    2b7e:	49 8b 14 17          	mov    (%r15,%rdx,1),%rdx
    2b82:	89 c9                	mov    %ecx,%ecx
    2b84:	49 89 14 0f          	mov    %rdx,(%r15,%rcx,1)
    2b88:	89 c1                	mov    %eax,%ecx
    2b8a:	83 c1 d8             	add    $0xffffffd8,%ecx
    2b8d:	ba 30 04 00 00       	mov    $0x430,%edx
    2b92:	89 d2                	mov    %edx,%edx
    2b94:	49 8b 14 17          	mov    (%r15,%rdx,1),%rdx
    2b98:	89 c9                	mov    %ecx,%ecx
    2b9a:	49 89 14 0f          	mov    %rdx,(%r15,%rcx,1)
    2b9e:	89 c1                	mov    %eax,%ecx
    2ba0:	83 c1 e0             	add    $0xffffffe0,%ecx
    2ba3:	ba 38 04 00 00       	mov    $0x438,%edx
    2ba8:	89 d2                	mov    %edx,%edx
    2baa:	49 8b 14 17          	mov    (%r15,%rdx,1),%rdx
    2bae:	89 c9                	mov    %ecx,%ecx
    2bb0:	49 89 14 0f          	mov    %rdx,(%r15,%rcx,1)
    2bb4:	89 c1                	mov    %eax,%ecx
    2bb6:	83 c1 f0             	add    $0xfffffff0,%ecx
    2bb9:	89 c9                	mov    %ecx,%ecx
    2bbb:	4c 8b bc 24 a0 00 00 	mov    0xa0(%rsp),%r15
    2bc2:	00 
    2bc3:	49 89 fe             	mov    %rdi,%r14
    2bc6:	4d 89 3c 0e          	mov    %r15,(%r14,%rcx,1)
    2bca:	48 b9 48 c9 bd f2 67 	movabs $0x6a09e667f2bdc948,%rcx
    2bd1:	e6 09 6a 
    2bd4:	44 8b bc 24 d0 00 00 	mov    0xd0(%rsp),%r15d
    2bdb:	00 
    2bdc:	44 89 fa             	mov    %r15d,%edx
    2bdf:	48 89 94 24 88 00 00 	mov    %rdx,0x88(%rsp)
    2be6:	00 
    2be7:	49 89 ff             	mov    %rdi,%r15
    2bea:	49 89 d6             	mov    %rdx,%r14
    2bed:	4b 89 8c 37 08 01 00 	mov    %rcx,0x108(%r15,%r14,1)
    2bf4:	00 
    2bf5:	4c 8b bc 24 a0 00 00 	mov    0xa0(%rsp),%r15
    2bfc:	00 
    2bfd:	49 89 fe             	mov    %rdi,%r14
    2c00:	49 89 d5             	mov    %rdx,%r13
    2c03:	4f 89 bc 2e 48 01 00 	mov    %r15,0x148(%r14,%r13,1)
    2c0a:	00 
    2c0b:	44 8b bc 24 c0 00 00 	mov    0xc0(%rsp),%r15d
    2c12:	00 
    2c13:	47 89 bc 2e 5c 01 00 	mov    %r15d,0x15c(%r14,%r13,1)
    2c1a:	00 
    2c1b:	81 c0 28 ff ff ff    	add    $0xffffff28,%eax
    2c21:	b9 80 00 00 00       	mov    $0x80,%ecx
    2c26:	49 89 ff             	mov    %rdi,%r15
    2c29:	44 8b b4 24 d4 00 00 	mov    0xd4(%rsp),%r14d
    2c30:	00 
    2c31:	4c 89 ff             	mov    %r15,%rdi
    2c34:	40 89 c6             	rex mov %eax,%esi
    2c37:	44 89 f2             	mov    %r14d,%edx
    2c3a:	e8 c1 1a 00 00       	callq  4700 <guest_func_memset>
    2c3f:	b8 04 00 00 00       	mov    $0x4,%eax
    2c44:	4c 8b bc 24 a8 00 00 	mov    0xa8(%rsp),%r15
    2c4b:	00 
    2c4c:	4c 8b b4 24 88 00 00 	mov    0x88(%rsp),%r14
    2c53:	00 
    2c54:	43 89 84 37 58 01 00 	mov    %eax,0x158(%r15,%r14,1)
    2c5b:	00 
    2c5c:	44 8b bc 24 c8 00 00 	mov    0xc8(%rsp),%r15d
    2c63:	00 
    2c64:	4c 8b b4 24 a8 00 00 	mov    0xa8(%rsp),%r14
    2c6b:	00 
    2c6c:	4c 8b ac 24 88 00 00 	mov    0x88(%rsp),%r13
    2c73:	00 
    2c74:	44 89 f9             	mov    %r15d,%ecx
    2c77:	43 88 8c 2e 8a 00 00 	mov    %cl,0x8a(%r14,%r13,1)
    2c7e:	00 
    2c7f:	44 8b bc 24 c4 00 00 	mov    0xc4(%rsp),%r15d
    2c86:	00 
    2c87:	44 89 f9             	mov    %r15d,%ecx
    2c8a:	43 88 8c 2e 89 00 00 	mov    %cl,0x89(%r14,%r13,1)
    2c91:	00 
    2c92:	44 8b bc 24 e0 00 00 	mov    0xe0(%rsp),%r15d
    2c99:	00 
    2c9a:	44 89 f9             	mov    %r15d,%ecx
    2c9d:	43 88 8c 2e 88 00 00 	mov    %cl,0x88(%r14,%r13,1)
    2ca4:	00 
    2ca5:	44 8b bc 24 cc 00 00 	mov    0xcc(%rsp),%r15d
    2cac:	00 
    2cad:	44 89 f9             	mov    %r15d,%ecx
    2cb0:	43 88 8c 2e 8b 00 00 	mov    %cl,0x8b(%r14,%r13,1)
    2cb7:	00 
    2cb8:	44 8b bc 24 d8 00 00 	mov    0xd8(%rsp),%r15d
    2cbf:	00 
    2cc0:	45 85 ff             	test   %r15d,%r15d
    2cc3:	0f 84 66 01 00 00    	je     2e2f <guest_func_blake2b_long+0x89f>
    2cc9:	81 f8 80 00 00 00    	cmp    $0x80,%eax
    2ccf:	0f 85 a5 00 00 00    	jne    2d7a <guest_func_blake2b_long+0x7ea>
    2cd5:	44 8b bc 24 d0 00 00 	mov    0xd0(%rsp),%r15d
    2cdc:	00 
    2cdd:	44 89 f8             	mov    %r15d,%eax
    2ce0:	48 89 84 24 80 00 00 	mov    %rax,0x80(%rsp)
    2ce7:	00 
    2ce8:	4c 8b bc 24 a8 00 00 	mov    0xa8(%rsp),%r15
    2cef:	00 
    2cf0:	49 89 c6             	mov    %rax,%r14
    2cf3:	4b 8b 84 37 48 01 00 	mov    0x148(%r15,%r14,1),%rax
    2cfa:	00 
    2cfb:	48 89 c1             	mov    %rax,%rcx
    2cfe:	48 81 c1 80 00 00 00 	add    $0x80,%rcx
    2d05:	4b 89 8c 37 48 01 00 	mov    %rcx,0x148(%r15,%r14,1)
    2d0c:	00 
    2d0d:	48 83 f8 80          	cmp    $0xffffffffffffff80,%rax
    2d11:	0f ae e8             	lfence 
    2d14:	72 14                	jb     2d2a <guest_func_blake2b_long+0x79a>
    2d16:	4b 8b 84 37 50 01 00 	mov    0x150(%r15,%r14,1),%rax
    2d1d:	00 
    2d1e:	48 83 c0 01          	add    $0x1,%rax
    2d22:	4b 89 84 37 50 01 00 	mov    %rax,0x150(%r15,%r14,1)
    2d29:	00 
    2d2a:	44 8b bc 24 d0 00 00 	mov    0xd0(%rsp),%r15d
    2d31:	00 
    2d32:	41 81 c7 88 00 00 00 	add    $0x88,%r15d
    2d39:	4c 8b b4 24 a8 00 00 	mov    0xa8(%rsp),%r14
    2d40:	00 
    2d41:	44 8b ac 24 d4 00 00 	mov    0xd4(%rsp),%r13d
    2d48:	00 
    2d49:	4c 89 f7             	mov    %r14,%rdi
    2d4c:	44 89 fe             	mov    %r15d,%esi
    2d4f:	44 89 ea             	mov    %r13d,%edx
    2d52:	e8 79 df ff ff       	callq  cd0 <guest_func_2>
    2d57:	44 8b bc 24 d4 00 00 	mov    0xd4(%rsp),%r15d
    2d5e:	00 
    2d5f:	4c 8b b4 24 a8 00 00 	mov    0xa8(%rsp),%r14
    2d66:	00 
    2d67:	4c 8b ac 24 80 00 00 	mov    0x80(%rsp),%r13
    2d6e:	00 
    2d6f:	47 89 bc 2e 58 01 00 	mov    %r15d,0x158(%r14,%r13,1)
    2d76:	00 
    2d77:	44 89 f8             	mov    %r15d,%eax
    2d7a:	44 8b bc 24 dc 00 00 	mov    0xdc(%rsp),%r15d
    2d81:	00 
    2d82:	44 89 f9             	mov    %r15d,%ecx
    2d85:	4c 8b bc 24 a8 00 00 	mov    0xa8(%rsp),%r15
    2d8c:	00 
    2d8d:	41 0f b6 0c 0f       	movzbl (%r15,%rcx,1),%ecx
    2d92:	89 c2                	mov    %eax,%edx
    2d94:	83 c2 01             	add    $0x1,%edx
    2d97:	44 8b bc 24 d0 00 00 	mov    0xd0(%rsp),%r15d
    2d9e:	00 
    2d9f:	44 89 fb             	mov    %r15d,%ebx
    2da2:	4c 8b bc 24 a8 00 00 	mov    0xa8(%rsp),%r15
    2da9:	00 
    2daa:	41 89 94 1f 58 01 00 	mov    %edx,0x158(%r15,%rbx,1)
    2db1:	00 
    2db2:	44 8b bc 24 d0 00 00 	mov    0xd0(%rsp),%r15d
    2db9:	00 
    2dba:	41 81 c7 88 00 00 00 	add    $0x88,%r15d
    2dc1:	41 01 c7             	add    %eax,%r15d
    2dc4:	44 89 f8             	mov    %r15d,%eax
    2dc7:	4c 8b bc 24 a8 00 00 	mov    0xa8(%rsp),%r15
    2dce:	00 
    2dcf:	41 88 0c 07          	mov    %cl,(%r15,%rax,1)
    2dd3:	44 8b bc 24 dc 00 00 	mov    0xdc(%rsp),%r15d
    2dda:	00 
    2ddb:	41 83 c7 01          	add    $0x1,%r15d
    2ddf:	44 89 bc 24 dc 00 00 	mov    %r15d,0xdc(%rsp)
    2de6:	00 
    2de7:	4c 8b bc 24 a8 00 00 	mov    0xa8(%rsp),%r15
    2dee:	00 
    2def:	41 8b 84 1f 58 01 00 	mov    0x158(%r15,%rbx,1),%eax
    2df6:	00 
    2df7:	0f ae e8             	lfence 
    2dfa:	44 8b bc 24 d8 00 00 	mov    0xd8(%rsp),%r15d
    2e01:	00 
    2e02:	41 83 c7 ff          	add    $0xffffffff,%r15d
    2e06:	44 89 bc 24 d8 00 00 	mov    %r15d,0xd8(%rsp)
    2e0d:	00 
    2e0e:	45 85 ff             	test   %r15d,%r15d
    2e11:	0f 85 b2 fe ff ff    	jne    2cc9 <guest_func_blake2b_long+0x739>
    2e17:	4c 8b bc 24 a8 00 00 	mov    0xa8(%rsp),%r15
    2e1e:	00 
    2e1f:	49 8b 8c 1f 48 01 00 	mov    0x148(%r15,%rbx,1),%rcx
    2e26:	00 
    2e27:	48 89 8c 24 a0 00 00 	mov    %rcx,0xa0(%rsp)
    2e2e:	00 
    2e2f:	89 c1                	mov    %eax,%ecx
    2e31:	4c 8b bc 24 a0 00 00 	mov    0xa0(%rsp),%r15
    2e38:	00 
    2e39:	4c 01 f9             	add    %r15,%rcx
    2e3c:	44 8b bc 24 d0 00 00 	mov    0xd0(%rsp),%r15d
    2e43:	00 
    2e44:	44 89 fa             	mov    %r15d,%edx
    2e47:	4c 8b bc 24 a8 00 00 	mov    0xa8(%rsp),%r15
    2e4e:	00 
    2e4f:	49 89 8c 17 48 01 00 	mov    %rcx,0x148(%r15,%rdx,1)
    2e56:	00 
    2e57:	4c 8b bc 24 a0 00 00 	mov    0xa0(%rsp),%r15
    2e5e:	00 
    2e5f:	4c 39 f9             	cmp    %r15,%rcx
    2e62:	0f ae e8             	lfence 
    2e65:	73 1c                	jae    2e83 <guest_func_blake2b_long+0x8f3>
    2e67:	4c 8b bc 24 a8 00 00 	mov    0xa8(%rsp),%r15
    2e6e:	00 
    2e6f:	49 8b 8c 17 50 01 00 	mov    0x150(%r15,%rdx,1),%rcx
    2e76:	00 
    2e77:	48 83 c1 01          	add    $0x1,%rcx
    2e7b:	49 89 8c 17 50 01 00 	mov    %rcx,0x150(%r15,%rdx,1)
    2e82:	00 
    2e83:	83 f8 7f             	cmp    $0x7f,%eax
    2e86:	77 59                	ja     2ee1 <guest_func_blake2b_long+0x951>
    2e88:	44 8b bc 24 d0 00 00 	mov    0xd0(%rsp),%r15d
    2e8f:	00 
    2e90:	44 89 f9             	mov    %r15d,%ecx
    2e93:	81 c1 88 00 00 00    	add    $0x88,%ecx
    2e99:	89 c3                	mov    %eax,%ebx
    2e9b:	83 c3 01             	add    $0x1,%ebx
    2e9e:	4c 8b bc 24 a8 00 00 	mov    0xa8(%rsp),%r15
    2ea5:	00 
    2ea6:	41 89 9c 17 58 01 00 	mov    %ebx,0x158(%r15,%rdx,1)
    2ead:	00 
    2eae:	89 cb                	mov    %ecx,%ebx
    2eb0:	01 c3                	add    %eax,%ebx
    2eb2:	89 d8                	mov    %ebx,%eax
    2eb4:	44 8b bc 24 d4 00 00 	mov    0xd4(%rsp),%r15d
    2ebb:	00 
    2ebc:	4c 8b b4 24 a8 00 00 	mov    0xa8(%rsp),%r14
    2ec3:	00 
    2ec4:	44 89 fb             	mov    %r15d,%ebx
    2ec7:	41 88 1c 06          	mov    %bl,(%r14,%rax,1)
    2ecb:	4d 89 f7             	mov    %r14,%r15
    2ece:	41 8b 84 17 58 01 00 	mov    0x158(%r15,%rdx,1),%eax
    2ed5:	00 
    2ed6:	0f ae e8             	lfence 
    2ed9:	81 f8 80 00 00 00    	cmp    $0x80,%eax
    2edf:	72 b8                	jb     2e99 <guest_func_blake2b_long+0x909>
    2ee1:	44 8b bc 24 d0 00 00 	mov    0xd0(%rsp),%r15d
    2ee8:	00 
    2ee9:	41 81 c7 88 00 00 00 	add    $0x88,%r15d
    2ef0:	b8 01 00 00 00       	mov    $0x1,%eax
    2ef5:	4c 8b b4 24 a8 00 00 	mov    0xa8(%rsp),%r14
    2efc:	00 
    2efd:	4c 89 f7             	mov    %r14,%rdi
    2f00:	44 89 fe             	mov    %r15d,%esi
    2f03:	40 89 c2             	rex mov %eax,%edx
    2f06:	e8 c5 dd ff ff       	callq  cd0 <guest_func_2>
    2f0b:	44 8b bc 24 d0 00 00 	mov    0xd0(%rsp),%r15d
    2f12:	00 
    2f13:	44 89 f8             	mov    %r15d,%eax
    2f16:	4c 8b bc 24 a8 00 00 	mov    0xa8(%rsp),%r15
    2f1d:	00 
    2f1e:	41 8b 84 07 5c 01 00 	mov    0x15c(%r15,%rax,1),%eax
    2f25:	00 
    2f26:	0f ae e8             	lfence 
    2f29:	85 c0                	test   %eax,%eax
    2f2b:	74 7c                	je     2fa9 <guest_func_blake2b_long+0xa19>
    2f2d:	44 8b bc 24 d0 00 00 	mov    0xd0(%rsp),%r15d
    2f34:	00 
    2f35:	44 89 f9             	mov    %r15d,%ecx
    2f38:	83 c1 40             	add    $0x40,%ecx
    2f3b:	44 8b bc 24 d4 00 00 	mov    0xd4(%rsp),%r15d
    2f42:	00 
    2f43:	45 89 fe             	mov    %r15d,%r14d
    2f46:	eb 06                	jmp    2f4e <guest_func_blake2b_long+0x9be>
    2f48:	41 89 df             	mov    %ebx,%r15d
    2f4b:	41 89 d6             	mov    %edx,%r14d
    2f4e:	89 ca                	mov    %ecx,%edx
    2f50:	44 01 fa             	add    %r15d,%edx
    2f53:	44 89 fb             	mov    %r15d,%ebx
    2f56:	83 e3 f8             	and    $0xfffffff8,%ebx
    2f59:	44 8b ac 24 d0 00 00 	mov    0xd0(%rsp),%r13d
    2f60:	00 
    2f61:	41 01 dd             	add    %ebx,%r13d
    2f64:	41 81 c5 08 01 00 00 	add    $0x108,%r13d
    2f6b:	44 89 eb             	mov    %r13d,%ebx
    2f6e:	4c 8b ac 24 a8 00 00 	mov    0xa8(%rsp),%r13
    2f75:	00 
    2f76:	49 8b 5c 1d 00       	mov    0x0(%r13,%rbx,1),%rbx
    2f7b:	44 89 f6             	mov    %r14d,%esi
    2f7e:	83 e6 38             	and    $0x38,%esi
    2f81:	89 f6                	mov    %esi,%esi
    2f83:	40 89 cf             	rex mov %ecx,%edi
    2f86:	48 89 f1             	mov    %rsi,%rcx
    2f89:	40 89 fe             	rex mov %edi,%esi
    2f8c:	48 d3 eb             	shr    %cl,%rbx
    2f8f:	89 d1                	mov    %edx,%ecx
    2f91:	41 88 5c 0d 00       	mov    %bl,0x0(%r13,%rcx,1)
    2f96:	44 89 f2             	mov    %r14d,%edx
    2f99:	83 c2 08             	add    $0x8,%edx
    2f9c:	44 89 fb             	mov    %r15d,%ebx
    2f9f:	83 c3 01             	add    $0x1,%ebx
    2fa2:	39 d8                	cmp    %ebx,%eax
    2fa4:	40 89 f1             	rex mov %esi,%ecx
    2fa7:	75 9f                	jne    2f48 <guest_func_blake2b_long+0x9b8>
    2fa9:	44 8b bc 24 d0 00 00 	mov    0xd0(%rsp),%r15d
    2fb0:	00 
    2fb1:	44 89 f8             	mov    %r15d,%eax
    2fb4:	48 89 84 24 78 00 00 	mov    %rax,0x78(%rsp)
    2fbb:	00 
    2fbc:	4c 8b bc 24 a8 00 00 	mov    0xa8(%rsp),%r15
    2fc3:	00 
    2fc4:	49 89 c6             	mov    %rax,%r14
    2fc7:	4b 8b 44 37 40       	mov    0x40(%r15,%r14,1),%rax
    2fcc:	48 89 84 24 70 00 00 	mov    %rax,0x70(%rsp)
    2fd3:	00 
    2fd4:	44 8b bc 24 e4 00 00 	mov    0xe4(%rsp),%r15d
    2fdb:	00 
    2fdc:	44 89 f8             	mov    %r15d,%eax
    2fdf:	4c 8b bc 24 70 00 00 	mov    0x70(%rsp),%r15
    2fe6:	00 
    2fe7:	4c 8b b4 24 a8 00 00 	mov    0xa8(%rsp),%r14
    2fee:	00 
    2fef:	4d 89 3c 06          	mov    %r15,(%r14,%rax,1)
    2ff3:	44 8b bc 24 e4 00 00 	mov    0xe4(%rsp),%r15d
    2ffa:	00 
    2ffb:	41 83 c7 08          	add    $0x8,%r15d
    2fff:	4c 8b ac 24 78 00 00 	mov    0x78(%rsp),%r13
    3006:	00 
    3007:	4b 8b 44 2e 48       	mov    0x48(%r14,%r13,1),%rax
    300c:	48 89 84 24 68 00 00 	mov    %rax,0x68(%rsp)
    3013:	00 
    3014:	44 89 f8             	mov    %r15d,%eax
    3017:	4c 8b bc 24 68 00 00 	mov    0x68(%rsp),%r15
    301e:	00 
    301f:	4d 89 3c 06          	mov    %r15,(%r14,%rax,1)
    3023:	44 8b bc 24 e4 00 00 	mov    0xe4(%rsp),%r15d
    302a:	00 
    302b:	41 83 c7 18          	add    $0x18,%r15d
    302f:	44 8b b4 24 d0 00 00 	mov    0xd0(%rsp),%r14d
    3036:	00 
    3037:	41 83 c6 40          	add    $0x40,%r14d
    303b:	44 89 b4 24 bc 00 00 	mov    %r14d,0xbc(%rsp)
    3042:	00 
    3043:	44 8b b4 24 d0 00 00 	mov    0xd0(%rsp),%r14d
    304a:	00 
    304b:	41 83 c6 58          	add    $0x58,%r14d
    304f:	44 89 f0             	mov    %r14d,%eax
    3052:	48 89 84 24 60 00 00 	mov    %rax,0x60(%rsp)
    3059:	00 
    305a:	4c 8b b4 24 a8 00 00 	mov    0xa8(%rsp),%r14
    3061:	00 
    3062:	49 89 c5             	mov    %rax,%r13
    3065:	4b 8b 04 2e          	mov    (%r14,%r13,1),%rax
    3069:	44 89 f9             	mov    %r15d,%ecx
    306c:	4d 89 f7             	mov    %r14,%r15
    306f:	49 89 04 0f          	mov    %rax,(%r15,%rcx,1)
    3073:	44 8b bc 24 e4 00 00 	mov    0xe4(%rsp),%r15d
    307a:	00 
    307b:	41 83 c7 10          	add    $0x10,%r15d
    307f:	44 8b b4 24 d0 00 00 	mov    0xd0(%rsp),%r14d
    3086:	00 
    3087:	41 83 c6 50          	add    $0x50,%r14d
    308b:	44 89 f1             	mov    %r14d,%ecx
    308e:	48 89 8c 24 58 00 00 	mov    %rcx,0x58(%rsp)
    3095:	00 
    3096:	4c 8b b4 24 a8 00 00 	mov    0xa8(%rsp),%r14
    309d:	00 
    309e:	49 89 cd             	mov    %rcx,%r13
    30a1:	4b 8b 0c 2e          	mov    (%r14,%r13,1),%rcx
    30a5:	44 89 fa             	mov    %r15d,%edx
    30a8:	4d 89 f7             	mov    %r14,%r15
    30ab:	49 89 0c 17          	mov    %rcx,(%r15,%rdx,1)
    30af:	44 8b bc 24 d0 00 00 	mov    0xd0(%rsp),%r15d
    30b6:	00 
    30b7:	41 83 c7 10          	add    $0x10,%r15d
    30bb:	44 89 fa             	mov    %r15d,%edx
    30be:	48 89 94 24 50 00 00 	mov    %rdx,0x50(%rsp)
    30c5:	00 
    30c6:	4d 89 f7             	mov    %r14,%r15
    30c9:	49 89 d6             	mov    %rdx,%r14
    30cc:	4b 89 0c 37          	mov    %rcx,(%r15,%r14,1)
    30d0:	44 8b bc 24 d0 00 00 	mov    0xd0(%rsp),%r15d
    30d7:	00 
    30d8:	41 83 c7 18          	add    $0x18,%r15d
    30dc:	44 89 f9             	mov    %r15d,%ecx
    30df:	48 89 8c 24 48 00 00 	mov    %rcx,0x48(%rsp)
    30e6:	00 
    30e7:	4c 8b bc 24 a8 00 00 	mov    0xa8(%rsp),%r15
    30ee:	00 
    30ef:	49 89 ce             	mov    %rcx,%r14
    30f2:	4b 89 04 37          	mov    %rax,(%r15,%r14,1)
    30f6:	44 8b bc 24 d0 00 00 	mov    0xd0(%rsp),%r15d
    30fd:	00 
    30fe:	41 83 c7 20          	add    $0x20,%r15d
    3102:	44 8b b4 24 d0 00 00 	mov    0xd0(%rsp),%r14d
    3109:	00 
    310a:	41 83 c6 60          	add    $0x60,%r14d
    310e:	44 89 f0             	mov    %r14d,%eax
    3111:	48 89 84 24 40 00 00 	mov    %rax,0x40(%rsp)
    3118:	00 
    3119:	4c 8b b4 24 a8 00 00 	mov    0xa8(%rsp),%r14
    3120:	00 
    3121:	49 89 c5             	mov    %rax,%r13
    3124:	4b 8b 04 2e          	mov    (%r14,%r13,1),%rax
    3128:	44 89 f9             	mov    %r15d,%ecx
    312b:	48 89 8c 24 38 00 00 	mov    %rcx,0x38(%rsp)
    3132:	00 
    3133:	4d 89 f7             	mov    %r14,%r15
    3136:	49 89 ce             	mov    %rcx,%r14
    3139:	4b 89 04 37          	mov    %rax,(%r15,%r14,1)
    313d:	44 8b bc 24 d0 00 00 	mov    0xd0(%rsp),%r15d
    3144:	00 
    3145:	41 83 c7 28          	add    $0x28,%r15d
    3149:	44 8b b4 24 d0 00 00 	mov    0xd0(%rsp),%r14d
    3150:	00 
    3151:	41 83 c6 68          	add    $0x68,%r14d
    3155:	44 89 f0             	mov    %r14d,%eax
    3158:	48 89 84 24 10 00 00 	mov    %rax,0x10(%rsp)
    315f:	00 
    3160:	4c 8b b4 24 a8 00 00 	mov    0xa8(%rsp),%r14
    3167:	00 
    3168:	49 89 c5             	mov    %rax,%r13
    316b:	4b 8b 04 2e          	mov    (%r14,%r13,1),%rax
    316f:	44 89 f9             	mov    %r15d,%ecx
    3172:	48 89 8c 24 18 00 00 	mov    %rcx,0x18(%rsp)
    3179:	00 
    317a:	4d 89 f7             	mov    %r14,%r15
    317d:	49 89 ce             	mov    %rcx,%r14
    3180:	4b 89 04 37          	mov    %rax,(%r15,%r14,1)
    3184:	44 8b bc 24 d0 00 00 	mov    0xd0(%rsp),%r15d
    318b:	00 
    318c:	41 83 c7 30          	add    $0x30,%r15d
    3190:	44 8b b4 24 d0 00 00 	mov    0xd0(%rsp),%r14d
    3197:	00 
    3198:	41 83 c6 70          	add    $0x70,%r14d
    319c:	44 89 f0             	mov    %r14d,%eax
    319f:	48 89 84 24 30 00 00 	mov    %rax,0x30(%rsp)
    31a6:	00 
    31a7:	4c 8b b4 24 a8 00 00 	mov    0xa8(%rsp),%r14
    31ae:	00 
    31af:	49 89 c5             	mov    %rax,%r13
    31b2:	4b 8b 04 2e          	mov    (%r14,%r13,1),%rax
    31b6:	44 89 f9             	mov    %r15d,%ecx
    31b9:	48 89 8c 24 08 00 00 	mov    %rcx,0x8(%rsp)
    31c0:	00 
    31c1:	4d 89 f7             	mov    %r14,%r15
    31c4:	49 89 ce             	mov    %rcx,%r14
    31c7:	4b 89 04 37          	mov    %rax,(%r15,%r14,1)
    31cb:	44 8b bc 24 d0 00 00 	mov    0xd0(%rsp),%r15d
    31d2:	00 
    31d3:	41 83 c7 38          	add    $0x38,%r15d
    31d7:	44 8b b4 24 d0 00 00 	mov    0xd0(%rsp),%r14d
    31de:	00 
    31df:	41 83 c6 78          	add    $0x78,%r14d
    31e3:	44 89 f0             	mov    %r14d,%eax
    31e6:	48 89 84 24 28 00 00 	mov    %rax,0x28(%rsp)
    31ed:	00 
    31ee:	4c 8b b4 24 a8 00 00 	mov    0xa8(%rsp),%r14
    31f5:	00 
    31f6:	49 89 c5             	mov    %rax,%r13
    31f9:	4b 8b 04 2e          	mov    (%r14,%r13,1),%rax
    31fd:	44 89 f9             	mov    %r15d,%ecx
    3200:	48 89 8c 24 20 00 00 	mov    %rcx,0x20(%rsp)
    3207:	00 
    3208:	4d 89 f7             	mov    %r14,%r15
    320b:	49 89 ce             	mov    %rcx,%r14
    320e:	4b 89 04 37          	mov    %rax,(%r15,%r14,1)
    3212:	4c 8b bc 24 70 00 00 	mov    0x70(%rsp),%r15
    3219:	00 
    321a:	4c 8b b4 24 a8 00 00 	mov    0xa8(%rsp),%r14
    3221:	00 
    3222:	4c 8b ac 24 78 00 00 	mov    0x78(%rsp),%r13
    3229:	00 
    322a:	4f 89 3c 2e          	mov    %r15,(%r14,%r13,1)
    322e:	4c 8b bc 24 68 00 00 	mov    0x68(%rsp),%r15
    3235:	00 
    3236:	4f 89 7c 2e 08       	mov    %r15,0x8(%r14,%r13,1)
    323b:	44 8b bc 24 e4 00 00 	mov    0xe4(%rsp),%r15d
    3242:	00 
    3243:	41 83 c7 20          	add    $0x20,%r15d
    3247:	44 89 bc 24 b8 00 00 	mov    %r15d,0xb8(%rsp)
    324e:	00 
    324f:	44 8b bc 24 e0 00 00 	mov    0xe0(%rsp),%r15d
    3256:	00 
    3257:	41 83 c7 e0          	add    $0xffffffe0,%r15d
    325b:	44 89 bc 24 b4 00 00 	mov    %r15d,0xb4(%rsp)
    3262:	00 
    3263:	41 83 ff 41          	cmp    $0x41,%r15d
    3267:	0f 82 ba 01 00 00    	jb     3427 <guest_func_blake2b_long+0xe97>
    326d:	44 8b bc 24 c0 00 00 	mov    0xc0(%rsp),%r15d
    3274:	00 
    3275:	44 89 bc 24 00 00 00 	mov    %r15d,0x0(%rsp)
    327c:	00 
    327d:	44 8b bc 24 d4 00 00 	mov    0xd4(%rsp),%r15d
    3284:	00 
    3285:	4c 8b b4 24 a8 00 00 	mov    0xa8(%rsp),%r14
    328c:	00 
    328d:	44 8b ac 24 bc 00 00 	mov    0xbc(%rsp),%r13d
    3294:	00 
    3295:	44 8b a4 24 c0 00 00 	mov    0xc0(%rsp),%r12d
    329c:	00 
    329d:	45 89 fb             	mov    %r15d,%r11d
    32a0:	44 8b 94 24 d0 00 00 	mov    0xd0(%rsp),%r10d
    32a7:	00 
    32a8:	4c 89 f7             	mov    %r14,%rdi
    32ab:	44 89 ee             	mov    %r13d,%esi
    32ae:	44 89 e2             	mov    %r12d,%edx
    32b1:	44 89 d9             	mov    %r11d,%ecx
    32b4:	45 89 f8             	mov    %r15d,%r8d
    32b7:	45 89 d1             	mov    %r10d,%r9d
    32ba:	e8 81 1f 00 00       	callq  5240 <guest_func_blake2b>
    32bf:	83 f8 00             	cmp    $0x0,%eax
    32c2:	7d 0d                	jge    32d1 <guest_func_blake2b_long+0xd41>
    32c4:	b8 ff ff ff ff       	mov    $0xffffffff,%eax
    32c9:	41 89 c7             	mov    %eax,%r15d
    32cc:	e9 09 02 00 00       	jmpq   34da <guest_func_blake2b_long+0xf4a>
    32d1:	4c 8b bc 24 a8 00 00 	mov    0xa8(%rsp),%r15
    32d8:	00 
    32d9:	4c 8b b4 24 78 00 00 	mov    0x78(%rsp),%r14
    32e0:	00 
    32e1:	4b 8b 44 37 40       	mov    0x40(%r15,%r14,1),%rax
    32e6:	44 8b bc 24 b8 00 00 	mov    0xb8(%rsp),%r15d
    32ed:	00 
    32ee:	44 89 f9             	mov    %r15d,%ecx
    32f1:	4c 8b bc 24 a8 00 00 	mov    0xa8(%rsp),%r15
    32f8:	00 
    32f9:	49 89 04 0f          	mov    %rax,(%r15,%rcx,1)
    32fd:	44 8b bc 24 b8 00 00 	mov    0xb8(%rsp),%r15d
    3304:	00 
    3305:	41 83 c7 08          	add    $0x8,%r15d
    3309:	4c 8b b4 24 a8 00 00 	mov    0xa8(%rsp),%r14
    3310:	00 
    3311:	4c 8b ac 24 78 00 00 	mov    0x78(%rsp),%r13
    3318:	00 
    3319:	4b 8b 4c 2e 48       	mov    0x48(%r14,%r13,1),%rcx
    331e:	44 89 fa             	mov    %r15d,%edx
    3321:	4d 89 f7             	mov    %r14,%r15
    3324:	49 89 0c 17          	mov    %rcx,(%r15,%rdx,1)
    3328:	44 8b bc 24 b8 00 00 	mov    0xb8(%rsp),%r15d
    332f:	00 
    3330:	41 83 c7 10          	add    $0x10,%r15d
    3334:	4c 8b ac 24 58 00 00 	mov    0x58(%rsp),%r13
    333b:	00 
    333c:	4b 8b 14 2e          	mov    (%r14,%r13,1),%rdx
    3340:	44 89 fb             	mov    %r15d,%ebx
    3343:	4d 89 f7             	mov    %r14,%r15
    3346:	49 89 14 1f          	mov    %rdx,(%r15,%rbx,1)
    334a:	44 8b bc 24 b8 00 00 	mov    0xb8(%rsp),%r15d
    3351:	00 
    3352:	41 83 c7 18          	add    $0x18,%r15d
    3356:	4c 8b ac 24 60 00 00 	mov    0x60(%rsp),%r13
    335d:	00 
    335e:	4b 8b 1c 2e          	mov    (%r14,%r13,1),%rbx
    3362:	44 89 fe             	mov    %r15d,%esi
    3365:	4d 89 f7             	mov    %r14,%r15
    3368:	49 89 1c 37          	mov    %rbx,(%r15,%rsi,1)
    336c:	4c 8b b4 24 50 00 00 	mov    0x50(%rsp),%r14
    3373:	00 
    3374:	4b 89 14 37          	mov    %rdx,(%r15,%r14,1)
    3378:	4c 8b b4 24 48 00 00 	mov    0x48(%rsp),%r14
    337f:	00 
    3380:	4b 89 1c 37          	mov    %rbx,(%r15,%r14,1)
    3384:	4c 8b b4 24 40 00 00 	mov    0x40(%rsp),%r14
    338b:	00 
    338c:	4b 8b 14 37          	mov    (%r15,%r14,1),%rdx
    3390:	4c 8b b4 24 38 00 00 	mov    0x38(%rsp),%r14
    3397:	00 
    3398:	4b 89 14 37          	mov    %rdx,(%r15,%r14,1)
    339c:	4c 8b b4 24 10 00 00 	mov    0x10(%rsp),%r14
    33a3:	00 
    33a4:	4b 8b 14 37          	mov    (%r15,%r14,1),%rdx
    33a8:	4c 8b b4 24 18 00 00 	mov    0x18(%rsp),%r14
    33af:	00 
    33b0:	4b 89 14 37          	mov    %rdx,(%r15,%r14,1)
    33b4:	4c 8b b4 24 30 00 00 	mov    0x30(%rsp),%r14
    33bb:	00 
    33bc:	4b 8b 14 37          	mov    (%r15,%r14,1),%rdx
    33c0:	4c 8b b4 24 08 00 00 	mov    0x8(%rsp),%r14
    33c7:	00 
    33c8:	4b 89 14 37          	mov    %rdx,(%r15,%r14,1)
    33cc:	4c 8b b4 24 28 00 00 	mov    0x28(%rsp),%r14
    33d3:	00 
    33d4:	4b 8b 14 37          	mov    (%r15,%r14,1),%rdx
    33d8:	4c 8b b4 24 20 00 00 	mov    0x20(%rsp),%r14
    33df:	00 
    33e0:	4b 89 14 37          	mov    %rdx,(%r15,%r14,1)
    33e4:	4c 8b b4 24 78 00 00 	mov    0x78(%rsp),%r14
    33eb:	00 
    33ec:	4b 89 04 37          	mov    %rax,(%r15,%r14,1)
    33f0:	4b 89 4c 37 08       	mov    %rcx,0x8(%r15,%r14,1)
    33f5:	44 8b bc 24 b8 00 00 	mov    0xb8(%rsp),%r15d
    33fc:	00 
    33fd:	41 83 c7 20          	add    $0x20,%r15d
    3401:	44 89 bc 24 b8 00 00 	mov    %r15d,0xb8(%rsp)
    3408:	00 
    3409:	44 8b bc 24 b4 00 00 	mov    0xb4(%rsp),%r15d
    3410:	00 
    3411:	41 83 c7 e0          	add    $0xffffffe0,%r15d
    3415:	44 89 bc 24 b4 00 00 	mov    %r15d,0xb4(%rsp)
    341c:	00 
    341d:	41 83 ff 40          	cmp    $0x40,%r15d
    3421:	0f 87 46 fe ff ff    	ja     326d <guest_func_blake2b_long+0xcdd>
    3427:	44 8b bc 24 d0 00 00 	mov    0xd0(%rsp),%r15d
    342e:	00 
    342f:	41 83 c7 40          	add    $0x40,%r15d
    3433:	44 89 bc 24 b0 00 00 	mov    %r15d,0xb0(%rsp)
    343a:	00 
    343b:	44 8b bc 24 c0 00 00 	mov    0xc0(%rsp),%r15d
    3442:	00 
    3443:	44 89 bc 24 00 00 00 	mov    %r15d,0x0(%rsp)
    344a:	00 
    344b:	44 8b bc 24 d4 00 00 	mov    0xd4(%rsp),%r15d
    3452:	00 
    3453:	4c 8b b4 24 a8 00 00 	mov    0xa8(%rsp),%r14
    345a:	00 
    345b:	44 8b ac 24 b0 00 00 	mov    0xb0(%rsp),%r13d
    3462:	00 
    3463:	44 8b a4 24 b4 00 00 	mov    0xb4(%rsp),%r12d
    346a:	00 
    346b:	45 89 fb             	mov    %r15d,%r11d
    346e:	44 8b 94 24 d0 00 00 	mov    0xd0(%rsp),%r10d
    3475:	00 
    3476:	4c 89 f7             	mov    %r14,%rdi
    3479:	44 89 ee             	mov    %r13d,%esi
    347c:	44 89 e2             	mov    %r12d,%edx
    347f:	44 89 d9             	mov    %r11d,%ecx
    3482:	45 89 f8             	mov    %r15d,%r8d
    3485:	45 89 d1             	mov    %r10d,%r9d
    3488:	e8 b3 1d 00 00       	callq  5240 <guest_func_blake2b>
    348d:	83 f8 00             	cmp    $0x0,%eax
    3490:	7d 0a                	jge    349c <guest_func_blake2b_long+0xf0c>
    3492:	b8 ff ff ff ff       	mov    $0xffffffff,%eax
    3497:	41 89 c7             	mov    %eax,%r15d
    349a:	eb 3e                	jmp    34da <guest_func_blake2b_long+0xf4a>
    349c:	4c 8b bc 24 a8 00 00 	mov    0xa8(%rsp),%r15
    34a3:	00 
    34a4:	44 8b b4 24 b8 00 00 	mov    0xb8(%rsp),%r14d
    34ab:	00 
    34ac:	44 8b ac 24 b0 00 00 	mov    0xb0(%rsp),%r13d
    34b3:	00 
    34b4:	44 8b a4 24 b4 00 00 	mov    0xb4(%rsp),%r12d
    34bb:	00 
    34bc:	4c 89 ff             	mov    %r15,%rdi
    34bf:	44 89 f6             	mov    %r14d,%esi
    34c2:	44 89 ea             	mov    %r13d,%edx
    34c5:	44 89 e1             	mov    %r12d,%ecx
    34c8:	e8 33 ea ff ff       	callq  1f00 <guest_func_memcpy>
    34cd:	44 8b bc 24 d4 00 00 	mov    0xd4(%rsp),%r15d
    34d4:	00 
    34d5:	eb 03                	jmp    34da <guest_func_blake2b_long+0xf4a>
    34d7:	41 89 cf             	mov    %ecx,%r15d
    34da:	44 8b b4 24 d0 00 00 	mov    0xd0(%rsp),%r14d
    34e1:	00 
    34e2:	41 81 c6 60 01 00 00 	add    $0x160,%r14d
    34e9:	4c 8b ac 24 a8 00 00 	mov    0xa8(%rsp),%r13
    34f0:	00 
    34f1:	49 8b 45 f0          	mov    -0x10(%r13),%rax
    34f5:	0f ae e8             	lfence 
    34f8:	44 89 30             	mov    %r14d,(%rax)
    34fb:	44 89 f8             	mov    %r15d,%eax
    34fe:	48 81 c4 e8 00 00 00 	add    $0xe8,%rsp
    3505:	41 5f                	pop    %r15
    3507:	41 5e                	pop    %r14
    3509:	41 5d                	pop    %r13
    350b:	41 5c                	pop    %r12
    350d:	5b                   	pop    %rbx
    350e:	5d                   	pop    %rbp
    350f:	c3                   	retq   

0000000000003510 <guest_func_free>:
    3510:	55                   	push   %rbp
    3511:	48 89 e5             	mov    %rsp,%rbp
    3514:	e8 97 24 00 00       	callq  59b0 <guest_func_11>
    3519:	5d                   	pop    %rbp
    351a:	c3                   	retq   
    351b:	00 00                	add    %al,(%rax)
    351d:	00 00                	add    %al,(%rax)
	...

0000000000003520 <guest_func___main_argc_argv>:
    3520:	55                   	push   %rbp
    3521:	48 89 e5             	mov    %rsp,%rbp
    3524:	41 54                	push   %r12
    3526:	41 55                	push   %r13
    3528:	41 56                	push   %r14
    352a:	41 57                	push   %r15
    352c:	48 83 ec 40          	sub    $0x40,%rsp
    3530:	48 89 bc 24 10 00 00 	mov    %rdi,0x10(%rsp)
    3537:	00 
    3538:	89 94 24 3c 00 00 00 	mov    %edx,0x3c(%rsp)
    353f:	31 c0                	xor    %eax,%eax
    3541:	89 84 24 38 00 00 00 	mov    %eax,0x38(%rsp)
    3548:	49 89 ff             	mov    %rdi,%r15
    354b:	49 8b 47 f0          	mov    -0x10(%r15),%rax
    354f:	0f ae e8             	lfence 
    3552:	8b 00                	mov    (%rax),%eax
    3554:	89 84 24 34 00 00 00 	mov    %eax,0x34(%rsp)
    355b:	41 89 c7             	mov    %eax,%r15d
    355e:	0f ae e8             	lfence 
    3561:	41 81 c7 10 fa ff ff 	add    $0xfffffa10,%r15d
    3568:	44 89 bc 24 30 00 00 	mov    %r15d,0x30(%rsp)
    356f:	00 
    3570:	49 89 ff             	mov    %rdi,%r15
    3573:	49 8b 47 f0          	mov    -0x10(%r15),%rax
    3577:	44 8b bc 24 30 00 00 	mov    0x30(%rsp),%r15d
    357e:	00 
    357f:	0f ae e8             	lfence 
    3582:	44 89 38             	mov    %r15d,(%rax)
    3585:	b8 20 00 00 00       	mov    $0x20,%eax
    358a:	89 84 24 2c 00 00 00 	mov    %eax,0x2c(%rsp)
    3591:	b8 01 00 00 00       	mov    $0x1,%eax
    3596:	49 89 ff             	mov    %rdi,%r15
    3599:	44 8b b4 24 2c 00 00 	mov    0x2c(%rsp),%r14d
    35a0:	00 
    35a1:	4c 89 ff             	mov    %r15,%rdi
    35a4:	44 89 f6             	mov    %r14d,%esi
    35a7:	40 89 c2             	rex mov %eax,%edx
    35aa:	e8 01 23 00 00       	callq  58b0 <guest_func_calloc>
    35af:	89 84 24 24 00 00 00 	mov    %eax,0x24(%rsp)
    35b6:	b8 00 02 00 00       	mov    $0x200,%eax
    35bb:	89 84 24 28 00 00 00 	mov    %eax,0x28(%rsp)
    35c2:	44 8b bc 24 34 00 00 	mov    0x34(%rsp),%r15d
    35c9:	00 
    35ca:	41 81 c7 10 fc ff ff 	add    $0xfffffc10,%r15d
    35d1:	44 8b b4 24 3c 00 00 	mov    0x3c(%rsp),%r14d
    35d8:	00 
    35d9:	44 89 f0             	mov    %r14d,%eax
    35dc:	48 89 84 24 08 00 00 	mov    %rax,0x8(%rsp)
    35e3:	00 
    35e4:	4c 8b b4 24 10 00 00 	mov    0x10(%rsp),%r14
    35eb:	00 
    35ec:	49 89 c5             	mov    %rax,%r13
    35ef:	43 8b 44 2e 04       	mov    0x4(%r14,%r13,1),%eax
    35f4:	b9 e8 03 00 00       	mov    $0x3e8,%ecx
    35f9:	4c 89 f7             	mov    %r14,%rdi
    35fc:	44 89 fe             	mov    %r15d,%esi
    35ff:	40 89 c2             	rex mov %eax,%edx
    3602:	0f ae e8             	lfence 
    3605:	e8 f6 e8 ff ff       	callq  1f00 <guest_func_memcpy>
    360a:	4c 8b bc 24 10 00 00 	mov    0x10(%rsp),%r15
    3611:	00 
    3612:	4c 8b b4 24 08 00 00 	mov    0x8(%rsp),%r14
    3619:	00 
    361a:	43 8b 44 37 08       	mov    0x8(%r15,%r14,1),%eax
    361f:	0f ae e8             	lfence 
    3622:	44 8b b4 24 30 00 00 	mov    0x30(%rsp),%r14d
    3629:	00 
    362a:	44 8b ac 24 28 00 00 	mov    0x28(%rsp),%r13d
    3631:	00 
    3632:	4c 89 ff             	mov    %r15,%rdi
    3635:	44 89 f6             	mov    %r14d,%esi
    3638:	40 89 c2             	rex mov %eax,%edx
    363b:	44 89 e9             	mov    %r13d,%ecx
    363e:	e8 bd e8 ff ff       	callq  1f00 <guest_func_memcpy>
    3643:	89 84 24 20 00 00 00 	mov    %eax,0x20(%rsp)
    364a:	41 89 c7             	mov    %eax,%r15d
    364d:	41 81 c7 00 02 00 00 	add    $0x200,%r15d
    3654:	44 89 bc 24 1c 00 00 	mov    %r15d,0x1c(%rsp)
    365b:	00 
    365c:	4c 8b bc 24 10 00 00 	mov    0x10(%rsp),%r15
    3663:	00 
    3664:	41 89 c6             	mov    %eax,%r14d
    3667:	4c 89 ff             	mov    %r15,%rdi
    366a:	44 89 f6             	mov    %r14d,%esi
    366d:	e8 2e 1b 00 00       	callq  51a0 <guest_func_strlen>
    3672:	89 84 24 18 00 00 00 	mov    %eax,0x18(%rsp)
    3679:	4c 8b bc 24 10 00 00 	mov    0x10(%rsp),%r15
    3680:	00 
    3681:	44 8b b4 24 1c 00 00 	mov    0x1c(%rsp),%r14d
    3688:	00 
    3689:	4c 89 ff             	mov    %r15,%rdi
    368c:	44 89 f6             	mov    %r14d,%esi
    368f:	e8 0c 1b 00 00       	callq  51a0 <guest_func_strlen>
    3694:	89 84 24 00 00 00 00 	mov    %eax,0x0(%rsp)
    369b:	4c 8b bc 24 10 00 00 	mov    0x10(%rsp),%r15
    36a2:	00 
    36a3:	44 8b b4 24 24 00 00 	mov    0x24(%rsp),%r14d
    36aa:	00 
    36ab:	44 8b ac 24 2c 00 00 	mov    0x2c(%rsp),%r13d
    36b2:	00 
    36b3:	44 8b a4 24 20 00 00 	mov    0x20(%rsp),%r12d
    36ba:	00 
    36bb:	44 8b 9c 24 18 00 00 	mov    0x18(%rsp),%r11d
    36c2:	00 
    36c3:	44 8b 94 24 1c 00 00 	mov    0x1c(%rsp),%r10d
    36ca:	00 
    36cb:	4c 89 ff             	mov    %r15,%rdi
    36ce:	44 89 f6             	mov    %r14d,%esi
    36d1:	44 89 ea             	mov    %r13d,%edx
    36d4:	44 89 e1             	mov    %r12d,%ecx
    36d7:	45 89 d8             	mov    %r11d,%r8d
    36da:	45 89 d1             	mov    %r10d,%r9d
    36dd:	e8 5e 1b 00 00       	callq  5240 <guest_func_blake2b>
    36e2:	44 8b bc 24 20 00 00 	mov    0x20(%rsp),%r15d
    36e9:	00 
    36ea:	41 81 c7 f0 05 00 00 	add    $0x5f0,%r15d
    36f1:	4c 8b b4 24 10 00 00 	mov    0x10(%rsp),%r14
    36f8:	00 
    36f9:	49 8b 46 f0          	mov    -0x10(%r14),%rax
    36fd:	0f ae e8             	lfence 
    3700:	44 89 38             	mov    %r15d,(%rax)
    3703:	44 8b bc 24 38 00 00 	mov    0x38(%rsp),%r15d
    370a:	00 
    370b:	44 89 f8             	mov    %r15d,%eax
    370e:	48 83 c4 40          	add    $0x40,%rsp
    3712:	41 5f                	pop    %r15
    3714:	41 5e                	pop    %r14
    3716:	41 5d                	pop    %r13
    3718:	41 5c                	pop    %r12
    371a:	5d                   	pop    %rbp
    371b:	c3                   	retq   
    371c:	00 00                	add    %al,(%rax)
	...

0000000000003720 <guest_func_blake2b_final>:
    3720:	55                   	push   %rbp
    3721:	48 89 e5             	mov    %rsp,%rbp
    3724:	53                   	push   %rbx
    3725:	41 54                	push   %r12
    3727:	41 55                	push   %r13
    3729:	41 56                	push   %r14
    372b:	41 57                	push   %r15
    372d:	48 83 ec 18          	sub    $0x18,%rsp
    3731:	48 89 bc 24 00 00 00 	mov    %rdi,0x0(%rsp)
    3738:	00 
    3739:	89 b4 24 0c 00 00 00 	mov    %esi,0xc(%rsp)
    3740:	89 94 24 14 00 00 00 	mov    %edx,0x14(%rsp)
    3747:	31 c0                	xor    %eax,%eax
    3749:	89 84 24 10 00 00 00 	mov    %eax,0x10(%rsp)
    3750:	41 89 f7             	mov    %esi,%r15d
    3753:	44 89 f8             	mov    %r15d,%eax
    3756:	49 89 ff             	mov    %rdi,%r15
    3759:	49 8b 8c 07 c0 00 00 	mov    0xc0(%r15,%rax,1),%rcx
    3760:	00 
    3761:	41 8b 94 07 d0 00 00 	mov    0xd0(%r15,%rax,1),%edx
    3768:	00 
    3769:	0f ae e8             	lfence 
    376c:	89 d3                	mov    %edx,%ebx
    376e:	48 89 ce             	mov    %rcx,%rsi
    3771:	48 01 de             	add    %rbx,%rsi
    3774:	49 89 b4 07 c0 00 00 	mov    %rsi,0xc0(%r15,%rax,1)
    377b:	00 
    377c:	48 39 ce             	cmp    %rcx,%rsi
    377f:	0f ae e8             	lfence 
    3782:	73 21                	jae    37a5 <guest_func_blake2b_final+0x85>
    3784:	44 8b bc 24 0c 00 00 	mov    0xc(%rsp),%r15d
    378b:	00 
    378c:	41 81 c7 c8 00 00 00 	add    $0xc8,%r15d
    3793:	44 89 f9             	mov    %r15d,%ecx
    3796:	49 89 ff             	mov    %rdi,%r15
    3799:	49 8b 1c 0f          	mov    (%r15,%rcx,1),%rbx
    379d:	48 83 c3 01          	add    $0x1,%rbx
    37a1:	49 89 1c 0f          	mov    %rbx,(%r15,%rcx,1)
    37a5:	83 fa 7f             	cmp    $0x7f,%edx
    37a8:	77 55                	ja     37ff <guest_func_blake2b_final+0xdf>
    37aa:	eb 03                	jmp    37af <guest_func_blake2b_final+0x8f>
    37ac:	40 89 ca             	rex mov %ecx,%edx
    37af:	89 d1                	mov    %edx,%ecx
    37b1:	83 c1 01             	add    $0x1,%ecx
    37b4:	4c 8b bc 24 00 00 00 	mov    0x0(%rsp),%r15
    37bb:	00 
    37bc:	41 89 8c 07 d0 00 00 	mov    %ecx,0xd0(%r15,%rax,1)
    37c3:	00 
    37c4:	44 8b bc 24 0c 00 00 	mov    0xc(%rsp),%r15d
    37cb:	00 
    37cc:	41 01 d7             	add    %edx,%r15d
    37cf:	44 89 f9             	mov    %r15d,%ecx
    37d2:	44 8b bc 24 10 00 00 	mov    0x10(%rsp),%r15d
    37d9:	00 
    37da:	4c 8b b4 24 00 00 00 	mov    0x0(%rsp),%r14
    37e1:	00 
    37e2:	44 89 fa             	mov    %r15d,%edx
    37e5:	41 88 14 0e          	mov    %dl,(%r14,%rcx,1)
    37e9:	4d 89 f7             	mov    %r14,%r15
    37ec:	41 8b 8c 07 d0 00 00 	mov    0xd0(%r15,%rax,1),%ecx
    37f3:	00 
    37f4:	0f ae e8             	lfence 
    37f7:	81 f9 80 00 00 00    	cmp    $0x80,%ecx
    37fd:	72 ad                	jb     37ac <guest_func_blake2b_final+0x8c>
    37ff:	b8 01 00 00 00       	mov    $0x1,%eax
    3804:	4c 8b bc 24 00 00 00 	mov    0x0(%rsp),%r15
    380b:	00 
    380c:	44 8b b4 24 0c 00 00 	mov    0xc(%rsp),%r14d
    3813:	00 
    3814:	4c 89 ff             	mov    %r15,%rdi
    3817:	44 89 f6             	mov    %r14d,%esi
    381a:	40 89 c2             	rex mov %eax,%edx
    381d:	e8 ae d4 ff ff       	callq  cd0 <guest_func_2>
    3822:	44 8b bc 24 0c 00 00 	mov    0xc(%rsp),%r15d
    3829:	00 
    382a:	44 89 f8             	mov    %r15d,%eax
    382d:	4c 8b bc 24 00 00 00 	mov    0x0(%rsp),%r15
    3834:	00 
    3835:	41 8b 8c 07 d4 00 00 	mov    0xd4(%r15,%rax,1),%ecx
    383c:	00 
    383d:	0f ae e8             	lfence 
    3840:	85 c9                	test   %ecx,%ecx
    3842:	0f 84 80 00 00 00    	je     38c8 <guest_func_blake2b_final+0x1a8>
    3848:	44 8b bc 24 10 00 00 	mov    0x10(%rsp),%r15d
    384f:	00 
    3850:	45 89 fe             	mov    %r15d,%r14d
    3853:	eb 06                	jmp    385b <guest_func_blake2b_final+0x13b>
    3855:	41 89 d7             	mov    %edx,%r15d
    3858:	41 89 ce             	mov    %ecx,%r14d
    385b:	44 8b ac 24 14 00 00 	mov    0x14(%rsp),%r13d
    3862:	00 
    3863:	45 01 fd             	add    %r15d,%r13d
    3866:	44 89 f9             	mov    %r15d,%ecx
    3869:	83 e1 f8             	and    $0xfffffff8,%ecx
    386c:	44 8b a4 24 0c 00 00 	mov    0xc(%rsp),%r12d
    3873:	00 
    3874:	44 01 e1             	add    %r12d,%ecx
    3877:	81 c1 80 00 00 00    	add    $0x80,%ecx
    387d:	89 c9                	mov    %ecx,%ecx
    387f:	4c 8b a4 24 00 00 00 	mov    0x0(%rsp),%r12
    3886:	00 
    3887:	49 8b 0c 0c          	mov    (%r12,%rcx,1),%rcx
    388b:	44 89 f2             	mov    %r14d,%edx
    388e:	83 e2 38             	and    $0x38,%edx
    3891:	89 d2                	mov    %edx,%edx
    3893:	48 89 cb             	mov    %rcx,%rbx
    3896:	48 89 d1             	mov    %rdx,%rcx
    3899:	48 89 da             	mov    %rbx,%rdx
    389c:	48 d3 ea             	shr    %cl,%rdx
    389f:	44 89 e9             	mov    %r13d,%ecx
    38a2:	4d 89 e5             	mov    %r12,%r13
    38a5:	41 88 54 0d 00       	mov    %dl,0x0(%r13,%rcx,1)
    38aa:	44 89 f1             	mov    %r14d,%ecx
    38ad:	83 c1 08             	add    $0x8,%ecx
    38b0:	44 89 fa             	mov    %r15d,%edx
    38b3:	83 c2 01             	add    $0x1,%edx
    38b6:	4d 89 e7             	mov    %r12,%r15
    38b9:	41 8b 9c 07 d4 00 00 	mov    0xd4(%r15,%rax,1),%ebx
    38c0:	00 
    38c1:	39 da                	cmp    %ebx,%edx
    38c3:	0f ae e8             	lfence 
    38c6:	72 8d                	jb     3855 <guest_func_blake2b_final+0x135>
    38c8:	44 8b bc 24 10 00 00 	mov    0x10(%rsp),%r15d
    38cf:	00 
    38d0:	44 89 f8             	mov    %r15d,%eax
    38d3:	48 83 c4 18          	add    $0x18,%rsp
    38d7:	41 5f                	pop    %r15
    38d9:	41 5e                	pop    %r14
    38db:	41 5d                	pop    %r13
    38dd:	41 5c                	pop    %r12
    38df:	5b                   	pop    %rbx
    38e0:	5d                   	pop    %rbp
    38e1:	c3                   	retq   
	...

00000000000038f0 <guest_func_blake2b_update>:
    38f0:	55                   	push   %rbp
    38f1:	48 89 e5             	mov    %rsp,%rbp
    38f4:	53                   	push   %rbx
    38f5:	41 55                	push   %r13
    38f7:	41 56                	push   %r14
    38f9:	41 57                	push   %r15
    38fb:	48 83 ec 20          	sub    $0x20,%rsp
    38ff:	48 89 bc 24 08 00 00 	mov    %rdi,0x8(%rsp)
    3906:	00 
    3907:	89 b4 24 18 00 00 00 	mov    %esi,0x18(%rsp)
    390e:	89 94 24 14 00 00 00 	mov    %edx,0x14(%rsp)
    3915:	89 8c 24 10 00 00 00 	mov    %ecx,0x10(%rsp)
    391c:	31 c0                	xor    %eax,%eax
    391e:	89 84 24 1c 00 00 00 	mov    %eax,0x1c(%rsp)
    3925:	41 89 cf             	mov    %ecx,%r15d
    3928:	45 85 ff             	test   %r15d,%r15d
    392b:	0f 84 38 01 00 00    	je     3a69 <guest_func_blake2b_update+0x179> //for
    3931:	44 8b bc 24 18 00 00 	mov    0x18(%rsp),%r15d
    3938:	00 
    3939:	44 89 f8             	mov    %r15d,%eax
    393c:	48 89 84 24 00 00 00 	mov    %rax,0x0(%rsp)
    3943:	00 
    3944:	4c 8b bc 24 08 00 00 	mov    0x8(%rsp),%r15
    394b:	00 
    394c:	49 89 c6             	mov    %rax,%r14
    394f:	43 8b 84 37 d0 00 00 	mov    0xd0(%r15,%r14,1),%eax
    3956:	00 
    3957:	0f ae e8             	lfence 
    395a:	81 f8 80 00 00 00    	cmp    $0x80,%eax
    3960:	0f 85 80 00 00 00    	jne    39e6 <guest_func_blake2b_update+0xf6> // 1ยบ if
    3966:	4b 8b 84 37 c0 00 00 	mov    0xc0(%r15,%r14,1),%rax
    396d:	00 
    396e:	48 89 c1             	mov    %rax,%rcx
    3971:	48 81 c1 80 00 00 00 	add    $0x80,%rcx
    3978:	4b 89 8c 37 c0 00 00 	mov    %rcx,0xc0(%r15,%r14,1)
    397f:	00 
    3980:	48 83 f8 80          	cmp    $0xffffffffffffff80,%rax
    3984:	0f ae e8             	lfence 
    3987:	72 14                	jb     399d <guest_func_blake2b_update+0xad> // 2ยบ if
    3989:	4b 8b 84 37 c8 00 00 	mov    0xc8(%r15,%r14,1),%rax
    3990:	00 
    3991:	48 83 c0 01          	add    $0x1,%rax
    3995:	4b 89 84 37 c8 00 00 	mov    %rax,0xc8(%r15,%r14,1)
    399c:	00 
    399d:	4c 8b bc 24 08 00 00 	mov    0x8(%rsp),%r15
    39a4:	00 
    39a5:	44 8b b4 24 18 00 00 	mov    0x18(%rsp),%r14d
    39ac:	00 
    39ad:	44 8b ac 24 1c 00 00 	mov    0x1c(%rsp),%r13d
    39b4:	00 
    39b5:	4c 89 ff             	mov    %r15,%rdi
    39b8:	44 89 f6             	mov    %r14d,%esi
    39bb:	44 89 ea             	mov    %r13d,%edx
    39be:	e8 0d d3 ff ff       	callq  cd0 <guest_func_2>
    39c3:	44 8b bc 24 1c 00 00 	mov    0x1c(%rsp),%r15d
    39ca:	00 
    39cb:	4c 8b b4 24 08 00 00 	mov    0x8(%rsp),%r14
    39d2:	00 
    39d3:	4c 8b ac 24 00 00 00 	mov    0x0(%rsp),%r13
    39da:	00 
    39db:	47 89 bc 2e d0 00 00 	mov    %r15d,0xd0(%r14,%r13,1)
    39e2:	00 
    39e3:	44 89 f8             	mov    %r15d,%eax
    39e6:	44 8b bc 24 14 00 00 	mov    0x14(%rsp),%r15d
    39ed:	00 
    39ee:	44 89 f9             	mov    %r15d,%ecx
    39f1:	4c 8b bc 24 08 00 00 	mov    0x8(%rsp),%r15
    39f8:	00 
    39f9:	41 0f b6 0c 0f       	movzbl (%r15,%rcx,1),%ecx
    39fe:	89 c2                	mov    %eax,%edx
    3a00:	83 c2 01             	add    $0x1,%edx
    3a03:	44 8b bc 24 18 00 00 	mov    0x18(%rsp),%r15d
    3a0a:	00 
    3a0b:	44 89 fb             	mov    %r15d,%ebx
    3a0e:	4c 8b bc 24 08 00 00 	mov    0x8(%rsp),%r15
    3a15:	00 
    3a16:	41 89 94 1f d0 00 00 	mov    %edx,0xd0(%r15,%rbx,1)
    3a1d:	00 
    3a1e:	44 8b bc 24 18 00 00 	mov    0x18(%rsp),%r15d
    3a25:	00 
    3a26:	41 01 c7             	add    %eax,%r15d
    3a29:	44 89 f8             	mov    %r15d,%eax
    3a2c:	4c 8b bc 24 08 00 00 	mov    0x8(%rsp),%r15
    3a33:	00 
    3a34:	41 88 0c 07          	mov    %cl,(%r15,%rax,1)
    3a38:	44 8b bc 24 14 00 00 	mov    0x14(%rsp),%r15d
    3a3f:	00 
    3a40:	41 83 c7 01          	add    $0x1,%r15d
    3a44:	44 89 bc 24 14 00 00 	mov    %r15d,0x14(%rsp)
    3a4b:	00 
    3a4c:	44 8b bc 24 10 00 00 	mov    0x10(%rsp),%r15d
    3a53:	00 
    3a54:	41 83 c7 ff          	add    $0xffffffff,%r15d
    3a58:	44 89 bc 24 10 00 00 	mov    %r15d,0x10(%rsp)
    3a5f:	00 
    3a60:	45 85 ff             	test   %r15d,%r15d
    3a63:	0f 85 c8 fe ff ff    	jne    3931 <guest_func_blake2b_update+0x41>
    3a69:	44 8b bc 24 1c 00 00 	mov    0x1c(%rsp),%r15d
    3a70:	00 
    3a71:	44 89 f8             	mov    %r15d,%eax
    3a74:	48 83 c4 20          	add    $0x20,%rsp
    3a78:	41 5f                	pop    %r15
    3a7a:	41 5e                	pop    %r14
    3a7c:	41 5d                	pop    %r13
    3a7e:	5b                   	pop    %rbx
    3a7f:	5d                   	pop    %rbp
    3a80:	c3                   	retq   
	...

0000000000003a90 <guest_func_realloc>:
    3a90:	55                   	push   %rbp
    3a91:	48 89 e5             	mov    %rsp,%rbp
    3a94:	53                   	push   %rbx
    3a95:	41 54                	push   %r12
    3a97:	41 55                	push   %r13
    3a99:	41 56                	push   %r14
    3a9b:	41 57                	push   %r15
    3a9d:	48 83 ec 28          	sub    $0x28,%rsp
    3aa1:	48 89 bc 24 00 00 00 	mov    %rdi,0x0(%rsp)
    3aa8:	00 
    3aa9:	89 b4 24 24 00 00 00 	mov    %esi,0x24(%rsp)
    3ab0:	89 94 24 20 00 00 00 	mov    %edx,0x20(%rsp)
    3ab7:	31 c0                	xor    %eax,%eax
    3ab9:	89 84 24 1c 00 00 00 	mov    %eax,0x1c(%rsp)
    3ac0:	41 89 f7             	mov    %esi,%r15d
    3ac3:	45 85 ff             	test   %r15d,%r15d
    3ac6:	75 20                	jne    3ae8 <guest_func_realloc+0x58>
    3ac8:	49 89 ff             	mov    %rdi,%r15
    3acb:	41 89 d6             	mov    %edx,%r14d
    3ace:	4c 89 ff             	mov    %r15,%rdi
    3ad1:	44 89 f6             	mov    %r14d,%esi
    3ad4:	e8 37 28 00 00       	callq  6310 <guest_func_9>
    3ad9:	48 83 c4 28          	add    $0x28,%rsp
    3add:	41 5f                	pop    %r15
    3adf:	41 5e                	pop    %r14
    3ae1:	41 5d                	pop    %r13
    3ae3:	41 5c                	pop    %r12
    3ae5:	5b                   	pop    %rbx
    3ae6:	5d                   	pop    %rbp
    3ae7:	c3                   	retq   
    3ae8:	41 89 d7             	mov    %edx,%r15d
    3aeb:	41 83 ff c0          	cmp    $0xffffffc0,%r15d
    3aef:	72 2d                	jb     3b1e <guest_func_realloc+0x8e>
    3af1:	b8 f0 06 00 00       	mov    $0x6f0,%eax
    3af6:	b9 30 00 00 00       	mov    $0x30,%ecx
    3afb:	89 c0                	mov    %eax,%eax
    3afd:	49 89 ff             	mov    %rdi,%r15
    3b00:	41 89 0c 07          	mov    %ecx,(%r15,%rax,1)
    3b04:	44 8b bc 24 1c 00 00 	mov    0x1c(%rsp),%r15d
    3b0b:	00 
    3b0c:	44 89 f8             	mov    %r15d,%eax
    3b0f:	48 83 c4 28          	add    $0x28,%rsp
    3b13:	41 5f                	pop    %r15
    3b15:	41 5e                	pop    %r14
    3b17:	41 5d                	pop    %r13
    3b19:	41 5c                	pop    %r12
    3b1b:	5b                   	pop    %rbx
    3b1c:	5d                   	pop    %rbp
    3b1d:	c3                   	retq   
    3b1e:	41 83 ff 0b          	cmp    $0xb,%r15d
    3b22:	0f 92 c0             	setb   %al
    3b25:	41 83 c7 13          	add    $0x13,%r15d
    3b29:	44 89 f9             	mov    %r15d,%ecx
    3b2c:	83 e1 f0             	and    $0xfffffff0,%ecx
    3b2f:	ba f8 ff ff ff       	mov    $0xfffffff8,%edx
    3b34:	89 94 24 14 00 00 00 	mov    %edx,0x14(%rsp)
    3b3b:	41 89 f7             	mov    %esi,%r15d
    3b3e:	41 83 c7 f8          	add    $0xfffffff8,%r15d
    3b42:	44 89 bc 24 18 00 00 	mov    %r15d,0x18(%rsp)
    3b49:	00 
    3b4a:	ba fc ff ff ff       	mov    $0xfffffffc,%edx
    3b4f:	89 94 24 10 00 00 00 	mov    %edx,0x10(%rsp)
    3b56:	41 89 f7             	mov    %esi,%r15d
    3b59:	41 83 c7 fc          	add    $0xfffffffc,%r15d
    3b5d:	44 89 bc 24 08 00 00 	mov    %r15d,0x8(%rsp)
    3b64:	00 
    3b65:	44 89 fa             	mov    %r15d,%edx
    3b68:	49 89 ff             	mov    %rdi,%r15
    3b6b:	41 8b 1c 17          	mov    (%r15,%rdx,1),%ebx
    3b6f:	0f ae e8             	lfence 
    3b72:	89 de                	mov    %ebx,%esi
    3b74:	83 e6 03             	and    $0x3,%esi
    3b77:	bf 10 05 00 00       	mov    $0x510,%edi
    3b7c:	89 ff                	mov    %edi,%edi
    3b7e:	41 8b 3c 3f          	mov    (%r15,%rdi,1),%edi
    3b82:	0f ae e8             	lfence 
    3b85:	41 89 d8             	mov    %ebx,%r8d
    3b88:	41 83 e0 f8          	and    $0xfffffff8,%r8d
    3b8c:	41 83 f8 01          	cmp    $0x1,%r8d
    3b90:	7c 0d                	jl     3b9f <guest_func_realloc+0x10f>
    3b92:	44 8b bc 24 18 00 00 	mov    0x18(%rsp),%r15d
    3b99:	00 
    3b9a:	44 39 ff             	cmp    %r15d,%edi
    3b9d:	77 00                	ja     3b9f <guest_func_realloc+0x10f>
    3b9f:	41 b9 10 00 00 00    	mov    $0x10,%r9d
    3ba5:	84 c0                	test   %al,%al
    3ba7:	75 05                	jne    3bae <guest_func_realloc+0x11e>
    3ba9:	40 89 c8             	rex mov %ecx,%eax
    3bac:	eb 03                	jmp    3bb1 <guest_func_realloc+0x121>
    3bae:	44 89 c8             	mov    %r9d,%eax
    3bb1:	85 f6                	test   %esi,%esi
    3bb3:	75 54                	jne    3c09 <guest_func_realloc+0x179>
    3bb5:	81 f8 00 01 00 00    	cmp    $0x100,%eax
    3bbb:	0f 82 c1 05 00 00    	jb     4182 <guest_func_realloc+0x6f2>
    3bc1:	89 c1                	mov    %eax,%ecx
    3bc3:	83 c9 04             	or     $0x4,%ecx
    3bc6:	41 39 c8             	cmp    %ecx,%r8d
    3bc9:	0f 82 c5 05 00 00    	jb     4194 <guest_func_realloc+0x704>
    3bcf:	41 29 c0             	sub    %eax,%r8d
    3bd2:	b8 e0 06 00 00       	mov    $0x6e0,%eax
    3bd7:	89 c0                	mov    %eax,%eax
    3bd9:	4c 8b bc 24 00 00 00 	mov    0x0(%rsp),%r15
    3be0:	00 
    3be1:	41 8b 04 07          	mov    (%r15,%rax,1),%eax
    3be5:	c1 e0 01             	shl    $0x1,%eax
    3be8:	41 39 c0             	cmp    %eax,%r8d
    3beb:	0f ae e8             	lfence 
    3bee:	0f 86 c7 06 00 00    	jbe    42bb <guest_func_realloc+0x82b>
    3bf4:	44 8b bc 24 24 00 00 	mov    0x24(%rsp),%r15d
    3bfb:	00 
    3bfc:	44 89 bc 24 0c 00 00 	mov    %r15d,0xc(%rsp)
    3c03:	00 
    3c04:	e9 e3 05 00 00       	jmpq   41ec <guest_func_realloc+0x75c>
    3c09:	44 89 c1             	mov    %r8d,%ecx
    3c0c:	44 8b bc 24 18 00 00 	mov    0x18(%rsp),%r15d
    3c13:	00 
    3c14:	44 01 f9             	add    %r15d,%ecx
    3c17:	41 39 c0             	cmp    %eax,%r8d
    3c1a:	72 78                	jb     3c94 <guest_func_realloc+0x204>
    3c1c:	44 89 c6             	mov    %r8d,%esi
    3c1f:	29 c6                	sub    %eax,%esi
    3c21:	83 fe 10             	cmp    $0x10,%esi
    3c24:	0f 82 91 06 00 00    	jb     42bb <guest_func_realloc+0x82b>
    3c2a:	83 e3 01             	and    $0x1,%ebx
    3c2d:	09 c3                	or     %eax,%ebx
    3c2f:	83 cb 02             	or     $0x2,%ebx
    3c32:	4c 8b bc 24 00 00 00 	mov    0x0(%rsp),%r15
    3c39:	00 
    3c3a:	41 89 1c 17          	mov    %ebx,(%r15,%rdx,1)
    3c3e:	44 8b bc 24 18 00 00 	mov    0x18(%rsp),%r15d
    3c45:	00 
    3c46:	44 01 f8             	add    %r15d,%eax
    3c49:	89 f2                	mov    %esi,%edx
    3c4b:	83 ca 03             	or     $0x3,%edx
    3c4e:	89 c3                	mov    %eax,%ebx
    3c50:	4c 8b bc 24 00 00 00 	mov    0x0(%rsp),%r15
    3c57:	00 
    3c58:	41 89 54 1f 04       	mov    %edx,0x4(%r15,%rbx,1)
    3c5d:	89 c9                	mov    %ecx,%ecx
    3c5f:	41 8b 54 0f 04       	mov    0x4(%r15,%rcx,1),%edx
    3c64:	83 ca 01             	or     $0x1,%edx
    3c67:	41 89 54 0f 04       	mov    %edx,0x4(%r15,%rcx,1)
    3c6c:	4c 89 ff             	mov    %r15,%rdi
    3c6f:	40 89 f2             	rex mov %esi,%edx
    3c72:	40 89 c6             	rex mov %eax,%esi
    3c75:	e8 56 0c 00 00       	callq  48d0 <guest_func_14>
    3c7a:	44 8b bc 24 24 00 00 	mov    0x24(%rsp),%r15d
    3c81:	00 
    3c82:	44 89 f8             	mov    %r15d,%eax
    3c85:	48 83 c4 28          	add    $0x28,%rsp
    3c89:	41 5f                	pop    %r15
    3c8b:	41 5e                	pop    %r14
    3c8d:	41 5d                	pop    %r13
    3c8f:	41 5c                	pop    %r12
    3c91:	5b                   	pop    %rbx
    3c92:	5d                   	pop    %rbp
    3c93:	c3                   	retq   
    3c94:	be 18 05 00 00       	mov    $0x518,%esi
    3c99:	89 f6                	mov    %esi,%esi
    3c9b:	4c 8b bc 24 00 00 00 	mov    0x0(%rsp),%r15
    3ca2:	00 
    3ca3:	45 8b 14 37          	mov    (%r15,%rsi,1),%r10d
    3ca7:	44 39 d1             	cmp    %r10d,%ecx
    3caa:	0f ae e8             	lfence 
    3cad:	75 68                	jne    3d17 <guest_func_realloc+0x287>
    3caf:	b9 0c 05 00 00       	mov    $0x50c,%ecx
    3cb4:	89 c9                	mov    %ecx,%ecx
    3cb6:	41 8b 3c 0f          	mov    (%r15,%rcx,1),%edi
    3cba:	44 01 c7             	add    %r8d,%edi
    3cbd:	39 c7                	cmp    %eax,%edi
    3cbf:	0f ae e8             	lfence 
    3cc2:	0f 86 de 04 00 00    	jbe    41a6 <guest_func_realloc+0x716>
    3cc8:	83 e3 01             	and    $0x1,%ebx
    3ccb:	09 c3                	or     %eax,%ebx
    3ccd:	83 cb 02             	or     $0x2,%ebx
    3cd0:	41 89 1c 17          	mov    %ebx,(%r15,%rdx,1)
    3cd4:	89 c2                	mov    %eax,%edx
    3cd6:	44 8b bc 24 18 00 00 	mov    0x18(%rsp),%r15d
    3cdd:	00 
    3cde:	44 01 fa             	add    %r15d,%edx
    3ce1:	4c 8b bc 24 00 00 00 	mov    0x0(%rsp),%r15
    3ce8:	00 
    3ce9:	41 89 14 37          	mov    %edx,(%r15,%rsi,1)
    3ced:	29 c7                	sub    %eax,%edi
    3cef:	41 89 3c 0f          	mov    %edi,(%r15,%rcx,1)
    3cf3:	83 cf 01             	or     $0x1,%edi
    3cf6:	89 d0                	mov    %edx,%eax
    3cf8:	41 89 7c 07 04       	mov    %edi,0x4(%r15,%rax,1)
    3cfd:	44 8b bc 24 24 00 00 	mov    0x24(%rsp),%r15d
    3d04:	00 
    3d05:	44 89 f8             	mov    %r15d,%eax
    3d08:	48 83 c4 28          	add    $0x28,%rsp
    3d0c:	41 5f                	pop    %r15
    3d0e:	41 5e                	pop    %r14
    3d10:	41 5d                	pop    %r13
    3d12:	41 5c                	pop    %r12
    3d14:	5b                   	pop    %rbx
    3d15:	5d                   	pop    %rbp
    3d16:	c3                   	retq   
    3d17:	be 14 05 00 00       	mov    $0x514,%esi
    3d1c:	89 f6                	mov    %esi,%esi
    3d1e:	45 8b 14 37          	mov    (%r15,%rsi,1),%r10d
    3d22:	44 39 d1             	cmp    %r10d,%ecx
    3d25:	0f ae e8             	lfence 
    3d28:	0f 85 ec 00 00 00    	jne    3e1a <guest_func_realloc+0x38a>
    3d2e:	b9 08 05 00 00       	mov    $0x508,%ecx
    3d33:	89 c9                	mov    %ecx,%ecx
    3d35:	41 8b 3c 0f          	mov    (%r15,%rcx,1),%edi
    3d39:	0f ae e8             	lfence 
    3d3c:	44 01 c7             	add    %r8d,%edi
    3d3f:	39 c7                	cmp    %eax,%edi
    3d41:	0f 82 71 04 00 00    	jb     41b8 <guest_func_realloc+0x728>
    3d47:	41 89 f8             	mov    %edi,%r8d
    3d4a:	41 29 c0             	sub    %eax,%r8d
    3d4d:	41 83 f8 10          	cmp    $0x10,%r8d
    3d51:	72 5f                	jb     3db2 <guest_func_realloc+0x322>
    3d53:	83 e3 01             	and    $0x1,%ebx
    3d56:	09 c3                	or     %eax,%ebx
    3d58:	83 cb 02             	or     $0x2,%ebx
    3d5b:	41 89 1c 17          	mov    %ebx,(%r15,%rdx,1)
    3d5f:	44 8b bc 24 18 00 00 	mov    0x18(%rsp),%r15d
    3d66:	00 
    3d67:	44 01 f8             	add    %r15d,%eax
    3d6a:	44 89 c2             	mov    %r8d,%edx
    3d6d:	83 ca 01             	or     $0x1,%edx
    3d70:	89 c3                	mov    %eax,%ebx
    3d72:	4c 8b bc 24 00 00 00 	mov    0x0(%rsp),%r15
    3d79:	00 
    3d7a:	41 89 54 1f 04       	mov    %edx,0x4(%r15,%rbx,1)
    3d7f:	44 8b bc 24 18 00 00 	mov    0x18(%rsp),%r15d
    3d86:	00 
    3d87:	44 01 ff             	add    %r15d,%edi
    3d8a:	89 fa                	mov    %edi,%edx
    3d8c:	4c 8b bc 24 00 00 00 	mov    0x0(%rsp),%r15
    3d93:	00 
    3d94:	45 89 04 17          	mov    %r8d,(%r15,%rdx,1)
    3d98:	41 8b 5c 17 04       	mov    0x4(%r15,%rdx,1),%ebx
    3d9d:	83 e3 fe             	and    $0xfffffffe,%ebx
    3da0:	41 89 5c 17 04       	mov    %ebx,0x4(%r15,%rdx,1)
    3da5:	44 89 84 24 1c 00 00 	mov    %r8d,0x1c(%rsp)
    3dac:	00 
    3dad:	41 89 c7             	mov    %eax,%r15d
    3db0:	eb 36                	jmp    3de8 <guest_func_realloc+0x358>
    3db2:	83 e3 01             	and    $0x1,%ebx
    3db5:	09 fb                	or     %edi,%ebx
    3db7:	83 cb 02             	or     $0x2,%ebx
    3dba:	41 89 1c 17          	mov    %ebx,(%r15,%rdx,1)
    3dbe:	44 8b bc 24 18 00 00 	mov    0x18(%rsp),%r15d
    3dc5:	00 
    3dc6:	44 01 ff             	add    %r15d,%edi
    3dc9:	89 f8                	mov    %edi,%eax
    3dcb:	4c 8b bc 24 00 00 00 	mov    0x0(%rsp),%r15
    3dd2:	00 
    3dd3:	41 8b 54 07 04       	mov    0x4(%r15,%rax,1),%edx
    3dd8:	83 ca 01             	or     $0x1,%edx
    3ddb:	41 89 54 07 04       	mov    %edx,0x4(%r15,%rax,1)
    3de0:	44 8b bc 24 1c 00 00 	mov    0x1c(%rsp),%r15d
    3de7:	00 
    3de8:	4c 8b b4 24 00 00 00 	mov    0x0(%rsp),%r14
    3def:	00 
    3df0:	45 89 3c 36          	mov    %r15d,(%r14,%rsi,1)
    3df4:	44 8b bc 24 1c 00 00 	mov    0x1c(%rsp),%r15d
    3dfb:	00 
    3dfc:	45 89 3c 0e          	mov    %r15d,(%r14,%rcx,1)
    3e00:	44 8b bc 24 24 00 00 	mov    0x24(%rsp),%r15d
    3e07:	00 
    3e08:	44 89 f8             	mov    %r15d,%eax
    3e0b:	48 83 c4 28          	add    $0x28,%rsp
    3e0f:	41 5f                	pop    %r15
    3e11:	41 5e                	pop    %r14
    3e13:	41 5d                	pop    %r13
    3e15:	41 5c                	pop    %r12
    3e17:	5b                   	pop    %rbx
    3e18:	5d                   	pop    %rbp
    3e19:	c3                   	retq   
    3e1a:	89 ca                	mov    %ecx,%edx
    3e1c:	41 8b 74 17 04       	mov    0x4(%r15,%rdx,1),%esi
    3e21:	0f ae e8             	lfence 
    3e24:	41 89 f2             	mov    %esi,%r10d
    3e27:	41 83 e2 02          	and    $0x2,%r10d
    3e2b:	45 85 d2             	test   %r10d,%r10d
    3e2e:	0f 85 96 03 00 00    	jne    41ca <guest_func_realloc+0x73a>
    3e34:	41 89 f2             	mov    %esi,%r10d
    3e37:	41 83 e2 f8          	and    $0xfffffff8,%r10d
    3e3b:	45 01 c2             	add    %r8d,%r10d
    3e3e:	41 39 c2             	cmp    %eax,%r10d
    3e41:	0f 82 95 03 00 00    	jb     41dc <guest_func_realloc+0x74c>
    3e47:	45 89 d0             	mov    %r10d,%r8d
    3e4a:	41 29 c0             	sub    %eax,%r8d
    3e4d:	81 fe ff 00 00 00    	cmp    $0xff,%esi
    3e53:	77 73                	ja     3ec8 <guest_func_realloc+0x438>
    3e55:	41 8b 4c 17 0c       	mov    0xc(%r15,%rdx,1),%ecx
    3e5a:	0f ae e8             	lfence 
    3e5d:	41 8b 54 17 08       	mov    0x8(%r15,%rdx,1),%edx
    3e62:	0f ae e8             	lfence 
    3e65:	c1 ee 03             	shr    $0x3,%esi
    3e68:	89 f7                	mov    %esi,%edi
    3e6a:	c1 e7 03             	shl    $0x3,%edi
    3e6d:	81 c7 28 05 00 00    	add    $0x528,%edi
    3e73:	39 fa                	cmp    %edi,%edx
    3e75:	74 00                	je     3e77 <guest_func_realloc+0x3e7>
    3e77:	39 d1                	cmp    %edx,%ecx
    3e79:	75 2e                	jne    3ea9 <guest_func_realloc+0x419>
    3e7b:	b9 00 05 00 00       	mov    $0x500,%ecx
    3e80:	89 c9                	mov    %ecx,%ecx
    3e82:	4c 8b bc 24 00 00 00 	mov    0x0(%rsp),%r15
    3e89:	00 
    3e8a:	41 8b 14 0f          	mov    (%r15,%rcx,1),%edx
    3e8e:	bf fe ff ff ff       	mov    $0xfffffffe,%edi
    3e93:	49 89 c9             	mov    %rcx,%r9
    3e96:	40 89 f1             	rex mov %esi,%ecx
    3e99:	4c 89 ce             	mov    %r9,%rsi
    3e9c:	d3 c7                	rol    %cl,%edi
    3e9e:	21 fa                	and    %edi,%edx
    3ea0:	41 89 14 37          	mov    %edx,(%r15,%rsi,1)
    3ea4:	e9 ec 01 00 00       	jmpq   4095 <guest_func_realloc+0x605>
    3ea9:	39 f9                	cmp    %edi,%ecx
    3eab:	74 00                	je     3ead <guest_func_realloc+0x41d>
    3ead:	89 ce                	mov    %ecx,%esi
    3eaf:	4c 8b bc 24 00 00 00 	mov    0x0(%rsp),%r15
    3eb6:	00 
    3eb7:	41 89 54 37 08       	mov    %edx,0x8(%r15,%rsi,1)
    3ebc:	89 d2                	mov    %edx,%edx
    3ebe:	41 89 4c 17 0c       	mov    %ecx,0xc(%r15,%rdx,1)
    3ec3:	e9 cd 01 00 00       	jmpq   4095 <guest_func_realloc+0x605>
    3ec8:	41 8b 74 17 18       	mov    0x18(%r15,%rdx,1),%esi
    3ecd:	0f ae e8             	lfence 
    3ed0:	45 8b 5c 17 0c       	mov    0xc(%r15,%rdx,1),%r11d
    3ed5:	0f ae e8             	lfence 
    3ed8:	41 39 cb             	cmp    %ecx,%r11d
    3edb:	74 32                	je     3f0f <guest_func_realloc+0x47f>
    3edd:	45 8b 64 17 08       	mov    0x8(%r15,%rdx,1),%r12d
    3ee2:	0f ae e8             	lfence 
    3ee5:	44 39 e7             	cmp    %r12d,%edi
    3ee8:	77 08                	ja     3ef2 <guest_func_realloc+0x462>
    3eea:	44 89 e7             	mov    %r12d,%edi
    3eed:	41 8b 7c 3f 0c       	mov    0xc(%r15,%rdi,1),%edi
    3ef2:	44 89 df             	mov    %r11d,%edi
    3ef5:	4c 8b bc 24 00 00 00 	mov    0x0(%rsp),%r15
    3efc:	00 
    3efd:	45 89 64 3f 08       	mov    %r12d,0x8(%r15,%rdi,1)
    3f02:	44 89 e7             	mov    %r12d,%edi
    3f05:	45 89 5c 3f 0c       	mov    %r11d,0xc(%r15,%rdi,1)
    3f0a:	e9 a2 00 00 00       	jmpq   3fb1 <guest_func_realloc+0x521>
    3f0f:	89 cf                	mov    %ecx,%edi
    3f11:	83 c7 14             	add    $0x14,%edi
    3f14:	41 89 fb             	mov    %edi,%r11d
    3f17:	47 8b 1c 1f          	mov    (%r15,%r11,1),%r11d
    3f1b:	0f ae e8             	lfence 
    3f1e:	45 85 db             	test   %r11d,%r11d
    3f21:	75 21                	jne    3f44 <guest_func_realloc+0x4b4>
    3f23:	89 cf                	mov    %ecx,%edi
    3f25:	83 c7 10             	add    $0x10,%edi
    3f28:	41 89 fb             	mov    %edi,%r11d
    3f2b:	47 8b 1c 1f          	mov    (%r15,%r11,1),%r11d
    3f2f:	0f ae e8             	lfence 
    3f32:	45 85 db             	test   %r11d,%r11d
    3f35:	75 0d                	jne    3f44 <guest_func_realloc+0x4b4>
    3f37:	44 8b bc 24 1c 00 00 	mov    0x1c(%rsp),%r15d
    3f3e:	00 
    3f3f:	45 89 fb             	mov    %r15d,%r11d
    3f42:	eb 6d                	jmp    3fb1 <guest_func_realloc+0x521>
    3f44:	eb 20                	jmp    3f66 <guest_func_realloc+0x4d6>
    3f46:	44 89 ef             	mov    %r13d,%edi
    3f49:	45 89 e3             	mov    %r12d,%r11d
    3f4c:	45 89 de             	mov    %r11d,%r14d
    3f4f:	41 89 fb             	mov    %edi,%r11d
    3f52:	44 89 f7             	mov    %r14d,%edi
    3f55:	eb 0f                	jmp    3f66 <guest_func_realloc+0x4d6>
    3f57:	44 89 ef             	mov    %r13d,%edi
    3f5a:	45 89 e3             	mov    %r12d,%r11d
    3f5d:	45 89 de             	mov    %r11d,%r14d
    3f60:	41 89 fb             	mov    %edi,%r11d
    3f63:	44 89 f7             	mov    %r14d,%edi
    3f66:	45 89 dc             	mov    %r11d,%r12d
    3f69:	41 83 c4 14          	add    $0x14,%r12d
    3f6d:	45 89 e5             	mov    %r12d,%r13d
    3f70:	4c 8b bc 24 00 00 00 	mov    0x0(%rsp),%r15
    3f77:	00 
    3f78:	47 8b 2c 2f          	mov    (%r15,%r13,1),%r13d
    3f7c:	0f ae e8             	lfence 
    3f7f:	45 85 ed             	test   %r13d,%r13d
    3f82:	75 c2                	jne    3f46 <guest_func_realloc+0x4b6>
    3f84:	45 89 dc             	mov    %r11d,%r12d
    3f87:	41 83 c4 10          	add    $0x10,%r12d
    3f8b:	45 89 dd             	mov    %r11d,%r13d
    3f8e:	47 8b 6c 2f 10       	mov    0x10(%r15,%r13,1),%r13d
    3f93:	0f ae e8             	lfence 
    3f96:	45 85 ed             	test   %r13d,%r13d
    3f99:	75 bc                	jne    3f57 <guest_func_realloc+0x4c7>
    3f9b:	89 ff                	mov    %edi,%edi
    3f9d:	44 8b bc 24 1c 00 00 	mov    0x1c(%rsp),%r15d
    3fa4:	00 
    3fa5:	4c 8b b4 24 00 00 00 	mov    0x0(%rsp),%r14
    3fac:	00 
    3fad:	45 89 3c 3e          	mov    %r15d,(%r14,%rdi,1)
    3fb1:	85 f6                	test   %esi,%esi
    3fb3:	0f 84 dc 00 00 00    	je     4095 <guest_func_realloc+0x605>
    3fb9:	4c 8b bc 24 00 00 00 	mov    0x0(%rsp),%r15
    3fc0:	00 
    3fc1:	41 8b 7c 17 1c       	mov    0x1c(%r15,%rdx,1),%edi
    3fc6:	41 89 fc             	mov    %edi,%r12d
    3fc9:	41 c1 e4 02          	shl    $0x2,%r12d
    3fcd:	41 81 c4 30 06 00 00 	add    $0x630,%r12d
    3fd4:	0f ae e8             	lfence 
    3fd7:	45 89 e4             	mov    %r12d,%r12d
    3fda:	47 8b 2c 27          	mov    (%r15,%r12,1),%r13d
    3fde:	44 39 e9             	cmp    %r13d,%ecx
    3fe1:	0f ae e8             	lfence 
    3fe4:	75 2f                	jne    4015 <guest_func_realloc+0x585>
    3fe6:	47 89 1c 27          	mov    %r11d,(%r15,%r12,1)
    3fea:	45 85 db             	test   %r11d,%r11d
    3fed:	75 57                	jne    4046 <guest_func_realloc+0x5b6>
    3fef:	b9 04 05 00 00       	mov    $0x504,%ecx
    3ff4:	89 c9                	mov    %ecx,%ecx
    3ff6:	41 8b 14 0f          	mov    (%r15,%rcx,1),%edx
    3ffa:	be fe ff ff ff       	mov    $0xfffffffe,%esi
    3fff:	49 89 c9             	mov    %rcx,%r9
    4002:	40 89 f9             	rex mov %edi,%ecx
    4005:	4c 89 cf             	mov    %r9,%rdi
    4008:	d3 c6                	rol    %cl,%esi
    400a:	21 f2                	and    %esi,%edx
    400c:	41 89 14 3f          	mov    %edx,(%r15,%rdi,1)
    4010:	e9 80 00 00 00       	jmpq   4095 <guest_func_realloc+0x605>
    4015:	bf 14 00 00 00       	mov    $0x14,%edi
    401a:	41 89 f4             	mov    %esi,%r12d
    401d:	47 8b 64 27 10       	mov    0x10(%r15,%r12,1),%r12d
    4022:	41 39 cc             	cmp    %ecx,%r12d
    4025:	0f ae e8             	lfence 
    4028:	74 05                	je     402f <guest_func_realloc+0x59f>
    402a:	89 f9                	mov    %edi,%ecx
    402c:	41 89 c9             	mov    %ecx,%r9d
    402f:	41 01 f1             	add    %esi,%r9d
    4032:	44 89 c9             	mov    %r9d,%ecx
    4035:	4c 8b bc 24 00 00 00 	mov    0x0(%rsp),%r15
    403c:	00 
    403d:	45 89 1c 0f          	mov    %r11d,(%r15,%rcx,1)
    4041:	45 85 db             	test   %r11d,%r11d
    4044:	74 4f                	je     4095 <guest_func_realloc+0x605>
    4046:	44 89 d9             	mov    %r11d,%ecx
    4049:	4c 8b bc 24 00 00 00 	mov    0x0(%rsp),%r15
    4050:	00 
    4051:	41 89 74 0f 18       	mov    %esi,0x18(%r15,%rcx,1)
    4056:	41 8b 74 17 10       	mov    0x10(%r15,%rdx,1),%esi
    405b:	0f ae e8             	lfence 
    405e:	85 f6                	test   %esi,%esi
    4060:	74 0c                	je     406e <guest_func_realloc+0x5de>
    4062:	41 89 74 0f 10       	mov    %esi,0x10(%r15,%rcx,1)
    4067:	89 f1                	mov    %esi,%ecx
    4069:	45 89 5c 0f 18       	mov    %r11d,0x18(%r15,%rcx,1)
    406e:	4c 8b bc 24 00 00 00 	mov    0x0(%rsp),%r15
    4075:	00 
    4076:	41 8b 4c 17 14       	mov    0x14(%r15,%rdx,1),%ecx
    407b:	0f ae e8             	lfence 
    407e:	85 c9                	test   %ecx,%ecx
    4080:	74 13                	je     4095 <guest_func_realloc+0x605>
    4082:	44 89 da             	mov    %r11d,%edx
    4085:	83 c2 14             	add    $0x14,%edx
    4088:	89 d2                	mov    %edx,%edx
    408a:	41 89 0c 17          	mov    %ecx,(%r15,%rdx,1)
    408e:	89 c9                	mov    %ecx,%ecx
    4090:	45 89 5c 0f 18       	mov    %r11d,0x18(%r15,%rcx,1)
    4095:	41 83 f8 0f          	cmp    $0xf,%r8d
    4099:	77 5d                	ja     40f8 <guest_func_realloc+0x668>
    409b:	83 e3 01             	and    $0x1,%ebx
    409e:	44 09 d3             	or     %r10d,%ebx
    40a1:	83 cb 02             	or     $0x2,%ebx
    40a4:	44 8b bc 24 08 00 00 	mov    0x8(%rsp),%r15d
    40ab:	00 
    40ac:	44 89 f8             	mov    %r15d,%eax
    40af:	4c 8b bc 24 00 00 00 	mov    0x0(%rsp),%r15
    40b6:	00 
    40b7:	41 89 1c 07          	mov    %ebx,(%r15,%rax,1)
    40bb:	44 8b bc 24 18 00 00 	mov    0x18(%rsp),%r15d
    40c2:	00 
    40c3:	45 01 d7             	add    %r10d,%r15d
    40c6:	44 89 f8             	mov    %r15d,%eax
    40c9:	4c 8b bc 24 00 00 00 	mov    0x0(%rsp),%r15
    40d0:	00 
    40d1:	41 8b 4c 07 04       	mov    0x4(%r15,%rax,1),%ecx
    40d6:	83 c9 01             	or     $0x1,%ecx
    40d9:	41 89 4c 07 04       	mov    %ecx,0x4(%r15,%rax,1)
    40de:	44 8b bc 24 24 00 00 	mov    0x24(%rsp),%r15d
    40e5:	00 
    40e6:	44 89 f8             	mov    %r15d,%eax
    40e9:	48 83 c4 28          	add    $0x28,%rsp
    40ed:	41 5f                	pop    %r15
    40ef:	41 5e                	pop    %r14
    40f1:	41 5d                	pop    %r13
    40f3:	41 5c                	pop    %r12
    40f5:	5b                   	pop    %rbx
    40f6:	5d                   	pop    %rbp
    40f7:	c3                   	retq   
    40f8:	83 e3 01             	and    $0x1,%ebx
    40fb:	09 c3                	or     %eax,%ebx
    40fd:	83 cb 02             	or     $0x2,%ebx
    4100:	44 8b bc 24 08 00 00 	mov    0x8(%rsp),%r15d
    4107:	00 
    4108:	44 89 f9             	mov    %r15d,%ecx
    410b:	4c 8b bc 24 00 00 00 	mov    0x0(%rsp),%r15
    4112:	00 
    4113:	41 89 1c 0f          	mov    %ebx,(%r15,%rcx,1)
    4117:	44 8b bc 24 18 00 00 	mov    0x18(%rsp),%r15d
    411e:	00 
    411f:	44 01 f8             	add    %r15d,%eax
    4122:	44 89 c1             	mov    %r8d,%ecx
    4125:	83 c9 03             	or     $0x3,%ecx
    4128:	89 c2                	mov    %eax,%edx
    412a:	4c 8b bc 24 00 00 00 	mov    0x0(%rsp),%r15
    4131:	00 
    4132:	41 89 4c 17 04       	mov    %ecx,0x4(%r15,%rdx,1)
    4137:	44 8b bc 24 18 00 00 	mov    0x18(%rsp),%r15d
    413e:	00 
    413f:	45 01 d7             	add    %r10d,%r15d
    4142:	44 89 f9             	mov    %r15d,%ecx
    4145:	4c 8b bc 24 00 00 00 	mov    0x0(%rsp),%r15
    414c:	00 
    414d:	41 8b 54 0f 04       	mov    0x4(%r15,%rcx,1),%edx
    4152:	83 ca 01             	or     $0x1,%edx
    4155:	41 89 54 0f 04       	mov    %edx,0x4(%r15,%rcx,1)
    415a:	4c 89 ff             	mov    %r15,%rdi
    415d:	40 89 c6             	rex mov %eax,%esi
    4160:	44 89 c2             	mov    %r8d,%edx
    4163:	e8 68 07 00 00       	callq  48d0 <guest_func_14>
    4168:	44 8b bc 24 24 00 00 	mov    0x24(%rsp),%r15d
    416f:	00 
    4170:	44 89 f8             	mov    %r15d,%eax
    4173:	48 83 c4 28          	add    $0x28,%rsp
    4177:	41 5f                	pop    %r15
    4179:	41 5e                	pop    %r14
    417b:	41 5d                	pop    %r13
    417d:	41 5c                	pop    %r12
    417f:	5b                   	pop    %rbx
    4180:	5d                   	pop    %rbp
    4181:	c3                   	retq   
    4182:	44 8b bc 24 24 00 00 	mov    0x24(%rsp),%r15d
    4189:	00 
    418a:	44 89 bc 24 0c 00 00 	mov    %r15d,0xc(%rsp)
    4191:	00 
    4192:	eb 58                	jmp    41ec <guest_func_realloc+0x75c>
    4194:	44 8b bc 24 24 00 00 	mov    0x24(%rsp),%r15d
    419b:	00 
    419c:	44 89 bc 24 0c 00 00 	mov    %r15d,0xc(%rsp)
    41a3:	00 
    41a4:	eb 46                	jmp    41ec <guest_func_realloc+0x75c>
    41a6:	44 8b bc 24 24 00 00 	mov    0x24(%rsp),%r15d
    41ad:	00 
    41ae:	44 89 bc 24 0c 00 00 	mov    %r15d,0xc(%rsp)
    41b5:	00 
    41b6:	eb 34                	jmp    41ec <guest_func_realloc+0x75c>
    41b8:	44 8b bc 24 24 00 00 	mov    0x24(%rsp),%r15d
    41bf:	00 
    41c0:	44 89 bc 24 0c 00 00 	mov    %r15d,0xc(%rsp)
    41c7:	00 
    41c8:	eb 22                	jmp    41ec <guest_func_realloc+0x75c>
    41ca:	44 8b bc 24 24 00 00 	mov    0x24(%rsp),%r15d
    41d1:	00 
    41d2:	44 89 bc 24 0c 00 00 	mov    %r15d,0xc(%rsp)
    41d9:	00 
    41da:	eb 10                	jmp    41ec <guest_func_realloc+0x75c>
    41dc:	44 8b bc 24 24 00 00 	mov    0x24(%rsp),%r15d
    41e3:	00 
    41e4:	44 89 bc 24 0c 00 00 	mov    %r15d,0xc(%rsp)
    41eb:	00 
    41ec:	4c 8b bc 24 00 00 00 	mov    0x0(%rsp),%r15
    41f3:	00 
    41f4:	44 8b b4 24 20 00 00 	mov    0x20(%rsp),%r14d
    41fb:	00 
    41fc:	4c 89 ff             	mov    %r15,%rdi
    41ff:	44 89 f6             	mov    %r14d,%esi
    4202:	e8 09 21 00 00       	callq  6310 <guest_func_9>
    4207:	85 c0                	test   %eax,%eax
    4209:	75 1a                	jne    4225 <guest_func_realloc+0x795>
    420b:	44 8b bc 24 1c 00 00 	mov    0x1c(%rsp),%r15d
    4212:	00 
    4213:	44 89 f8             	mov    %r15d,%eax
    4216:	48 83 c4 28          	add    $0x28,%rsp
    421a:	41 5f                	pop    %r15
    421c:	41 5e                	pop    %r14
    421e:	41 5d                	pop    %r13
    4220:	41 5c                	pop    %r12
    4222:	5b                   	pop    %rbx
    4223:	5d                   	pop    %rbp
    4224:	c3                   	retq   
    4225:	44 8b bc 24 08 00 00 	mov    0x8(%rsp),%r15d
    422c:	00 
    422d:	44 89 f9             	mov    %r15d,%ecx
    4230:	4c 8b bc 24 00 00 00 	mov    0x0(%rsp),%r15
    4237:	00 
    4238:	41 8b 0c 0f          	mov    (%r15,%rcx,1),%ecx
    423c:	0f ae e8             	lfence 
    423f:	89 ca                	mov    %ecx,%edx
    4241:	83 e2 03             	and    $0x3,%edx
    4244:	85 d2                	test   %edx,%edx
    4246:	75 10                	jne    4258 <guest_func_realloc+0x7c8>
    4248:	44 8b bc 24 14 00 00 	mov    0x14(%rsp),%r15d
    424f:	00 
    4250:	44 89 bc 24 10 00 00 	mov    %r15d,0x10(%rsp)
    4257:	00 
    4258:	83 e1 f8             	and    $0xfffffff8,%ecx
    425b:	44 8b bc 24 10 00 00 	mov    0x10(%rsp),%r15d
    4262:	00 
    4263:	44 89 fa             	mov    %r15d,%edx
    4266:	01 ca                	add    %ecx,%edx
    4268:	44 8b bc 24 20 00 00 	mov    0x20(%rsp),%r15d
    426f:	00 
    4270:	44 39 fa             	cmp    %r15d,%edx
    4273:	72 03                	jb     4278 <guest_func_realloc+0x7e8>
    4275:	44 89 fa             	mov    %r15d,%edx
    4278:	4c 8b bc 24 00 00 00 	mov    0x0(%rsp),%r15
    427f:	00 
    4280:	44 8b b4 24 0c 00 00 	mov    0xc(%rsp),%r14d
    4287:	00 
    4288:	4c 89 ff             	mov    %r15,%rdi
    428b:	40 89 c6             	rex mov %eax,%esi
    428e:	40 89 d1             	rex mov %edx,%ecx
    4291:	44 89 f2             	mov    %r14d,%edx
    4294:	e8 67 dc ff ff       	callq  1f00 <guest_func_memcpy>
    4299:	89 84 24 24 00 00 00 	mov    %eax,0x24(%rsp)
    42a0:	4c 8b bc 24 00 00 00 	mov    0x0(%rsp),%r15
    42a7:	00 
    42a8:	44 8b b4 24 0c 00 00 	mov    0xc(%rsp),%r14d
    42af:	00 
    42b0:	4c 89 ff             	mov    %r15,%rdi
    42b3:	44 89 f6             	mov    %r14d,%esi
    42b6:	e8 f5 16 00 00       	callq  59b0 <guest_func_11>
    42bb:	44 8b bc 24 24 00 00 	mov    0x24(%rsp),%r15d
    42c2:	00 
    42c3:	44 89 f8             	mov    %r15d,%eax
    42c6:	48 83 c4 28          	add    $0x28,%rsp
    42ca:	41 5f                	pop    %r15
    42cc:	41 5e                	pop    %r14
    42ce:	41 5d                	pop    %r13
    42d0:	41 5c                	pop    %r12
    42d2:	5b                   	pop    %rbx
    42d3:	5d                   	pop    %rbp
    42d4:	c3                   	retq   
	...

00000000000042e0 <guest_func_malloc>:
    42e0:	55                   	push   %rbp
    42e1:	48 89 e5             	mov    %rsp,%rbp
    42e4:	e8 27 20 00 00       	callq  6310 <guest_func_9>
    42e9:	5d                   	pop    %rbp
    42ea:	c3                   	retq   
    42eb:	00 00                	add    %al,(%rax)
    42ed:	00 00                	add    %al,(%rax)
	...

00000000000042f0 <guest_func_16>:
    42f0:	55                   	push   %rbp
    42f1:	48 89 e5             	mov    %rsp,%rbp
    42f4:	53                   	push   %rbx
    42f5:	41 55                	push   %r13
    42f7:	41 56                	push   %r14
    42f9:	41 57                	push   %r15
    42fb:	48 83 ec 20          	sub    $0x20,%rsp
    42ff:	48 89 bc 24 08 00 00 	mov    %rdi,0x8(%rsp)
    4306:	00 
    4307:	31 c0                	xor    %eax,%eax
    4309:	89 84 24 1c 00 00 00 	mov    %eax,0x1c(%rsp)
    4310:	89 f0                	mov    %esi,%eax
    4312:	83 c0 ff             	add    $0xffffffff,%eax
    4315:	21 f0                	and    %esi,%eax
    4317:	85 c0                	test   %eax,%eax
    4319:	75 09                	jne    4324 <guest_func_16+0x34>
    431b:	89 b4 24 18 00 00 00 	mov    %esi,0x18(%rsp)
    4322:	eb 28                	jmp    434c <guest_func_16+0x5c>
    4324:	b8 20 00 00 00       	mov    $0x20,%eax
    4329:	89 84 24 18 00 00 00 	mov    %eax,0x18(%rsp)
    4330:	eb 07                	jmp    4339 <guest_func_16+0x49>
    4332:	89 84 24 18 00 00 00 	mov    %eax,0x18(%rsp)
    4339:	44 8b bc 24 18 00 00 	mov    0x18(%rsp),%r15d
    4340:	00 
    4341:	44 89 f8             	mov    %r15d,%eax
    4344:	c1 e0 01             	shl    $0x1,%eax
    4347:	41 39 f7             	cmp    %esi,%r15d
    434a:	72 e6                	jb     4332 <guest_func_16+0x42>
    434c:	b8 c0 ff ff ff       	mov    $0xffffffc0,%eax
    4351:	44 8b bc 24 18 00 00 	mov    0x18(%rsp),%r15d
    4358:	00 
    4359:	44 29 f8             	sub    %r15d,%eax
    435c:	39 d0                	cmp    %edx,%eax
    435e:	77 30                	ja     4390 <guest_func_16+0xa0>
    4360:	b8 f0 06 00 00       	mov    $0x6f0,%eax
    4365:	b9 30 00 00 00       	mov    $0x30,%ecx
    436a:	89 c0                	mov    %eax,%eax
    436c:	4c 8b bc 24 08 00 00 	mov    0x8(%rsp),%r15
    4373:	00 
    4374:	41 89 0c 07          	mov    %ecx,(%r15,%rax,1)
    4378:	44 8b bc 24 1c 00 00 	mov    0x1c(%rsp),%r15d
    437f:	00 
    4380:	44 89 f8             	mov    %r15d,%eax
    4383:	48 83 c4 20          	add    $0x20,%rsp
    4387:	41 5f                	pop    %r15
    4389:	41 5e                	pop    %r14
    438b:	41 5d                	pop    %r13
    438d:	5b                   	pop    %rbx
    438e:	5d                   	pop    %rbp
    438f:	c3                   	retq   
    4390:	b8 10 00 00 00       	mov    $0x10,%eax
    4395:	89 84 24 14 00 00 00 	mov    %eax,0x14(%rsp)
    439c:	89 d0                	mov    %edx,%eax
    439e:	83 c0 13             	add    $0x13,%eax
    43a1:	83 e0 f0             	and    $0xfffffff0,%eax
    43a4:	83 fa 0b             	cmp    $0xb,%edx
    43a7:	72 07                	jb     43b0 <guest_func_16+0xc0>
    43a9:	89 84 24 14 00 00 00 	mov    %eax,0x14(%rsp)
    43b0:	44 8b bc 24 14 00 00 	mov    0x14(%rsp),%r15d
    43b7:	00 
    43b8:	41 83 cf 0c          	or     $0xc,%r15d
    43bc:	44 8b b4 24 18 00 00 	mov    0x18(%rsp),%r14d
    43c3:	00 
    43c4:	45 01 f7             	add    %r14d,%r15d
    43c7:	4c 8b b4 24 08 00 00 	mov    0x8(%rsp),%r14
    43ce:	00 
    43cf:	4c 89 f7             	mov    %r14,%rdi
    43d2:	44 89 fe             	mov    %r15d,%esi
    43d5:	e8 36 1f 00 00       	callq  6310 <guest_func_9>
    43da:	85 c0                	test   %eax,%eax
    43dc:	75 18                	jne    43f6 <guest_func_16+0x106>
    43de:	44 8b bc 24 1c 00 00 	mov    0x1c(%rsp),%r15d
    43e5:	00 
    43e6:	44 89 f8             	mov    %r15d,%eax
    43e9:	48 83 c4 20          	add    $0x20,%rsp
    43ed:	41 5f                	pop    %r15
    43ef:	41 5e                	pop    %r14
    43f1:	41 5d                	pop    %r13
    43f3:	5b                   	pop    %rbx
    43f4:	5d                   	pop    %rbp
    43f5:	c3                   	retq   
    43f6:	89 c1                	mov    %eax,%ecx
    43f8:	83 c1 f8             	add    $0xfffffff8,%ecx
    43fb:	44 8b bc 24 18 00 00 	mov    0x18(%rsp),%r15d
    4402:	00 
    4403:	41 83 c7 ff          	add    $0xffffffff,%r15d
    4407:	41 21 c7             	and    %eax,%r15d
    440a:	45 85 ff             	test   %r15d,%r15d
    440d:	75 0c                	jne    441b <guest_func_16+0x12b>
    440f:	89 8c 24 10 00 00 00 	mov    %ecx,0x10(%rsp)
    4416:	e9 0f 01 00 00       	jmpq   452a <guest_func_16+0x23a>
    441b:	89 c2                	mov    %eax,%edx
    441d:	83 c2 fc             	add    $0xfffffffc,%edx
    4420:	89 d2                	mov    %edx,%edx
    4422:	4c 8b bc 24 08 00 00 	mov    0x8(%rsp),%r15
    4429:	00 
    442a:	41 8b 1c 17          	mov    (%r15,%rdx,1),%ebx
    442e:	0f ae e8             	lfence 
    4431:	89 de                	mov    %ebx,%esi
    4433:	83 e6 f8             	and    $0xfffffff8,%esi
    4436:	44 8b bc 24 18 00 00 	mov    0x18(%rsp),%r15d
    443d:	00 
    443e:	41 01 c7             	add    %eax,%r15d
    4441:	41 83 c7 ff          	add    $0xffffffff,%r15d
    4445:	44 8b b4 24 1c 00 00 	mov    0x1c(%rsp),%r14d
    444c:	00 
    444d:	44 8b ac 24 18 00 00 	mov    0x18(%rsp),%r13d
    4454:	00 
    4455:	45 29 ee             	sub    %r13d,%r14d
    4458:	45 21 f7             	and    %r14d,%r15d
    445b:	41 83 c7 f8          	add    $0xfffffff8,%r15d
    445f:	44 89 bc 24 10 00 00 	mov    %r15d,0x10(%rsp)
    4466:	00 
    4467:	45 89 ef             	mov    %r13d,%r15d
    446a:	44 8b b4 24 10 00 00 	mov    0x10(%rsp),%r14d
    4471:	00 
    4472:	44 89 f8             	mov    %r15d,%eax
    4475:	44 01 f0             	add    %r14d,%eax
    4478:	45 89 f7             	mov    %r14d,%r15d
    447b:	41 29 cf             	sub    %ecx,%r15d
    447e:	41 83 ff 0f          	cmp    $0xf,%r15d
    4482:	77 07                	ja     448b <guest_func_16+0x19b>
    4484:	89 84 24 10 00 00 00 	mov    %eax,0x10(%rsp)
    448b:	44 8b bc 24 10 00 00 	mov    0x10(%rsp),%r15d
    4492:	00 
    4493:	44 89 f8             	mov    %r15d,%eax
    4496:	29 c8                	sub    %ecx,%eax
    4498:	29 c6                	sub    %eax,%esi
    449a:	83 e3 03             	and    $0x3,%ebx
    449d:	85 db                	test   %ebx,%ebx
    449f:	75 1e                	jne    44bf <guest_func_16+0x1cf>
    44a1:	44 89 fa             	mov    %r15d,%edx
    44a4:	4c 8b bc 24 08 00 00 	mov    0x8(%rsp),%r15
    44ab:	00 
    44ac:	41 89 74 17 04       	mov    %esi,0x4(%r15,%rdx,1)
    44b1:	89 c9                	mov    %ecx,%ecx
    44b3:	41 8b 0c 0f          	mov    (%r15,%rcx,1),%ecx
    44b7:	01 c1                	add    %eax,%ecx
    44b9:	41 89 0c 17          	mov    %ecx,(%r15,%rdx,1)
    44bd:	eb 6b                	jmp    452a <guest_func_16+0x23a>
    44bf:	44 89 fb             	mov    %r15d,%ebx
    44c2:	4c 8b bc 24 08 00 00 	mov    0x8(%rsp),%r15
    44c9:	00 
    44ca:	41 8b 7c 1f 04       	mov    0x4(%r15,%rbx,1),%edi
    44cf:	83 e7 01             	and    $0x1,%edi
    44d2:	09 f7                	or     %esi,%edi
    44d4:	83 cf 02             	or     $0x2,%edi
    44d7:	41 89 7c 1f 04       	mov    %edi,0x4(%r15,%rbx,1)
    44dc:	44 8b bc 24 10 00 00 	mov    0x10(%rsp),%r15d
    44e3:	00 
    44e4:	41 01 f7             	add    %esi,%r15d
    44e7:	44 89 fe             	mov    %r15d,%esi
    44ea:	4c 8b bc 24 08 00 00 	mov    0x8(%rsp),%r15
    44f1:	00 
    44f2:	41 8b 7c 37 04       	mov    0x4(%r15,%rsi,1),%edi
    44f7:	83 cf 01             	or     $0x1,%edi
    44fa:	41 89 7c 37 04       	mov    %edi,0x4(%r15,%rsi,1)
    44ff:	41 8b 34 17          	mov    (%r15,%rdx,1),%esi
    4503:	83 e6 01             	and    $0x1,%esi
    4506:	09 c6                	or     %eax,%esi
    4508:	83 ce 02             	or     $0x2,%esi
    450b:	41 89 34 17          	mov    %esi,(%r15,%rdx,1)
    450f:	41 8b 54 1f 04       	mov    0x4(%r15,%rbx,1),%edx
    4514:	83 ca 01             	or     $0x1,%edx
    4517:	41 89 54 1f 04       	mov    %edx,0x4(%r15,%rbx,1)
    451c:	4c 89 ff             	mov    %r15,%rdi
    451f:	40 89 ce             	rex mov %ecx,%esi
    4522:	40 89 c2             	rex mov %eax,%edx
    4525:	e8 a6 03 00 00       	callq  48d0 <guest_func_14>
    452a:	44 8b bc 24 10 00 00 	mov    0x10(%rsp),%r15d
    4531:	00 
    4532:	44 89 f8             	mov    %r15d,%eax
    4535:	4c 8b bc 24 08 00 00 	mov    0x8(%rsp),%r15
    453c:	00 
    453d:	41 8b 4c 07 04       	mov    0x4(%r15,%rax,1),%ecx
    4542:	0f ae e8             	lfence 
    4545:	89 ca                	mov    %ecx,%edx
    4547:	83 e2 03             	and    $0x3,%edx
    454a:	85 d2                	test   %edx,%edx
    454c:	0f 84 9e 00 00 00    	je     45f0 <guest_func_16+0x300>
    4552:	89 ca                	mov    %ecx,%edx
    4554:	83 e2 f8             	and    $0xfffffff8,%edx
    4557:	44 8b bc 24 14 00 00 	mov    0x14(%rsp),%r15d
    455e:	00 
    455f:	41 83 c7 10          	add    $0x10,%r15d
    4563:	44 39 fa             	cmp    %r15d,%edx
    4566:	0f 86 84 00 00 00    	jbe    45f0 <guest_func_16+0x300>
    456c:	83 e1 01             	and    $0x1,%ecx
    456f:	44 8b bc 24 14 00 00 	mov    0x14(%rsp),%r15d
    4576:	00 
    4577:	44 09 f9             	or     %r15d,%ecx
    457a:	83 c9 02             	or     $0x2,%ecx
    457d:	4c 8b bc 24 08 00 00 	mov    0x8(%rsp),%r15
    4584:	00 
    4585:	41 89 4c 07 04       	mov    %ecx,0x4(%r15,%rax,1)
    458a:	44 8b bc 24 14 00 00 	mov    0x14(%rsp),%r15d
    4591:	00 
    4592:	44 8b b4 24 10 00 00 	mov    0x10(%rsp),%r14d
    4599:	00 
    459a:	45 01 f7             	add    %r14d,%r15d
    459d:	89 d0                	mov    %edx,%eax
    459f:	44 8b b4 24 14 00 00 	mov    0x14(%rsp),%r14d
    45a6:	00 
    45a7:	44 29 f0             	sub    %r14d,%eax
    45aa:	89 c1                	mov    %eax,%ecx
    45ac:	83 c9 03             	or     $0x3,%ecx
    45af:	44 89 fb             	mov    %r15d,%ebx
    45b2:	4c 8b b4 24 08 00 00 	mov    0x8(%rsp),%r14
    45b9:	00 
    45ba:	41 89 4c 1e 04       	mov    %ecx,0x4(%r14,%rbx,1)
    45bf:	44 8b b4 24 10 00 00 	mov    0x10(%rsp),%r14d
    45c6:	00 
    45c7:	41 01 d6             	add    %edx,%r14d
    45ca:	44 89 f1             	mov    %r14d,%ecx
    45cd:	4c 8b b4 24 08 00 00 	mov    0x8(%rsp),%r14
    45d4:	00 
    45d5:	41 8b 54 0e 04       	mov    0x4(%r14,%rcx,1),%edx
    45da:	83 ca 01             	or     $0x1,%edx
    45dd:	41 89 54 0e 04       	mov    %edx,0x4(%r14,%rcx,1)
    45e2:	4c 89 f7             	mov    %r14,%rdi
    45e5:	44 89 fe             	mov    %r15d,%esi
    45e8:	40 89 c2             	rex mov %eax,%edx
    45eb:	e8 e0 02 00 00       	callq  48d0 <guest_func_14>
    45f0:	44 8b bc 24 10 00 00 	mov    0x10(%rsp),%r15d
    45f7:	00 
    45f8:	41 83 c7 08          	add    $0x8,%r15d
    45fc:	44 89 f8             	mov    %r15d,%eax
    45ff:	48 83 c4 20          	add    $0x20,%rsp
    4603:	41 5f                	pop    %r15
    4605:	41 5e                	pop    %r14
    4607:	41 5d                	pop    %r13
    4609:	5b                   	pop    %rbx
    460a:	5d                   	pop    %rbp
    460b:	c3                   	retq   
    460c:	00 00                	add    %al,(%rax)
	...

0000000000004610 <guest_func_posix_memalign>:
    4610:	55                   	push   %rbp
    4611:	48 89 e5             	mov    %rsp,%rbp
    4614:	53                   	push   %rbx
    4615:	41 57                	push   %r15
    4617:	48 83 ec 10          	sub    $0x10,%rsp
    461b:	48 89 bc 24 00 00 00 	mov    %rdi,0x0(%rsp)
    4622:	00 
    4623:	89 b4 24 0c 00 00 00 	mov    %esi,0xc(%rsp)
    462a:	31 c0                	xor    %eax,%eax
    462c:	89 84 24 08 00 00 00 	mov    %eax,0x8(%rsp)
    4633:	b8 10 00 00 00       	mov    $0x10,%eax
    4638:	83 fa 10             	cmp    $0x10,%edx
    463b:	75 10                	jne    464d <guest_func_posix_memalign+0x3d>
    463d:	49 89 ff             	mov    %rdi,%r15
    4640:	4c 89 ff             	mov    %r15,%rdi
    4643:	40 89 ce             	rex mov %ecx,%esi
    4646:	e8 c5 1c 00 00       	callq  6310 <guest_func_9>
    464b:	eb 49                	jmp    4696 <guest_func_posix_memalign+0x86>
    464d:	bb 1c 00 00 00       	mov    $0x1c,%ebx
    4652:	89 d6                	mov    %edx,%esi
    4654:	83 e6 03             	and    $0x3,%esi
    4657:	85 f6                	test   %esi,%esi
    4659:	75 6f                	jne    46ca <guest_func_posix_memalign+0xba>
    465b:	89 d6                	mov    %edx,%esi
    465d:	c1 ee 02             	shr    $0x2,%esi
    4660:	f3 0f b8 f6          	popcnt %esi,%esi
    4664:	83 fe 01             	cmp    $0x1,%esi
    4667:	75 61                	jne    46ca <guest_func_posix_memalign+0xba>
    4669:	bb 30 00 00 00       	mov    $0x30,%ebx
    466e:	be c0 ff ff ff       	mov    $0xffffffc0,%esi
    4673:	29 d6                	sub    %edx,%esi
    4675:	39 ce                	cmp    %ecx,%esi
    4677:	72 51                	jb     46ca <guest_func_posix_memalign+0xba>
    4679:	83 fa 10             	cmp    $0x10,%edx
    467c:	77 02                	ja     4680 <guest_func_posix_memalign+0x70>
    467e:	89 c2                	mov    %eax,%edx
    4680:	4c 8b bc 24 00 00 00 	mov    0x0(%rsp),%r15
    4687:	00 
    4688:	4c 89 ff             	mov    %r15,%rdi
    468b:	40 89 d6             	rex mov %edx,%esi
    468e:	40 89 ca             	rex mov %ecx,%edx
    4691:	e8 5a fc ff ff       	callq  42f0 <guest_func_16>
    4696:	85 c0                	test   %eax,%eax
    4698:	75 0e                	jne    46a8 <guest_func_posix_memalign+0x98>
    469a:	b8 30 00 00 00       	mov    $0x30,%eax
    469f:	48 83 c4 10          	add    $0x10,%rsp
    46a3:	41 5f                	pop    %r15
    46a5:	5b                   	pop    %rbx
    46a6:	5d                   	pop    %rbp
    46a7:	c3                   	retq   
    46a8:	44 8b bc 24 0c 00 00 	mov    0xc(%rsp),%r15d
    46af:	00 
    46b0:	44 89 f9             	mov    %r15d,%ecx
    46b3:	4c 8b bc 24 00 00 00 	mov    0x0(%rsp),%r15
    46ba:	00 
    46bb:	41 89 04 0f          	mov    %eax,(%r15,%rcx,1)
    46bf:	44 8b bc 24 08 00 00 	mov    0x8(%rsp),%r15d
    46c6:	00 
    46c7:	44 89 fb             	mov    %r15d,%ebx
    46ca:	40 89 d8             	rex mov %ebx,%eax
    46cd:	48 83 c4 10          	add    $0x10,%rsp
    46d1:	41 5f                	pop    %r15
    46d3:	5b                   	pop    %rbx
    46d4:	5d                   	pop    %rbp
    46d5:	c3                   	retq   
	...

00000000000046e0 <guest_func_aligned_alloc>:
    46e0:	55                   	push   %rbp
    46e1:	48 89 e5             	mov    %rsp,%rbp
    46e4:	83 fe 10             	cmp    $0x10,%esi
    46e7:	77 0a                	ja     46f3 <guest_func_aligned_alloc+0x13>
    46e9:	40 89 d6             	rex mov %edx,%esi
    46ec:	e8 1f 1c 00 00       	callq  6310 <guest_func_9>
    46f1:	5d                   	pop    %rbp
    46f2:	c3                   	retq   
    46f3:	e8 f8 fb ff ff       	callq  42f0 <guest_func_16>
    46f8:	5d                   	pop    %rbp
    46f9:	c3                   	retq   
    46fa:	00 00                	add    %al,(%rax)
    46fc:	00 00                	add    %al,(%rax)
	...

0000000000004700 <guest_func_memset>:
    4700:	55                   	push   %rbp
    4701:	48 89 e5             	mov    %rsp,%rbp
    4704:	53                   	push   %rbx
    4705:	31 c0                	xor    %eax,%eax
    4707:	85 c9                	test   %ecx,%ecx
    4709:	0f 84 75 01 00 00    	je     4884 <guest_func_memset+0x184>
    470f:	89 f3                	mov    %esi,%ebx
    4711:	88 14 1f             	mov    %dl,(%rdi,%rbx,1)
    4714:	41 89 f0             	mov    %esi,%r8d
    4717:	41 01 c8             	add    %ecx,%r8d
    471a:	45 89 c1             	mov    %r8d,%r9d
    471d:	41 83 c1 ff          	add    $0xffffffff,%r9d
    4721:	45 89 c9             	mov    %r9d,%r9d
    4724:	42 88 14 0f          	mov    %dl,(%rdi,%r9,1)
    4728:	83 f9 03             	cmp    $0x3,%ecx
    472b:	0f 82 53 01 00 00    	jb     4884 <guest_func_memset+0x184>
    4731:	88 54 1f 02          	mov    %dl,0x2(%rdi,%rbx,1)
    4735:	88 54 1f 01          	mov    %dl,0x1(%rdi,%rbx,1)
    4739:	45 89 c1             	mov    %r8d,%r9d
    473c:	41 83 c1 fd          	add    $0xfffffffd,%r9d
    4740:	45 89 c9             	mov    %r9d,%r9d
    4743:	42 88 14 0f          	mov    %dl,(%rdi,%r9,1)
    4747:	45 89 c1             	mov    %r8d,%r9d
    474a:	41 83 c1 fe          	add    $0xfffffffe,%r9d
    474e:	45 89 c9             	mov    %r9d,%r9d
    4751:	42 88 14 0f          	mov    %dl,(%rdi,%r9,1)
    4755:	83 f9 07             	cmp    $0x7,%ecx
    4758:	0f 82 26 01 00 00    	jb     4884 <guest_func_memset+0x184>
    475e:	88 54 1f 03          	mov    %dl,0x3(%rdi,%rbx,1)
    4762:	41 83 c0 fc          	add    $0xfffffffc,%r8d
    4766:	44 89 c3             	mov    %r8d,%ebx
    4769:	88 14 1f             	mov    %dl,(%rdi,%rbx,1)
    476c:	83 f9 09             	cmp    $0x9,%ecx
    476f:	0f 82 0f 01 00 00    	jb     4884 <guest_func_memset+0x184>
    4775:	29 f0                	sub    %esi,%eax
    4777:	83 e0 03             	and    $0x3,%eax
    477a:	89 c3                	mov    %eax,%ebx
    477c:	01 f3                	add    %esi,%ebx
    477e:	81 e2 ff 00 00 00    	and    $0xff,%edx
    4784:	41 b8 01 01 01 01    	mov    $0x1010101,%r8d
    478a:	41 0f af d0          	imul   %r8d,%edx
    478e:	41 89 d8             	mov    %ebx,%r8d
    4791:	42 89 14 07          	mov    %edx,(%rdi,%r8,1)
    4795:	29 c1                	sub    %eax,%ecx
    4797:	40 89 c8             	rex mov %ecx,%eax
    479a:	83 e0 fc             	and    $0xfffffffc,%eax
    479d:	89 c1                	mov    %eax,%ecx
    479f:	01 d9                	add    %ebx,%ecx
    47a1:	41 89 c9             	mov    %ecx,%r9d
    47a4:	41 83 c1 fc          	add    $0xfffffffc,%r9d
    47a8:	45 89 c9             	mov    %r9d,%r9d
    47ab:	42 89 14 0f          	mov    %edx,(%rdi,%r9,1)
    47af:	83 f8 09             	cmp    $0x9,%eax
    47b2:	0f 82 cc 00 00 00    	jb     4884 <guest_func_memset+0x184>
    47b8:	42 89 54 07 08       	mov    %edx,0x8(%rdi,%r8,1)
    47bd:	42 89 54 07 04       	mov    %edx,0x4(%rdi,%r8,1)
    47c2:	41 89 c9             	mov    %ecx,%r9d
    47c5:	41 83 c1 f8          	add    $0xfffffff8,%r9d
    47c9:	45 89 c9             	mov    %r9d,%r9d
    47cc:	42 89 14 0f          	mov    %edx,(%rdi,%r9,1)
    47d0:	41 89 c9             	mov    %ecx,%r9d
    47d3:	41 83 c1 f4          	add    $0xfffffff4,%r9d
    47d7:	45 89 c9             	mov    %r9d,%r9d
    47da:	42 89 14 0f          	mov    %edx,(%rdi,%r9,1)
    47de:	83 f8 19             	cmp    $0x19,%eax
    47e1:	0f 82 9d 00 00 00    	jb     4884 <guest_func_memset+0x184>
    47e7:	42 89 54 07 18       	mov    %edx,0x18(%rdi,%r8,1)
    47ec:	42 89 54 07 14       	mov    %edx,0x14(%rdi,%r8,1)
    47f1:	42 89 54 07 10       	mov    %edx,0x10(%rdi,%r8,1)
    47f6:	42 89 54 07 0c       	mov    %edx,0xc(%rdi,%r8,1)
    47fb:	41 89 c8             	mov    %ecx,%r8d
    47fe:	41 83 c0 f0          	add    $0xfffffff0,%r8d
    4802:	45 89 c0             	mov    %r8d,%r8d
    4805:	42 89 14 07          	mov    %edx,(%rdi,%r8,1)
    4809:	41 89 c8             	mov    %ecx,%r8d
    480c:	41 83 c0 ec          	add    $0xffffffec,%r8d
    4810:	45 89 c0             	mov    %r8d,%r8d
    4813:	42 89 14 07          	mov    %edx,(%rdi,%r8,1)
    4817:	41 89 c8             	mov    %ecx,%r8d
    481a:	41 83 c0 e8          	add    $0xffffffe8,%r8d
    481e:	45 89 c0             	mov    %r8d,%r8d
    4821:	42 89 14 07          	mov    %edx,(%rdi,%r8,1)
    4825:	83 c1 e4             	add    $0xffffffe4,%ecx
    4828:	89 c9                	mov    %ecx,%ecx
    482a:	89 14 0f             	mov    %edx,(%rdi,%rcx,1)
    482d:	89 d9                	mov    %ebx,%ecx
    482f:	83 e1 04             	and    $0x4,%ecx
    4832:	83 c9 18             	or     $0x18,%ecx
    4835:	29 c8                	sub    %ecx,%eax
    4837:	83 f8 20             	cmp    $0x20,%eax
    483a:	72 48                	jb     4884 <guest_func_memset+0x184>
    483c:	89 d2                	mov    %edx,%edx
    483e:	49 89 d0             	mov    %rdx,%r8
    4841:	49 c1 e0 20          	shl    $0x20,%r8
    4845:	4c 09 c2             	or     %r8,%rdx
    4848:	01 cb                	add    %ecx,%ebx
    484a:	eb 03                	jmp    484f <guest_func_memset+0x14f>
    484c:	40 89 cb             	rex mov %ecx,%ebx
    484f:	89 d9                	mov    %ebx,%ecx
    4851:	48 89 14 0f          	mov    %rdx,(%rdi,%rcx,1)
    4855:	89 d9                	mov    %ebx,%ecx
    4857:	83 c1 18             	add    $0x18,%ecx
    485a:	89 c9                	mov    %ecx,%ecx
    485c:	48 89 14 0f          	mov    %rdx,(%rdi,%rcx,1)
    4860:	89 d9                	mov    %ebx,%ecx
    4862:	83 c1 10             	add    $0x10,%ecx
    4865:	89 c9                	mov    %ecx,%ecx
    4867:	48 89 14 0f          	mov    %rdx,(%rdi,%rcx,1)
    486b:	89 d9                	mov    %ebx,%ecx
    486d:	83 c1 08             	add    $0x8,%ecx
    4870:	89 c9                	mov    %ecx,%ecx
    4872:	48 89 14 0f          	mov    %rdx,(%rdi,%rcx,1)
    4876:	40 89 d9             	rex mov %ebx,%ecx
    4879:	83 c1 20             	add    $0x20,%ecx
    487c:	83 c0 e0             	add    $0xffffffe0,%eax
    487f:	83 f8 1f             	cmp    $0x1f,%eax
    4882:	77 c8                	ja     484c <guest_func_memset+0x14c>
    4884:	40 89 f0             	rex mov %esi,%eax
    4887:	5b                   	pop    %rbx
    4888:	5d                   	pop    %rbp
    4889:	c3                   	retq   
    488a:	00 00                	add    %al,(%rax)
    488c:	00 00                	add    %al,(%rax)
	...

0000000000004890 <guest_func_malloc_usable_size>:
    4890:	55                   	push   %rbp
    4891:	48 89 e5             	mov    %rsp,%rbp
    4894:	53                   	push   %rbx
    4895:	31 c0                	xor    %eax,%eax
    4897:	85 f6                	test   %esi,%esi
    4899:	74 30                	je     48cb <guest_func_malloc_usable_size+0x3b>
    489b:	b9 fc ff ff ff       	mov    $0xfffffffc,%ecx
    48a0:	83 c6 fc             	add    $0xfffffffc,%esi
    48a3:	89 f2                	mov    %esi,%edx
    48a5:	8b 14 17             	mov    (%rdi,%rdx,1),%edx
    48a8:	0f ae e8             	lfence 
    48ab:	89 d3                	mov    %edx,%ebx
    48ad:	83 e3 03             	and    $0x3,%ebx
    48b0:	83 fb 01             	cmp    $0x1,%ebx
    48b3:	74 16                	je     48cb <guest_func_malloc_usable_size+0x3b>
    48b5:	b8 f8 ff ff ff       	mov    $0xfffffff8,%eax
    48ba:	83 e2 f8             	and    $0xfffffff8,%edx
    48bd:	85 db                	test   %ebx,%ebx
    48bf:	75 02                	jne    48c3 <guest_func_malloc_usable_size+0x33>
    48c1:	89 c1                	mov    %eax,%ecx
    48c3:	01 ca                	add    %ecx,%edx
    48c5:	40 89 d0             	rex mov %edx,%eax
    48c8:	5b                   	pop    %rbx
    48c9:	5d                   	pop    %rbp
    48ca:	c3                   	retq   
    48cb:	5b                   	pop    %rbx
    48cc:	5d                   	pop    %rbp
    48cd:	c3                   	retq   
	...

00000000000048d0 <guest_func_14>:
    48d0:	55                   	push   %rbp
    48d1:	48 89 e5             	mov    %rsp,%rbp
    48d4:	53                   	push   %rbx
    48d5:	41 54                	push   %r12
    48d7:	41 55                	push   %r13
    48d9:	41 56                	push   %r14
    48db:	41 57                	push   %r15
    48dd:	31 c0                	xor    %eax,%eax
    48df:	89 f1                	mov    %esi,%ecx
    48e1:	01 d1                	add    %edx,%ecx
    48e3:	89 f3                	mov    %esi,%ebx
    48e5:	44 8b 44 1f 04       	mov    0x4(%rdi,%rbx,1),%r8d
    48ea:	0f ae e8             	lfence 
    48ed:	41 b9 01 00 00 00    	mov    $0x1,%r9d
    48f3:	45 89 c2             	mov    %r8d,%r10d
    48f6:	41 83 e2 01          	and    $0x1,%r10d
    48fa:	45 85 d2             	test   %r10d,%r10d
    48fd:	0f 85 c6 02 00 00    	jne    4bc9 <guest_func_14+0x2f9>
    4903:	41 83 e0 03          	and    $0x3,%r8d
    4907:	45 85 c0             	test   %r8d,%r8d
    490a:	0f 84 83 08 00 00    	je     5193 <guest_func_14+0x8c3>
    4910:	8b 1c 1f             	mov    (%rdi,%rbx,1),%ebx
    4913:	0f ae e8             	lfence 
    4916:	41 89 d8             	mov    %ebx,%r8d
    4919:	41 01 d0             	add    %edx,%r8d
    491c:	40 89 f2             	rex mov %esi,%edx
    491f:	29 da                	sub    %ebx,%edx
    4921:	be 14 05 00 00       	mov    $0x514,%esi
    4926:	89 f6                	mov    %esi,%esi
    4928:	8b 34 37             	mov    (%rdi,%rsi,1),%esi
    492b:	39 f2                	cmp    %esi,%edx
    492d:	0f ae e8             	lfence 
    4930:	0f 84 33 02 00 00    	je     4b69 <guest_func_14+0x299>
    4936:	be 10 05 00 00       	mov    $0x510,%esi
    493b:	89 f6                	mov    %esi,%esi
    493d:	8b 34 37             	mov    (%rdi,%rsi,1),%esi
    4940:	81 fb ff 00 00 00    	cmp    $0xff,%ebx
    4946:	77 7c                	ja     49c4 <guest_func_14+0xf4>
    4948:	89 d6                	mov    %edx,%esi
    494a:	44 8b 54 37 0c       	mov    0xc(%rdi,%rsi,1),%r10d
    494f:	0f ae e8             	lfence 
    4952:	8b 74 37 08          	mov    0x8(%rdi,%rsi,1),%esi
    4956:	0f ae e8             	lfence 
    4959:	c1 eb 03             	shr    $0x3,%ebx
    495c:	41 89 db             	mov    %ebx,%r11d
    495f:	41 c1 e3 03          	shl    $0x3,%r11d
    4963:	41 81 c3 28 05 00 00 	add    $0x528,%r11d
    496a:	44 39 de             	cmp    %r11d,%esi
    496d:	74 00                	je     496f <guest_func_14+0x9f>
    496f:	41 39 f2             	cmp    %esi,%r10d
    4972:	75 32                	jne    49a6 <guest_func_14+0xd6>
    4974:	be 00 05 00 00       	mov    $0x500,%esi
    4979:	89 f6                	mov    %esi,%esi
    497b:	44 8b 14 37          	mov    (%rdi,%rsi,1),%r10d
    497f:	41 bb fe ff ff ff    	mov    $0xfffffffe,%r11d
    4985:	41 89 cc             	mov    %ecx,%r12d
    4988:	40 89 d9             	rex mov %ebx,%ecx
    498b:	44 89 e3             	mov    %r12d,%ebx
    498e:	41 d3 c3             	rol    %cl,%r11d
    4991:	45 21 da             	and    %r11d,%r10d
    4994:	44 89 14 37          	mov    %r10d,(%rdi,%rsi,1)
    4998:	40 89 d9             	rex mov %ebx,%ecx
    499b:	40 89 d6             	rex mov %edx,%esi
    499e:	44 89 c2             	mov    %r8d,%edx
    49a1:	e9 23 02 00 00       	jmpq   4bc9 <guest_func_14+0x2f9>
    49a6:	45 39 da             	cmp    %r11d,%r10d
    49a9:	74 00                	je     49ab <guest_func_14+0xdb>
    49ab:	44 89 d3             	mov    %r10d,%ebx
    49ae:	89 74 1f 08          	mov    %esi,0x8(%rdi,%rbx,1)
    49b2:	89 f3                	mov    %esi,%ebx
    49b4:	44 89 54 1f 0c       	mov    %r10d,0xc(%rdi,%rbx,1)
    49b9:	40 89 d6             	rex mov %edx,%esi
    49bc:	44 89 c2             	mov    %r8d,%edx
    49bf:	e9 05 02 00 00       	jmpq   4bc9 <guest_func_14+0x2f9>
    49c4:	89 d3                	mov    %edx,%ebx
    49c6:	44 8b 54 1f 18       	mov    0x18(%rdi,%rbx,1),%r10d
    49cb:	0f ae e8             	lfence 
    49ce:	44 8b 5c 1f 0c       	mov    0xc(%rdi,%rbx,1),%r11d
    49d3:	0f ae e8             	lfence 
    49d6:	44 39 da             	cmp    %r11d,%edx
    49d9:	74 2c                	je     4a07 <guest_func_14+0x137>
    49db:	44 8b 64 1f 08       	mov    0x8(%rdi,%rbx,1),%r12d
    49e0:	0f ae e8             	lfence 
    49e3:	44 39 e6             	cmp    %r12d,%esi
    49e6:	0f ae e8             	lfence 
    49e9:	77 07                	ja     49f2 <guest_func_14+0x122>
    49eb:	44 89 e6             	mov    %r12d,%esi
    49ee:	8b 74 37 0c          	mov    0xc(%rdi,%rsi,1),%esi
    49f2:	44 89 de             	mov    %r11d,%esi
    49f5:	44 89 64 37 08       	mov    %r12d,0x8(%rdi,%rsi,1)
    49fa:	44 89 e6             	mov    %r12d,%esi
    49fd:	44 89 5c 37 0c       	mov    %r11d,0xc(%rdi,%rsi,1)
    4a02:	e9 83 00 00 00       	jmpq   4a8a <guest_func_14+0x1ba>
    4a07:	89 d6                	mov    %edx,%esi
    4a09:	83 c6 14             	add    $0x14,%esi
    4a0c:	41 89 f3             	mov    %esi,%r11d
    4a0f:	46 8b 1c 1f          	mov    (%rdi,%r11,1),%r11d
    4a13:	0f ae e8             	lfence 
    4a16:	45 85 db             	test   %r11d,%r11d
    4a19:	75 1b                	jne    4a36 <guest_func_14+0x166>
    4a1b:	89 d6                	mov    %edx,%esi
    4a1d:	83 c6 10             	add    $0x10,%esi
    4a20:	41 89 f3             	mov    %esi,%r11d
    4a23:	46 8b 1c 1f          	mov    (%rdi,%r11,1),%r11d
    4a27:	0f ae e8             	lfence 
    4a2a:	45 85 db             	test   %r11d,%r11d
    4a2d:	75 07                	jne    4a36 <guest_func_14+0x166>
    4a2f:	89 c6                	mov    %eax,%esi
    4a31:	41 89 f3             	mov    %esi,%r11d
    4a34:	eb 54                	jmp    4a8a <guest_func_14+0x1ba>
    4a36:	eb 20                	jmp    4a58 <guest_func_14+0x188>
    4a38:	44 89 ee             	mov    %r13d,%esi
    4a3b:	45 89 e3             	mov    %r12d,%r11d
    4a3e:	45 89 de             	mov    %r11d,%r14d
    4a41:	41 89 f3             	mov    %esi,%r11d
    4a44:	44 89 f6             	mov    %r14d,%esi
    4a47:	eb 0f                	jmp    4a58 <guest_func_14+0x188>
    4a49:	44 89 ee             	mov    %r13d,%esi
    4a4c:	45 89 e3             	mov    %r12d,%r11d
    4a4f:	45 89 de             	mov    %r11d,%r14d
    4a52:	41 89 f3             	mov    %esi,%r11d
    4a55:	44 89 f6             	mov    %r14d,%esi
    4a58:	45 89 dc             	mov    %r11d,%r12d
    4a5b:	41 83 c4 14          	add    $0x14,%r12d
    4a5f:	45 89 e5             	mov    %r12d,%r13d
    4a62:	46 8b 2c 2f          	mov    (%rdi,%r13,1),%r13d
    4a66:	0f ae e8             	lfence 
    4a69:	45 85 ed             	test   %r13d,%r13d
    4a6c:	75 ca                	jne    4a38 <guest_func_14+0x168>
    4a6e:	45 89 dc             	mov    %r11d,%r12d
    4a71:	41 83 c4 10          	add    $0x10,%r12d
    4a75:	45 89 dd             	mov    %r11d,%r13d
    4a78:	46 8b 6c 2f 10       	mov    0x10(%rdi,%r13,1),%r13d
    4a7d:	0f ae e8             	lfence 
    4a80:	45 85 ed             	test   %r13d,%r13d
    4a83:	75 c4                	jne    4a49 <guest_func_14+0x179>
    4a85:	89 f6                	mov    %esi,%esi
    4a87:	89 04 37             	mov    %eax,(%rdi,%rsi,1)
    4a8a:	45 85 d2             	test   %r10d,%r10d
    4a8d:	0f 84 18 01 00 00    	je     4bab <guest_func_14+0x2db>
    4a93:	8b 74 1f 1c          	mov    0x1c(%rdi,%rbx,1),%esi
    4a97:	41 89 f4             	mov    %esi,%r12d
    4a9a:	41 c1 e4 02          	shl    $0x2,%r12d
    4a9e:	41 81 c4 30 06 00 00 	add    $0x630,%r12d
    4aa5:	0f ae e8             	lfence 
    4aa8:	45 89 e4             	mov    %r12d,%r12d
    4aab:	46 8b 2c 27          	mov    (%rdi,%r12,1),%r13d
    4aaf:	44 39 ea             	cmp    %r13d,%edx
    4ab2:	0f ae e8             	lfence 
    4ab5:	75 3b                	jne    4af2 <guest_func_14+0x222>
    4ab7:	46 89 1c 27          	mov    %r11d,(%rdi,%r12,1)
    4abb:	45 85 db             	test   %r11d,%r11d
    4abe:	75 62                	jne    4b22 <guest_func_14+0x252>
    4ac0:	bb 04 05 00 00       	mov    $0x504,%ebx
    4ac5:	89 db                	mov    %ebx,%ebx
    4ac7:	44 8b 14 1f          	mov    (%rdi,%rbx,1),%r10d
    4acb:	41 bb fe ff ff ff    	mov    $0xfffffffe,%r11d
    4ad1:	41 89 cc             	mov    %ecx,%r12d
    4ad4:	40 89 f1             	rex mov %esi,%ecx
    4ad7:	44 89 e6             	mov    %r12d,%esi
    4ada:	41 d3 c3             	rol    %cl,%r11d
    4add:	45 21 da             	and    %r11d,%r10d
    4ae0:	44 89 14 1f          	mov    %r10d,(%rdi,%rbx,1)
    4ae4:	40 89 f1             	rex mov %esi,%ecx
    4ae7:	40 89 d6             	rex mov %edx,%esi
    4aea:	44 89 c2             	mov    %r8d,%edx
    4aed:	e9 d7 00 00 00       	jmpq   4bc9 <guest_func_14+0x2f9>
    4af2:	be 10 00 00 00       	mov    $0x10,%esi
    4af7:	41 bc 14 00 00 00    	mov    $0x14,%r12d
    4afd:	45 89 d5             	mov    %r10d,%r13d
    4b00:	46 8b 6c 2f 10       	mov    0x10(%rdi,%r13,1),%r13d
    4b05:	41 39 d5             	cmp    %edx,%r13d
    4b08:	0f ae e8             	lfence 
    4b0b:	74 03                	je     4b10 <guest_func_14+0x240>
    4b0d:	44 89 e6             	mov    %r12d,%esi
    4b10:	44 01 d6             	add    %r10d,%esi
    4b13:	89 f6                	mov    %esi,%esi
    4b15:	44 89 1c 37          	mov    %r11d,(%rdi,%rsi,1)
    4b19:	45 85 db             	test   %r11d,%r11d
    4b1c:	0f 84 91 00 00 00    	je     4bb3 <guest_func_14+0x2e3>
    4b22:	44 89 de             	mov    %r11d,%esi
    4b25:	44 89 54 37 18       	mov    %r10d,0x18(%rdi,%rsi,1)
    4b2a:	44 8b 54 1f 10       	mov    0x10(%rdi,%rbx,1),%r10d
    4b2f:	0f ae e8             	lfence 
    4b32:	45 85 d2             	test   %r10d,%r10d
    4b35:	74 0d                	je     4b44 <guest_func_14+0x274>
    4b37:	44 89 54 37 10       	mov    %r10d,0x10(%rdi,%rsi,1)
    4b3c:	44 89 d6             	mov    %r10d,%esi
    4b3f:	44 89 5c 37 18       	mov    %r11d,0x18(%rdi,%rsi,1)
    4b44:	8b 5c 1f 14          	mov    0x14(%rdi,%rbx,1),%ebx
    4b48:	0f ae e8             	lfence 
    4b4b:	85 db                	test   %ebx,%ebx
    4b4d:	74 6c                	je     4bbb <guest_func_14+0x2eb>
    4b4f:	44 89 de             	mov    %r11d,%esi
    4b52:	83 c6 14             	add    $0x14,%esi
    4b55:	89 f6                	mov    %esi,%esi
    4b57:	89 1c 37             	mov    %ebx,(%rdi,%rsi,1)
    4b5a:	89 db                	mov    %ebx,%ebx
    4b5c:	44 89 5c 1f 18       	mov    %r11d,0x18(%rdi,%rbx,1)
    4b61:	40 89 d6             	rex mov %edx,%esi
    4b64:	44 89 c2             	mov    %r8d,%edx
    4b67:	eb 60                	jmp    4bc9 <guest_func_14+0x2f9>
    4b69:	89 cb                	mov    %ecx,%ebx
    4b6b:	8b 74 1f 04          	mov    0x4(%rdi,%rbx,1),%esi
    4b6f:	41 89 f2             	mov    %esi,%r10d
    4b72:	41 83 e2 03          	and    $0x3,%r10d
    4b76:	41 83 fa 03          	cmp    $0x3,%r10d
    4b7a:	0f ae e8             	lfence 
    4b7d:	75 44                	jne    4bc3 <guest_func_14+0x2f3>
    4b7f:	83 e6 fe             	and    $0xfffffffe,%esi
    4b82:	89 74 1f 04          	mov    %esi,0x4(%rdi,%rbx,1)
    4b86:	b8 08 05 00 00       	mov    $0x508,%eax
    4b8b:	89 c0                	mov    %eax,%eax
    4b8d:	44 89 04 07          	mov    %r8d,(%rdi,%rax,1)
    4b91:	44 89 04 1f          	mov    %r8d,(%rdi,%rbx,1)
    4b95:	41 83 c8 01          	or     $0x1,%r8d
    4b99:	89 d0                	mov    %edx,%eax
    4b9b:	44 89 44 07 04       	mov    %r8d,0x4(%rdi,%rax,1)
    4ba0:	41 5f                	pop    %r15
    4ba2:	41 5e                	pop    %r14
    4ba4:	41 5d                	pop    %r13
    4ba6:	41 5c                	pop    %r12
    4ba8:	5b                   	pop    %rbx
    4ba9:	5d                   	pop    %rbp
    4baa:	c3                   	retq   
    4bab:	40 89 d6             	rex mov %edx,%esi
    4bae:	44 89 c2             	mov    %r8d,%edx
    4bb1:	eb 16                	jmp    4bc9 <guest_func_14+0x2f9>
    4bb3:	40 89 d6             	rex mov %edx,%esi
    4bb6:	44 89 c2             	mov    %r8d,%edx
    4bb9:	eb 0e                	jmp    4bc9 <guest_func_14+0x2f9>
    4bbb:	40 89 d6             	rex mov %edx,%esi
    4bbe:	44 89 c2             	mov    %r8d,%edx
    4bc1:	eb 06                	jmp    4bc9 <guest_func_14+0x2f9>
    4bc3:	40 89 d6             	rex mov %edx,%esi
    4bc6:	44 89 c2             	mov    %r8d,%edx
    4bc9:	89 cb                	mov    %ecx,%ebx
    4bcb:	44 8b 44 1f 04       	mov    0x4(%rdi,%rbx,1),%r8d
    4bd0:	0f ae e8             	lfence 
    4bd3:	45 89 c2             	mov    %r8d,%r10d
    4bd6:	41 83 e2 02          	and    $0x2,%r10d
    4bda:	45 85 d2             	test   %r10d,%r10d
    4bdd:	0f 85 0f 03 00 00    	jne    4ef2 <guest_func_14+0x622>
    4be3:	41 ba 18 05 00 00    	mov    $0x518,%r10d
    4be9:	45 89 d2             	mov    %r10d,%r10d
    4bec:	46 8b 14 17          	mov    (%rdi,%r10,1),%r10d
    4bf0:	44 39 d1             	cmp    %r10d,%ecx
    4bf3:	0f ae e8             	lfence 
    4bf6:	75 4f                	jne    4c47 <guest_func_14+0x377>
    4bf8:	b9 18 05 00 00       	mov    $0x518,%ecx
    4bfd:	89 c9                	mov    %ecx,%ecx
    4bff:	89 34 0f             	mov    %esi,(%rdi,%rcx,1)
    4c02:	b9 0c 05 00 00       	mov    $0x50c,%ecx
    4c07:	89 c9                	mov    %ecx,%ecx
    4c09:	8b 1c 0f             	mov    (%rdi,%rcx,1),%ebx
    4c0c:	01 d3                	add    %edx,%ebx
    4c0e:	89 1c 0f             	mov    %ebx,(%rdi,%rcx,1)
    4c11:	83 cb 01             	or     $0x1,%ebx
    4c14:	89 f1                	mov    %esi,%ecx
    4c16:	89 5c 0f 04          	mov    %ebx,0x4(%rdi,%rcx,1)
    4c1a:	b9 14 05 00 00       	mov    $0x514,%ecx
    4c1f:	89 c9                	mov    %ecx,%ecx
    4c21:	8b 14 0f             	mov    (%rdi,%rcx,1),%edx
    4c24:	39 f2                	cmp    %esi,%edx
    4c26:	0f ae e8             	lfence 
    4c29:	0f 85 64 05 00 00    	jne    5193 <guest_func_14+0x8c3>
    4c2f:	ba 08 05 00 00       	mov    $0x508,%edx
    4c34:	89 d2                	mov    %edx,%edx
    4c36:	89 04 17             	mov    %eax,(%rdi,%rdx,1)
    4c39:	89 04 0f             	mov    %eax,(%rdi,%rcx,1)
    4c3c:	41 5f                	pop    %r15
    4c3e:	41 5e                	pop    %r14
    4c40:	41 5d                	pop    %r13
    4c42:	41 5c                	pop    %r12
    4c44:	5b                   	pop    %rbx
    4c45:	5d                   	pop    %rbp
    4c46:	c3                   	retq   
    4c47:	41 ba 14 05 00 00    	mov    $0x514,%r10d
    4c4d:	45 89 d2             	mov    %r10d,%r10d
    4c50:	46 8b 1c 17          	mov    (%rdi,%r10,1),%r11d
    4c54:	44 39 d9             	cmp    %r11d,%ecx
    4c57:	0f ae e8             	lfence 
    4c5a:	75 39                	jne    4c95 <guest_func_14+0x3c5>
    4c5c:	b8 14 05 00 00       	mov    $0x514,%eax
    4c61:	89 c0                	mov    %eax,%eax
    4c63:	89 34 07             	mov    %esi,(%rdi,%rax,1)
    4c66:	b8 08 05 00 00       	mov    $0x508,%eax
    4c6b:	89 c0                	mov    %eax,%eax
    4c6d:	8b 0c 07             	mov    (%rdi,%rax,1),%ecx
    4c70:	01 d1                	add    %edx,%ecx
    4c72:	89 0c 07             	mov    %ecx,(%rdi,%rax,1)
    4c75:	89 c8                	mov    %ecx,%eax
    4c77:	83 c8 01             	or     $0x1,%eax
    4c7a:	89 f2                	mov    %esi,%edx
    4c7c:	89 44 17 04          	mov    %eax,0x4(%rdi,%rdx,1)
    4c80:	01 ce                	add    %ecx,%esi
    4c82:	89 f0                	mov    %esi,%eax
    4c84:	0f ae e8             	lfence 
    4c87:	89 0c 07             	mov    %ecx,(%rdi,%rax,1)
    4c8a:	41 5f                	pop    %r15
    4c8c:	41 5e                	pop    %r14
    4c8e:	41 5d                	pop    %r13
    4c90:	41 5c                	pop    %r12
    4c92:	5b                   	pop    %rbx
    4c93:	5d                   	pop    %rbp
    4c94:	c3                   	retq   
    4c95:	41 bb 10 05 00 00    	mov    $0x510,%r11d
    4c9b:	45 89 db             	mov    %r11d,%r11d
    4c9e:	46 8b 1c 1f          	mov    (%rdi,%r11,1),%r11d
    4ca2:	45 89 c4             	mov    %r8d,%r12d
    4ca5:	41 83 e4 f8          	and    $0xfffffff8,%r12d
    4ca9:	41 01 d4             	add    %edx,%r12d
    4cac:	41 81 f8 ff 00 00 00 	cmp    $0xff,%r8d
    4cb3:	77 68                	ja     4d1d <guest_func_14+0x44d>
    4cb5:	8b 4c 1f 0c          	mov    0xc(%rdi,%rbx,1),%ecx
    4cb9:	0f ae e8             	lfence 
    4cbc:	8b 54 1f 08          	mov    0x8(%rdi,%rbx,1),%edx
    4cc0:	0f ae e8             	lfence 
    4cc3:	44 89 c3             	mov    %r8d,%ebx
    4cc6:	c1 eb 03             	shr    $0x3,%ebx
    4cc9:	41 89 d8             	mov    %ebx,%r8d
    4ccc:	41 c1 e0 03          	shl    $0x3,%r8d
    4cd0:	41 81 c0 28 05 00 00 	add    $0x528,%r8d
    4cd7:	44 39 c2             	cmp    %r8d,%edx
    4cda:	74 00                	je     4cdc <guest_func_14+0x40c>
    4cdc:	39 d1                	cmp    %edx,%ecx
    4cde:	75 27                	jne    4d07 <guest_func_14+0x437>
    4ce0:	b9 00 05 00 00       	mov    $0x500,%ecx
    4ce5:	89 c9                	mov    %ecx,%ecx
    4ce7:	8b 14 0f             	mov    (%rdi,%rcx,1),%edx
    4cea:	41 b8 fe ff ff ff    	mov    $0xfffffffe,%r8d
    4cf0:	49 89 cb             	mov    %rcx,%r11
    4cf3:	40 89 d9             	rex mov %ebx,%ecx
    4cf6:	4c 89 db             	mov    %r11,%rbx
    4cf9:	41 d3 c0             	rol    %cl,%r8d
    4cfc:	44 21 c2             	and    %r8d,%edx
    4cff:	89 14 1f             	mov    %edx,(%rdi,%rbx,1)
    4d02:	e9 b3 01 00 00       	jmpq   4eba <guest_func_14+0x5ea>
    4d07:	44 39 c1             	cmp    %r8d,%ecx
    4d0a:	74 00                	je     4d0c <guest_func_14+0x43c>
    4d0c:	89 cb                	mov    %ecx,%ebx
    4d0e:	89 54 1f 08          	mov    %edx,0x8(%rdi,%rbx,1)
    4d12:	89 d2                	mov    %edx,%edx
    4d14:	89 4c 17 0c          	mov    %ecx,0xc(%rdi,%rdx,1)
    4d18:	e9 9d 01 00 00       	jmpq   4eba <guest_func_14+0x5ea>
    4d1d:	8b 54 1f 18          	mov    0x18(%rdi,%rbx,1),%edx
    4d21:	0f ae e8             	lfence 
    4d24:	44 8b 44 1f 0c       	mov    0xc(%rdi,%rbx,1),%r8d
    4d29:	0f ae e8             	lfence 
    4d2c:	41 39 c8             	cmp    %ecx,%r8d
    4d2f:	74 30                	je     4d61 <guest_func_14+0x491>
    4d31:	44 8b 6c 1f 08       	mov    0x8(%rdi,%rbx,1),%r13d
    4d36:	0f ae e8             	lfence 
    4d39:	45 39 eb             	cmp    %r13d,%r11d
    4d3c:	0f ae e8             	lfence 
    4d3f:	77 08                	ja     4d49 <guest_func_14+0x479>
    4d41:	45 89 eb             	mov    %r13d,%r11d
    4d44:	46 8b 5c 1f 0c       	mov    0xc(%rdi,%r11,1),%r11d
    4d49:	45 89 c3             	mov    %r8d,%r11d
    4d4c:	46 89 6c 1f 08       	mov    %r13d,0x8(%rdi,%r11,1)
    4d51:	45 89 eb             	mov    %r13d,%r11d
    4d54:	46 89 44 1f 0c       	mov    %r8d,0xc(%rdi,%r11,1)
    4d59:	45 89 c3             	mov    %r8d,%r11d
    4d5c:	e9 8a 00 00 00       	jmpq   4deb <guest_func_14+0x51b>
    4d61:	41 89 c8             	mov    %ecx,%r8d
    4d64:	41 83 c0 14          	add    $0x14,%r8d
    4d68:	45 89 c3             	mov    %r8d,%r11d
    4d6b:	46 8b 1c 1f          	mov    (%rdi,%r11,1),%r11d
    4d6f:	0f ae e8             	lfence 
    4d72:	45 85 db             	test   %r11d,%r11d
    4d75:	75 1e                	jne    4d95 <guest_func_14+0x4c5>
    4d77:	41 89 c8             	mov    %ecx,%r8d
    4d7a:	41 83 c0 10          	add    $0x10,%r8d
    4d7e:	45 89 c3             	mov    %r8d,%r11d
    4d81:	46 8b 1c 1f          	mov    (%rdi,%r11,1),%r11d
    4d85:	0f ae e8             	lfence 
    4d88:	45 85 db             	test   %r11d,%r11d
    4d8b:	75 08                	jne    4d95 <guest_func_14+0x4c5>
    4d8d:	41 89 c0             	mov    %eax,%r8d
    4d90:	45 89 c3             	mov    %r8d,%r11d
    4d93:	eb 56                	jmp    4deb <guest_func_14+0x51b>
    4d95:	eb 20                	jmp    4db7 <guest_func_14+0x4e7>
    4d97:	45 89 f0             	mov    %r14d,%r8d
    4d9a:	45 89 eb             	mov    %r13d,%r11d
    4d9d:	45 89 df             	mov    %r11d,%r15d
    4da0:	45 89 c3             	mov    %r8d,%r11d
    4da3:	45 89 f8             	mov    %r15d,%r8d
    4da6:	eb 0f                	jmp    4db7 <guest_func_14+0x4e7>
    4da8:	45 89 f0             	mov    %r14d,%r8d
    4dab:	45 89 eb             	mov    %r13d,%r11d
    4dae:	45 89 df             	mov    %r11d,%r15d
    4db1:	45 89 c3             	mov    %r8d,%r11d
    4db4:	45 89 f8             	mov    %r15d,%r8d
    4db7:	45 89 dd             	mov    %r11d,%r13d
    4dba:	41 83 c5 14          	add    $0x14,%r13d
    4dbe:	45 89 ee             	mov    %r13d,%r14d
    4dc1:	46 8b 34 37          	mov    (%rdi,%r14,1),%r14d
    4dc5:	0f ae e8             	lfence 
    4dc8:	45 85 f6             	test   %r14d,%r14d
    4dcb:	75 ca                	jne    4d97 <guest_func_14+0x4c7>
    4dcd:	45 89 dd             	mov    %r11d,%r13d
    4dd0:	41 83 c5 10          	add    $0x10,%r13d
    4dd4:	45 89 de             	mov    %r11d,%r14d
    4dd7:	46 8b 74 37 10       	mov    0x10(%rdi,%r14,1),%r14d
    4ddc:	0f ae e8             	lfence 
    4ddf:	45 85 f6             	test   %r14d,%r14d
    4de2:	75 c4                	jne    4da8 <guest_func_14+0x4d8>
    4de4:	45 89 c0             	mov    %r8d,%r8d
    4de7:	42 89 04 07          	mov    %eax,(%rdi,%r8,1)
    4deb:	85 d2                	test   %edx,%edx
    4ded:	0f 84 c7 00 00 00    	je     4eba <guest_func_14+0x5ea>
    4df3:	44 8b 44 1f 1c       	mov    0x1c(%rdi,%rbx,1),%r8d
    4df8:	45 89 c5             	mov    %r8d,%r13d
    4dfb:	41 c1 e5 02          	shl    $0x2,%r13d
    4dff:	41 81 c5 30 06 00 00 	add    $0x630,%r13d
    4e06:	0f ae e8             	lfence 
    4e09:	45 89 ed             	mov    %r13d,%r13d
    4e0c:	46 8b 34 2f          	mov    (%rdi,%r13,1),%r14d
    4e10:	44 39 f1             	cmp    %r14d,%ecx
    4e13:	0f ae e8             	lfence 
    4e16:	75 2b                	jne    4e43 <guest_func_14+0x573>
    4e18:	46 89 1c 2f          	mov    %r11d,(%rdi,%r13,1)
    4e1c:	45 85 db             	test   %r11d,%r11d
    4e1f:	75 57                	jne    4e78 <guest_func_14+0x5a8>
    4e21:	b9 04 05 00 00       	mov    $0x504,%ecx
    4e26:	89 c9                	mov    %ecx,%ecx
    4e28:	8b 14 0f             	mov    (%rdi,%rcx,1),%edx
    4e2b:	bb fe ff ff ff       	mov    $0xfffffffe,%ebx
    4e30:	49 89 cb             	mov    %rcx,%r11
    4e33:	44 89 c1             	mov    %r8d,%ecx
    4e36:	4d 89 d8             	mov    %r11,%r8
    4e39:	d3 c3                	rol    %cl,%ebx
    4e3b:	21 da                	and    %ebx,%edx
    4e3d:	42 89 14 07          	mov    %edx,(%rdi,%r8,1)
    4e41:	eb 77                	jmp    4eba <guest_func_14+0x5ea>
    4e43:	41 b8 10 00 00 00    	mov    $0x10,%r8d
    4e49:	41 bd 14 00 00 00    	mov    $0x14,%r13d
    4e4f:	41 89 d6             	mov    %edx,%r14d
    4e52:	46 8b 74 37 10       	mov    0x10(%rdi,%r14,1),%r14d
    4e57:	41 39 ce             	cmp    %ecx,%r14d
    4e5a:	0f ae e8             	lfence 
    4e5d:	0f 84 06 00 00 00    	je     4e69 <guest_func_14+0x599>
    4e63:	44 89 e9             	mov    %r13d,%ecx
    4e66:	41 89 c8             	mov    %ecx,%r8d
    4e69:	41 01 d0             	add    %edx,%r8d
    4e6c:	44 89 c1             	mov    %r8d,%ecx
    4e6f:	44 89 1c 0f          	mov    %r11d,(%rdi,%rcx,1)
    4e73:	45 85 db             	test   %r11d,%r11d
    4e76:	74 42                	je     4eba <guest_func_14+0x5ea>
    4e78:	44 89 d9             	mov    %r11d,%ecx
    4e7b:	89 54 0f 18          	mov    %edx,0x18(%rdi,%rcx,1)
    4e7f:	8b 54 1f 10          	mov    0x10(%rdi,%rbx,1),%edx
    4e83:	0f ae e8             	lfence 
    4e86:	85 d2                	test   %edx,%edx
    4e88:	0f 84 0b 00 00 00    	je     4e99 <guest_func_14+0x5c9>
    4e8e:	89 54 0f 10          	mov    %edx,0x10(%rdi,%rcx,1)
    4e92:	89 d1                	mov    %edx,%ecx
    4e94:	44 89 5c 0f 18       	mov    %r11d,0x18(%rdi,%rcx,1)
    4e99:	8b 4c 1f 14          	mov    0x14(%rdi,%rbx,1),%ecx
    4e9d:	0f ae e8             	lfence 
    4ea0:	85 c9                	test   %ecx,%ecx
    4ea2:	0f 84 12 00 00 00    	je     4eba <guest_func_14+0x5ea>
    4ea8:	44 89 da             	mov    %r11d,%edx
    4eab:	83 c2 14             	add    $0x14,%edx
    4eae:	89 d2                	mov    %edx,%edx
    4eb0:	89 0c 17             	mov    %ecx,(%rdi,%rdx,1)
    4eb3:	89 c9                	mov    %ecx,%ecx
    4eb5:	44 89 5c 0f 18       	mov    %r11d,0x18(%rdi,%rcx,1)
    4eba:	89 f1                	mov    %esi,%ecx
    4ebc:	44 01 e1             	add    %r12d,%ecx
    4ebf:	89 c9                	mov    %ecx,%ecx
    4ec1:	44 89 24 0f          	mov    %r12d,(%rdi,%rcx,1)
    4ec5:	44 89 e1             	mov    %r12d,%ecx
    4ec8:	83 c9 01             	or     $0x1,%ecx
    4ecb:	89 f2                	mov    %esi,%edx
    4ecd:	89 4c 17 04          	mov    %ecx,0x4(%rdi,%rdx,1)
    4ed1:	42 8b 0c 17          	mov    (%rdi,%r10,1),%ecx
    4ed5:	39 f1                	cmp    %esi,%ecx
    4ed7:	0f ae e8             	lfence 
    4eda:	75 38                	jne    4f14 <guest_func_14+0x644>
    4edc:	b8 08 05 00 00       	mov    $0x508,%eax
    4ee1:	89 c0                	mov    %eax,%eax
    4ee3:	44 89 24 07          	mov    %r12d,(%rdi,%rax,1)
    4ee7:	41 5f                	pop    %r15
    4ee9:	41 5e                	pop    %r14
    4eeb:	41 5d                	pop    %r13
    4eed:	41 5c                	pop    %r12
    4eef:	5b                   	pop    %rbx
    4ef0:	5d                   	pop    %rbp
    4ef1:	c3                   	retq   
    4ef2:	41 83 e0 fe          	and    $0xfffffffe,%r8d
    4ef6:	44 89 44 1f 04       	mov    %r8d,0x4(%rdi,%rbx,1)
    4efb:	89 f1                	mov    %esi,%ecx
    4efd:	01 d1                	add    %edx,%ecx
    4eff:	89 c9                	mov    %ecx,%ecx
    4f01:	89 14 0f             	mov    %edx,(%rdi,%rcx,1)
    4f04:	89 d1                	mov    %edx,%ecx
    4f06:	83 c9 01             	or     $0x1,%ecx
    4f09:	89 f3                	mov    %esi,%ebx
    4f0b:	89 4c 1f 04          	mov    %ecx,0x4(%rdi,%rbx,1)
    4f0f:	e9 03 00 00 00       	jmpq   4f17 <guest_func_14+0x647>
    4f14:	44 89 e2             	mov    %r12d,%edx
    4f17:	81 fa ff 00 00 00    	cmp    $0xff,%edx
    4f1d:	77 6f                	ja     4f8e <guest_func_14+0x6be>
    4f1f:	c1 ea 03             	shr    $0x3,%edx
    4f22:	89 d0                	mov    %edx,%eax
    4f24:	c1 e0 03             	shl    $0x3,%eax
    4f27:	81 c0 28 05 00 00    	add    $0x528,%eax
    4f2d:	b9 00 05 00 00       	mov    $0x500,%ecx
    4f32:	89 c9                	mov    %ecx,%ecx
    4f34:	8b 1c 0f             	mov    (%rdi,%rcx,1),%ebx
    4f37:	45 89 c8             	mov    %r9d,%r8d
    4f3a:	49 89 c9             	mov    %rcx,%r9
    4f3d:	40 89 d1             	rex mov %edx,%ecx
    4f40:	4c 89 ca             	mov    %r9,%rdx
    4f43:	41 d3 e0             	shl    %cl,%r8d
    4f46:	89 d9                	mov    %ebx,%ecx
    4f48:	44 21 c1             	and    %r8d,%ecx
    4f4b:	0f ae e8             	lfence 
    4f4e:	85 c9                	test   %ecx,%ecx
    4f50:	0f 85 0e 00 00 00    	jne    4f64 <guest_func_14+0x694>
    4f56:	41 09 d8             	or     %ebx,%r8d
    4f59:	44 89 04 17          	mov    %r8d,(%rdi,%rdx,1)
    4f5d:	89 c1                	mov    %eax,%ecx
    4f5f:	e9 06 00 00 00       	jmpq   4f6a <guest_func_14+0x69a>
    4f64:	89 c1                	mov    %eax,%ecx
    4f66:	8b 4c 0f 08          	mov    0x8(%rdi,%rcx,1),%ecx
    4f6a:	89 ca                	mov    %ecx,%edx
    4f6c:	0f ae e8             	lfence 
    4f6f:	89 74 17 0c          	mov    %esi,0xc(%rdi,%rdx,1)
    4f73:	89 c2                	mov    %eax,%edx
    4f75:	89 74 17 08          	mov    %esi,0x8(%rdi,%rdx,1)
    4f79:	89 f2                	mov    %esi,%edx
    4f7b:	89 44 17 0c          	mov    %eax,0xc(%rdi,%rdx,1)
    4f7f:	89 4c 17 08          	mov    %ecx,0x8(%rdi,%rdx,1)
    4f83:	41 5f                	pop    %r15
    4f85:	41 5e                	pop    %r14
    4f87:	41 5d                	pop    %r13
    4f89:	41 5c                	pop    %r12
    4f8b:	5b                   	pop    %rbx
    4f8c:	5d                   	pop    %rbp
    4f8d:	c3                   	retq   
    4f8e:	31 c9                	xor    %ecx,%ecx
    4f90:	89 f3                	mov    %esi,%ebx
    4f92:	48 89 4c 1f 10       	mov    %rcx,0x10(%rdi,%rbx,1)
    4f97:	89 f1                	mov    %esi,%ecx
    4f99:	83 c1 1c             	add    $0x1c,%ecx
    4f9c:	41 89 d0             	mov    %edx,%r8d
    4f9f:	41 c1 e8 08          	shr    $0x8,%r8d
    4fa3:	45 85 c0             	test   %r8d,%r8d
    4fa6:	0f 84 a5 00 00 00    	je     5051 <guest_func_14+0x781>
    4fac:	41 ba 1f 00 00 00    	mov    $0x1f,%r10d
    4fb2:	81 fa ff ff ff 00    	cmp    $0xffffff,%edx
    4fb8:	0f 87 9b 00 00 00    	ja     5059 <guest_func_14+0x789>
    4fbe:	45 89 c2             	mov    %r8d,%r10d
    4fc1:	41 81 c2 00 ff 0f 00 	add    $0xfff00,%r10d
    4fc8:	41 c1 ea 10          	shr    $0x10,%r10d
    4fcc:	41 83 e2 08          	and    $0x8,%r10d
    4fd0:	41 89 cb             	mov    %ecx,%r11d
    4fd3:	44 89 d1             	mov    %r10d,%ecx
    4fd6:	45 89 da             	mov    %r11d,%r10d
    4fd9:	41 d3 e0             	shl    %cl,%r8d
    4fdc:	45 89 c3             	mov    %r8d,%r11d
    4fdf:	41 81 c3 00 f0 07 00 	add    $0x7f000,%r11d
    4fe6:	41 c1 eb 10          	shr    $0x10,%r11d
    4fea:	41 83 e3 04          	and    $0x4,%r11d
    4fee:	41 89 cc             	mov    %ecx,%r12d
    4ff1:	44 89 d9             	mov    %r11d,%ecx
    4ff4:	45 89 e3             	mov    %r12d,%r11d
    4ff7:	41 d3 e0             	shl    %cl,%r8d
    4ffa:	45 89 c4             	mov    %r8d,%r12d
    4ffd:	41 81 c4 00 c0 03 00 	add    $0x3c000,%r12d
    5004:	41 c1 ec 10          	shr    $0x10,%r12d
    5008:	41 83 e4 02          	and    $0x2,%r12d
    500c:	41 89 cd             	mov    %ecx,%r13d
    500f:	44 89 e1             	mov    %r12d,%ecx
    5012:	45 89 ec             	mov    %r13d,%r12d
    5015:	41 d3 e0             	shl    %cl,%r8d
    5018:	41 c1 e8 0f          	shr    $0xf,%r8d
    501c:	45 09 dc             	or     %r11d,%r12d
    501f:	41 09 cc             	or     %ecx,%r12d
    5022:	45 29 e0             	sub    %r12d,%r8d
    5025:	44 89 c1             	mov    %r8d,%ecx
    5028:	c1 e1 01             	shl    $0x1,%ecx
    502b:	41 83 c0 15          	add    $0x15,%r8d
    502f:	41 89 d3             	mov    %edx,%r11d
    5032:	41 89 cc             	mov    %ecx,%r12d
    5035:	44 89 c1             	mov    %r8d,%ecx
    5038:	45 89 e0             	mov    %r12d,%r8d
    503b:	41 d3 eb             	shr    %cl,%r11d
    503e:	41 83 e3 01          	and    $0x1,%r11d
    5042:	45 09 d8             	or     %r11d,%r8d
    5045:	41 83 c0 1c          	add    $0x1c,%r8d
    5049:	44 89 d1             	mov    %r10d,%ecx
    504c:	e9 0b 00 00 00       	jmpq   505c <guest_func_14+0x78c>
    5051:	41 89 c0             	mov    %eax,%r8d
    5054:	e9 03 00 00 00       	jmpq   505c <guest_func_14+0x78c>
    5059:	45 89 d0             	mov    %r10d,%r8d
    505c:	89 c9                	mov    %ecx,%ecx
    505e:	44 89 04 0f          	mov    %r8d,(%rdi,%rcx,1)
    5062:	44 89 c1             	mov    %r8d,%ecx
    5065:	c1 e1 02             	shl    $0x2,%ecx
    5068:	81 c1 30 06 00 00    	add    $0x630,%ecx
    506e:	41 ba 04 05 00 00    	mov    $0x504,%r10d
    5074:	45 89 d2             	mov    %r10d,%r10d
    5077:	46 8b 1c 17          	mov    (%rdi,%r10,1),%r11d
    507b:	41 89 cc             	mov    %ecx,%r12d
    507e:	44 89 c1             	mov    %r8d,%ecx
    5081:	45 89 e0             	mov    %r12d,%r8d
    5084:	41 d3 e1             	shl    %cl,%r9d
    5087:	45 89 dc             	mov    %r11d,%r12d
    508a:	45 21 cc             	and    %r9d,%r12d
    508d:	41 89 cd             	mov    %ecx,%r13d
    5090:	44 89 c1             	mov    %r8d,%ecx
    5093:	45 89 e8             	mov    %r13d,%r8d
    5096:	0f ae e8             	lfence 
    5099:	45 85 e4             	test   %r12d,%r12d
    509c:	0f 85 29 00 00 00    	jne    50cb <guest_func_14+0x7fb>
    50a2:	89 c8                	mov    %ecx,%eax
    50a4:	89 34 07             	mov    %esi,(%rdi,%rax,1)
    50a7:	45 09 cb             	or     %r9d,%r11d
    50aa:	46 89 1c 17          	mov    %r11d,(%rdi,%r10,1)
    50ae:	89 f0                	mov    %esi,%eax
    50b0:	83 c0 18             	add    $0x18,%eax
    50b3:	89 c0                	mov    %eax,%eax
    50b5:	89 0c 07             	mov    %ecx,(%rdi,%rax,1)
    50b8:	89 74 1f 08          	mov    %esi,0x8(%rdi,%rbx,1)
    50bc:	89 74 1f 0c          	mov    %esi,0xc(%rdi,%rbx,1)
    50c0:	41 5f                	pop    %r15
    50c2:	41 5e                	pop    %r14
    50c4:	41 5d                	pop    %r13
    50c6:	41 5c                	pop    %r12
    50c8:	5b                   	pop    %rbx
    50c9:	5d                   	pop    %rbp
    50ca:	c3                   	retq   
    50cb:	41 b9 19 00 00 00    	mov    $0x19,%r9d
    50d1:	45 89 c2             	mov    %r8d,%r10d
    50d4:	41 c1 ea 01          	shr    $0x1,%r10d
    50d8:	45 29 d1             	sub    %r10d,%r9d
    50db:	41 83 f8 1f          	cmp    $0x1f,%r8d
    50df:	0f 84 08 00 00 00    	je     50ed <guest_func_14+0x81d>
    50e5:	45 89 c8             	mov    %r9d,%r8d
    50e8:	e9 03 00 00 00       	jmpq   50f0 <guest_func_14+0x820>
    50ed:	41 89 c0             	mov    %eax,%r8d
    50f0:	41 89 d1             	mov    %edx,%r9d
    50f3:	41 89 ca             	mov    %ecx,%r10d
    50f6:	44 89 c1             	mov    %r8d,%ecx
    50f9:	45 89 d0             	mov    %r10d,%r8d
    50fc:	41 d3 e1             	shl    %cl,%r9d
    50ff:	44 89 c1             	mov    %r8d,%ecx
    5102:	8b 0c 0f             	mov    (%rdi,%rcx,1),%ecx
    5105:	e9 03 00 00 00       	jmpq   510d <guest_func_14+0x83d>
    510a:	44 89 d1             	mov    %r10d,%ecx
    510d:	0f ae e8             	lfence 
    5110:	41 89 c8             	mov    %ecx,%r8d
    5113:	46 8b 54 07 04       	mov    0x4(%rdi,%r8,1),%r10d
    5118:	41 83 e2 f8          	and    $0xfffffff8,%r10d
    511c:	41 39 d2             	cmp    %edx,%r10d
    511f:	0f ae e8             	lfence 
    5122:	0f 84 46 00 00 00    	je     516e <guest_func_14+0x89e>
    5128:	45 89 c8             	mov    %r9d,%r8d
    512b:	41 c1 e8 1d          	shr    $0x1d,%r8d
    512f:	41 c1 e1 01          	shl    $0x1,%r9d
    5133:	41 83 e0 04          	and    $0x4,%r8d
    5137:	41 01 c8             	add    %ecx,%r8d
    513a:	41 83 c0 10          	add    $0x10,%r8d
    513e:	45 89 c0             	mov    %r8d,%r8d
    5141:	46 8b 14 07          	mov    (%rdi,%r8,1),%r10d
    5145:	0f ae e8             	lfence 
    5148:	45 85 d2             	test   %r10d,%r10d
    514b:	75 bd                	jne    510a <guest_func_14+0x83a>
    514d:	42 89 34 07          	mov    %esi,(%rdi,%r8,1)
    5151:	89 f0                	mov    %esi,%eax
    5153:	83 c0 18             	add    $0x18,%eax
    5156:	89 c0                	mov    %eax,%eax
    5158:	89 0c 07             	mov    %ecx,(%rdi,%rax,1)
    515b:	89 74 1f 0c          	mov    %esi,0xc(%rdi,%rbx,1)
    515f:	89 74 1f 08          	mov    %esi,0x8(%rdi,%rbx,1)
    5163:	41 5f                	pop    %r15
    5165:	41 5e                	pop    %r14
    5167:	41 5d                	pop    %r13
    5169:	41 5c                	pop    %r12
    516b:	5b                   	pop    %rbx
    516c:	5d                   	pop    %rbp
    516d:	c3                   	retq   
    516e:	42 8b 54 07 08       	mov    0x8(%rdi,%r8,1),%edx
    5173:	42 89 74 07 08       	mov    %esi,0x8(%rdi,%r8,1)
    5178:	41 89 d0             	mov    %edx,%r8d
    517b:	0f ae e8             	lfence 
    517e:	42 89 74 07 0c       	mov    %esi,0xc(%rdi,%r8,1)
    5183:	83 c6 18             	add    $0x18,%esi
    5186:	89 f6                	mov    %esi,%esi
    5188:	89 04 37             	mov    %eax,(%rdi,%rsi,1)
    518b:	89 54 1f 08          	mov    %edx,0x8(%rdi,%rbx,1)
    518f:	89 4c 1f 0c          	mov    %ecx,0xc(%rdi,%rbx,1)
    5193:	41 5f                	pop    %r15
    5195:	41 5e                	pop    %r14
    5197:	41 5d                	pop    %r13
    5199:	41 5c                	pop    %r12
    519b:	5b                   	pop    %rbx
    519c:	5d                   	pop    %rbp
    519d:	c3                   	retq   
	...

00000000000051a0 <guest_func_strlen>:
    51a0:	55                   	push   %rbp
    51a1:	48 89 e5             	mov    %rsp,%rbp
    51a4:	53                   	push   %rbx
    51a5:	31 c0                	xor    %eax,%eax
    51a7:	89 f1                	mov    %esi,%ecx
    51a9:	83 e1 03             	and    $0x3,%ecx
    51ac:	85 c9                	test   %ecx,%ecx
    51ae:	74 36                	je     51e6 <guest_func_strlen+0x46>
    51b0:	89 f1                	mov    %esi,%ecx
    51b2:	0f b6 0c 0f          	movzbl (%rdi,%rcx,1),%ecx
    51b6:	0f ae e8             	lfence 
    51b9:	85 c9                	test   %ecx,%ecx
    51bb:	75 03                	jne    51c0 <guest_func_strlen+0x20>
    51bd:	5b                   	pop    %rbx
    51be:	5d                   	pop    %rbp
    51bf:	c3                   	retq   
    51c0:	89 f0                	mov    %esi,%eax
    51c2:	83 c0 01             	add    $0x1,%eax
    51c5:	eb 02                	jmp    51c9 <guest_func_strlen+0x29>
    51c7:	89 d0                	mov    %edx,%eax
    51c9:	89 c1                	mov    %eax,%ecx
    51cb:	83 e1 03             	and    $0x3,%ecx
    51ce:	85 c9                	test   %ecx,%ecx
    51d0:	74 16                	je     51e8 <guest_func_strlen+0x48>
    51d2:	89 c1                	mov    %eax,%ecx
    51d4:	0f b6 0c 0f          	movzbl (%rdi,%rcx,1),%ecx
    51d8:	89 c2                	mov    %eax,%edx
    51da:	83 c2 01             	add    $0x1,%edx
    51dd:	0f ae e8             	lfence 
    51e0:	85 c9                	test   %ecx,%ecx
    51e2:	75 e3                	jne    51c7 <guest_func_strlen+0x27>
    51e4:	eb 49                	jmp    522f <guest_func_strlen+0x8f>
    51e6:	89 f0                	mov    %esi,%eax
    51e8:	83 c0 fc             	add    $0xfffffffc,%eax
    51eb:	83 c0 04             	add    $0x4,%eax
    51ee:	89 c1                	mov    %eax,%ecx
    51f0:	8b 0c 0f             	mov    (%rdi,%rcx,1),%ecx
    51f3:	0f ae e8             	lfence 
    51f6:	89 ca                	mov    %ecx,%edx
    51f8:	83 f2 ff             	xor    $0xffffffff,%edx
    51fb:	89 cb                	mov    %ecx,%ebx
    51fd:	81 c3 ff fe fe fe    	add    $0xfefefeff,%ebx
    5203:	21 da                	and    %ebx,%edx
    5205:	81 e2 80 80 80 80    	and    $0x80808080,%edx
    520b:	85 d2                	test   %edx,%edx
    520d:	74 dc                	je     51eb <guest_func_strlen+0x4b>
    520f:	81 e1 ff 00 00 00    	and    $0xff,%ecx
    5215:	85 c9                	test   %ecx,%ecx
    5217:	75 05                	jne    521e <guest_func_strlen+0x7e>
    5219:	29 f0                	sub    %esi,%eax
    521b:	5b                   	pop    %rbx
    521c:	5d                   	pop    %rbp
    521d:	c3                   	retq   
    521e:	89 c1                	mov    %eax,%ecx
    5220:	0f b6 4c 0f 01       	movzbl 0x1(%rdi,%rcx,1),%ecx
    5225:	83 c0 01             	add    $0x1,%eax
    5228:	0f ae e8             	lfence 
    522b:	85 c9                	test   %ecx,%ecx
    522d:	75 ef                	jne    521e <guest_func_strlen+0x7e>
    522f:	29 f0                	sub    %esi,%eax
    5231:	5b                   	pop    %rbx
    5232:	5d                   	pop    %rbp
    5233:	c3                   	retq   
	...

0000000000005240 <guest_func_blake2b>:
    5240:	55                   	push   %rbp
    5241:	48 89 e5             	mov    %rsp,%rbp
    5244:	53                   	push   %rbx
    5245:	41 54                	push   %r12
    5247:	41 55                	push   %r13
    5249:	41 56                	push   %r14
    524b:	41 57                	push   %r15
    524d:	48 83 ec 38          	sub    $0x38,%rsp
    5251:	48 89 bc 24 10 00 00 	mov    %rdi,0x10(%rsp)
    5258:	00 
    5259:	89 b4 24 34 00 00 00 	mov    %esi,0x34(%rsp)
    5260:	89 8c 24 2c 00 00 00 	mov    %ecx,0x2c(%rsp)
    5267:	44 89 84 24 28 00 00 	mov    %r8d,0x28(%rsp)
    526e:	00 
    526f:	44 89 8c 24 24 00 00 	mov    %r9d,0x24(%rsp)
    5276:	00 
    5277:	31 c0                	xor    %eax,%eax
    5279:	89 84 24 20 00 00 00 	mov    %eax,0x20(%rsp)
    5280:	31 c0                	xor    %eax,%eax
    5282:	49 89 ff             	mov    %rdi,%r15
    5285:	49 8b 4f f0          	mov    -0x10(%r15),%rcx
    5289:	0f ae e8             	lfence 
    528c:	8b 09                	mov    (%rcx),%ecx
    528e:	0f ae e8             	lfence 
    5291:	89 cb                	mov    %ecx,%ebx
    5293:	81 c3 20 ff ff ff    	add    $0xffffff20,%ebx
    5299:	89 9c 24 30 00 00 00 	mov    %ebx,0x30(%rsp)
    52a0:	49 8b 5f f0          	mov    -0x10(%r15),%rbx
    52a4:	44 8b bc 24 30 00 00 	mov    0x30(%rsp),%r15d
    52ab:	00 
    52ac:	0f ae e8             	lfence 
    52af:	44 89 3b             	mov    %r15d,(%rbx)
    52b2:	bb ff ff ff ff       	mov    $0xffffffff,%ebx
    52b7:	89 d6                	mov    %edx,%esi
    52b9:	83 c6 ff             	add    $0xffffffff,%esi
    52bc:	83 fe 3f             	cmp    $0x3f,%esi
    52bf:	0f 87 b0 05 00 00    	ja     5875 <guest_func_blake2b+0x635>
    52c5:	45 89 c7             	mov    %r8d,%r15d
    52c8:	41 83 ff 40          	cmp    $0x40,%r15d
    52cc:	0f 87 a3 05 00 00    	ja     5875 <guest_func_blake2b+0x635>
    52d2:	89 cb                	mov    %ecx,%ebx
    52d4:	83 c3 e0             	add    $0xffffffe0,%ebx
    52d7:	be 38 04 00 00       	mov    $0x438,%esi
    52dc:	89 f6                	mov    %esi,%esi
    52de:	49 89 ff             	mov    %rdi,%r15
    52e1:	49 8b 34 37          	mov    (%r15,%rsi,1),%rsi
    52e5:	89 db                	mov    %ebx,%ebx
    52e7:	49 89 34 1f          	mov    %rsi,(%r15,%rbx,1)
    52eb:	89 cb                	mov    %ecx,%ebx
    52ed:	83 c3 d8             	add    $0xffffffd8,%ebx
    52f0:	be 30 04 00 00       	mov    $0x430,%esi
    52f5:	89 f6                	mov    %esi,%esi
    52f7:	49 8b 34 37          	mov    (%r15,%rsi,1),%rsi
    52fb:	89 db                	mov    %ebx,%ebx
    52fd:	49 89 34 1f          	mov    %rsi,(%r15,%rbx,1)
    5301:	89 cb                	mov    %ecx,%ebx
    5303:	83 c3 d0             	add    $0xffffffd0,%ebx
    5306:	be 28 04 00 00       	mov    $0x428,%esi
    530b:	89 f6                	mov    %esi,%esi
    530d:	49 8b 34 37          	mov    (%r15,%rsi,1),%rsi
    5311:	89 db                	mov    %ebx,%ebx
    5313:	49 89 34 1f          	mov    %rsi,(%r15,%rbx,1)
    5317:	89 cb                	mov    %ecx,%ebx
    5319:	83 c3 c8             	add    $0xffffffc8,%ebx
    531c:	be 20 04 00 00       	mov    $0x420,%esi
    5321:	89 f6                	mov    %esi,%esi
    5323:	49 8b 34 37          	mov    (%r15,%rsi,1),%rsi
    5327:	89 db                	mov    %ebx,%ebx
    5329:	49 89 34 1f          	mov    %rsi,(%r15,%rbx,1)
    532d:	89 cb                	mov    %ecx,%ebx
    532f:	83 c3 c0             	add    $0xffffffc0,%ebx
    5332:	be 18 04 00 00       	mov    $0x418,%esi
    5337:	89 f6                	mov    %esi,%esi
    5339:	49 8b 34 37          	mov    (%r15,%rsi,1),%rsi
    533d:	89 db                	mov    %ebx,%ebx
    533f:	49 89 34 1f          	mov    %rsi,(%r15,%rbx,1)
    5343:	89 cb                	mov    %ecx,%ebx
    5345:	83 c3 b8             	add    $0xffffffb8,%ebx
    5348:	be 10 04 00 00       	mov    $0x410,%esi
    534d:	89 f6                	mov    %esi,%esi
    534f:	49 8b 34 37          	mov    (%r15,%rsi,1),%rsi
    5353:	89 db                	mov    %ebx,%ebx
    5355:	49 89 34 1f          	mov    %rsi,(%r15,%rbx,1)
    5359:	89 cb                	mov    %ecx,%ebx
    535b:	83 c3 b0             	add    $0xffffffb0,%ebx
    535e:	be 08 04 00 00       	mov    $0x408,%esi
    5363:	89 f6                	mov    %esi,%esi
    5365:	49 8b 34 37          	mov    (%r15,%rsi,1),%rsi
    5369:	89 db                	mov    %ebx,%ebx
    536b:	49 89 34 1f          	mov    %rsi,(%r15,%rbx,1)
    536f:	89 cb                	mov    %ecx,%ebx
    5371:	83 c3 f0             	add    $0xfffffff0,%ebx
    5374:	89 db                	mov    %ebx,%ebx
    5376:	49 89 04 1f          	mov    %rax,(%r15,%rbx,1)
    537a:	89 cb                	mov    %ecx,%ebx
    537c:	83 c3 f8             	add    $0xfffffff8,%ebx
    537f:	89 db                	mov    %ebx,%ebx
    5381:	44 8b bc 24 20 00 00 	mov    0x20(%rsp),%r15d
    5388:	00 
    5389:	49 89 fe             	mov    %rdi,%r14
    538c:	45 89 3c 1e          	mov    %r15d,(%r14,%rbx,1)
    5390:	44 8b bc 24 30 00 00 	mov    0x30(%rsp),%r15d
    5397:	00 
    5398:	44 89 fb             	mov    %r15d,%ebx
    539b:	49 89 ff             	mov    %rdi,%r15
    539e:	49 89 84 1f c8 00 00 	mov    %rax,0xc8(%r15,%rbx,1)
    53a5:	00 
    53a6:	45 89 c7             	mov    %r8d,%r15d
    53a9:	41 c1 e7 08          	shl    $0x8,%r15d
    53ad:	41 31 d7             	xor    %edx,%r15d
    53b0:	41 81 f7 00 00 01 01 	xor    $0x1010000,%r15d
    53b7:	44 89 f8             	mov    %r15d,%eax
    53ba:	48 be 08 c9 bc f3 67 	movabs $0x6a09e667f3bcc908,%rsi
    53c1:	e6 09 6a 
    53c4:	48 31 f0             	xor    %rsi,%rax
    53c7:	49 89 ff             	mov    %rdi,%r15
    53ca:	49 89 84 1f 88 00 00 	mov    %rax,0x88(%r15,%rbx,1)
    53d1:	00 
    53d2:	41 89 94 1f dc 00 00 	mov    %edx,0xdc(%r15,%rbx,1)
    53d9:	00 
    53da:	81 c1 28 ff ff ff    	add    $0xffffff28,%ecx
    53e0:	45 89 c7             	mov    %r8d,%r15d
    53e3:	44 01 f9             	add    %r15d,%ecx
    53e6:	b8 80 00 00 00       	mov    $0x80,%eax
    53eb:	89 84 24 1c 00 00 00 	mov    %eax,0x1c(%rsp)
    53f2:	41 89 c7             	mov    %eax,%r15d
    53f5:	45 89 c6             	mov    %r8d,%r14d
    53f8:	45 29 f7             	sub    %r14d,%r15d
    53fb:	49 89 fe             	mov    %rdi,%r14
    53fe:	44 8b ac 24 20 00 00 	mov    0x20(%rsp),%r13d
    5405:	00 
    5406:	4c 89 f7             	mov    %r14,%rdi
    5409:	40 89 ce             	rex mov %ecx,%esi
    540c:	44 89 ea             	mov    %r13d,%edx
    540f:	44 89 f9             	mov    %r15d,%ecx
    5412:	e8 e9 f2 ff ff       	callq  4700 <guest_func_memset>
    5417:	44 8b bc 24 28 00 00 	mov    0x28(%rsp),%r15d
    541e:	00 
    541f:	45 85 ff             	test   %r15d,%r15d
    5422:	0f 84 6a 01 00 00    	je     5592 <guest_func_blake2b+0x352>
    5428:	44 8b bc 24 70 00 00 	mov    0x70(%rsp),%r15d
    542f:	00 
    5430:	44 89 bc 24 18 00 00 	mov    %r15d,0x18(%rsp)
    5437:	00 
    5438:	44 8b bc 24 30 00 00 	mov    0x30(%rsp),%r15d
    543f:	00 
    5440:	44 89 f8             	mov    %r15d,%eax
    5443:	48 89 84 24 08 00 00 	mov    %rax,0x8(%rsp)
    544a:	00 
    544b:	4c 8b bc 24 10 00 00 	mov    0x10(%rsp),%r15
    5452:	00 
    5453:	49 89 c6             	mov    %rax,%r14
    5456:	43 8b 84 37 d8 00 00 	mov    0xd8(%r15,%r14,1),%eax
    545d:	00 
    545e:	0f ae e8             	lfence 
    5461:	81 f8 80 00 00 00    	cmp    $0x80,%eax
    5467:	0f 85 84 00 00 00    	jne    54f1 <guest_func_blake2b+0x2b1>
    546d:	4b 8b 84 37 c8 00 00 	mov    0xc8(%r15,%r14,1),%rax
    5474:	00 
    5475:	48 89 c1             	mov    %rax,%rcx
    5478:	48 81 c1 80 00 00 00 	add    $0x80,%rcx
    547f:	4b 89 8c 37 c8 00 00 	mov    %rcx,0xc8(%r15,%r14,1)
    5486:	00 
    5487:	48 83 f8 80          	cmp    $0xffffffffffffff80,%rax
    548b:	0f ae e8             	lfence 
    548e:	72 14                	jb     54a4 <guest_func_blake2b+0x264>
    5490:	4b 8b 84 37 d0 00 00 	mov    0xd0(%r15,%r14,1),%rax
    5497:	00 
    5498:	48 83 c0 01          	add    $0x1,%rax
    549c:	4b 89 84 37 d0 00 00 	mov    %rax,0xd0(%r15,%r14,1)
    54a3:	00 
    54a4:	44 8b bc 24 30 00 00 	mov    0x30(%rsp),%r15d
    54ab:	00 
    54ac:	41 83 c7 08          	add    $0x8,%r15d
    54b0:	4c 8b b4 24 10 00 00 	mov    0x10(%rsp),%r14
    54b7:	00 
    54b8:	44 8b ac 24 20 00 00 	mov    0x20(%rsp),%r13d
    54bf:	00 
    54c0:	4c 89 f7             	mov    %r14,%rdi
    54c3:	44 89 fe             	mov    %r15d,%esi
    54c6:	44 89 ea             	mov    %r13d,%edx
    54c9:	e8 02 b8 ff ff       	callq  cd0 <guest_func_2>
    54ce:	44 8b bc 24 20 00 00 	mov    0x20(%rsp),%r15d
    54d5:	00 
    54d6:	4c 8b b4 24 10 00 00 	mov    0x10(%rsp),%r14
    54dd:	00 
    54de:	4c 8b ac 24 08 00 00 	mov    0x8(%rsp),%r13
    54e5:	00 
    54e6:	47 89 bc 2e d8 00 00 	mov    %r15d,0xd8(%r14,%r13,1)
    54ed:	00 
    54ee:	44 89 f8             	mov    %r15d,%eax
