ref.so:     file format elf64-x86-64


Disassembly of section .plt:

0000000000000c30 <.plt>:
 c30:	ff 35 d2 a3 20 00    	pushq  0x20a3d2(%rip)        # 20b008 <_GLOBAL_OFFSET_TABLE_+0x8>
 c36:	ff 25 d4 a3 20 00    	jmpq   *0x20a3d4(%rip)        # 20b010 <_GLOBAL_OFFSET_TABLE_+0x10>
 c3c:	0f 1f 40 00          	nopl   0x0(%rax)

0000000000000c40 <lucet_vmctx_grow_memory@plt>:
 c40:	ff 25 d2 a3 20 00    	jmpq   *0x20a3d2(%rip)        # 20b018 <lucet_vmctx_grow_memory>
 c46:	68 00 00 00 00       	pushq  $0x0
 c4b:	e9 e0 ff ff ff       	jmpq   c30 <.plt>

0000000000000c50 <lucet_vmctx_current_memory@plt>:
 c50:	ff 25 ca a3 20 00    	jmpq   *0x20a3ca(%rip)        # 20b020 <lucet_vmctx_current_memory>
 c56:	68 01 00 00 00       	pushq  $0x1
 c5b:	e9 d0 ff ff ff       	jmpq   c30 <.plt>

Disassembly of section .text:

0000000000000c60 <guest_func_strlen>:
     c60:	55                   	push   %rbp
     c61:	48 89 e5             	mov    %rsp,%rbp
     c64:	53                   	push   %rbx
     c65:	31 c0                	xor    %eax,%eax
     c67:	89 f1                	mov    %esi,%ecx
     c69:	83 e1 03             	and    $0x3,%ecx
     c6c:	85 c9                	test   %ecx,%ecx
     c6e:	74 30                	je     ca0 <guest_func_strlen+0x40>
     c70:	89 f1                	mov    %esi,%ecx
     c72:	0f b6 0c 0f          	movzbl (%rdi,%rcx,1),%ecx
     c76:	85 c9                	test   %ecx,%ecx
     c78:	75 03                	jne    c7d <guest_func_strlen+0x1d>
     c7a:	5b                   	pop    %rbx
     c7b:	5d                   	pop    %rbp
     c7c:	c3                   	retq   
     c7d:	89 f0                	mov    %esi,%eax
     c7f:	83 c0 01             	add    $0x1,%eax
     c82:	eb 02                	jmp    c86 <guest_func_strlen+0x26>
     c84:	89 d0                	mov    %edx,%eax
     c86:	89 c1                	mov    %eax,%ecx
     c88:	83 e1 03             	and    $0x3,%ecx
     c8b:	85 c9                	test   %ecx,%ecx
     c8d:	74 13                	je     ca2 <guest_func_strlen+0x42>
     c8f:	89 c1                	mov    %eax,%ecx
     c91:	0f b6 0c 0f          	movzbl (%rdi,%rcx,1),%ecx
     c95:	89 c2                	mov    %eax,%edx
     c97:	83 c2 01             	add    $0x1,%edx
     c9a:	85 c9                	test   %ecx,%ecx
     c9c:	75 e6                	jne    c84 <guest_func_strlen+0x24>
     c9e:	eb 43                	jmp    ce3 <guest_func_strlen+0x83>
     ca0:	89 f0                	mov    %esi,%eax
     ca2:	83 c0 fc             	add    $0xfffffffc,%eax
     ca5:	83 c0 04             	add    $0x4,%eax
     ca8:	89 c1                	mov    %eax,%ecx
     caa:	8b 0c 0f             	mov    (%rdi,%rcx,1),%ecx
     cad:	89 ca                	mov    %ecx,%edx
     caf:	83 f2 ff             	xor    $0xffffffff,%edx
     cb2:	89 cb                	mov    %ecx,%ebx
     cb4:	81 c3 ff fe fe fe    	add    $0xfefefeff,%ebx
     cba:	21 da                	and    %ebx,%edx
     cbc:	81 e2 80 80 80 80    	and    $0x80808080,%edx
     cc2:	85 d2                	test   %edx,%edx
     cc4:	74 df                	je     ca5 <guest_func_strlen+0x45>
     cc6:	81 e1 ff 00 00 00    	and    $0xff,%ecx
     ccc:	85 c9                	test   %ecx,%ecx
     cce:	75 05                	jne    cd5 <guest_func_strlen+0x75>
     cd0:	29 f0                	sub    %esi,%eax
     cd2:	5b                   	pop    %rbx
     cd3:	5d                   	pop    %rbp
     cd4:	c3                   	retq   
     cd5:	89 c1                	mov    %eax,%ecx
     cd7:	0f b6 4c 0f 01       	movzbl 0x1(%rdi,%rcx,1),%ecx
     cdc:	83 c0 01             	add    $0x1,%eax
     cdf:	85 c9                	test   %ecx,%ecx
     ce1:	75 f2                	jne    cd5 <guest_func_strlen+0x75>
     ce3:	29 f0                	sub    %esi,%eax
     ce5:	5b                   	pop    %rbx
     ce6:	5d                   	pop    %rbp
     ce7:	c3                   	retq   
	...

0000000000000cf0 <guest_func_realloc>:
     cf0:	55                   	push   %rbp
     cf1:	48 89 e5             	mov    %rsp,%rbp
     cf4:	53                   	push   %rbx
     cf5:	41 54                	push   %r12
     cf7:	41 55                	push   %r13
     cf9:	41 56                	push   %r14
     cfb:	41 57                	push   %r15
     cfd:	48 83 ec 28          	sub    $0x28,%rsp
     d01:	48 89 bc 24 00 00 00 	mov    %rdi,0x0(%rsp)
     d08:	00 
     d09:	89 b4 24 24 00 00 00 	mov    %esi,0x24(%rsp)
     d10:	89 94 24 20 00 00 00 	mov    %edx,0x20(%rsp)
     d17:	31 c0                	xor    %eax,%eax
     d19:	89 84 24 1c 00 00 00 	mov    %eax,0x1c(%rsp)
     d20:	41 89 f7             	mov    %esi,%r15d
     d23:	45 85 ff             	test   %r15d,%r15d
     d26:	75 20                	jne    d48 <guest_func_realloc+0x58>
     d28:	49 89 ff             	mov    %rdi,%r15
     d2b:	41 89 d6             	mov    %edx,%r14d
     d2e:	4c 89 ff             	mov    %r15,%rdi
     d31:	44 89 f6             	mov    %r14d,%esi
     d34:	e8 b7 07 00 00       	callq  14f0 <guest_func_8>
     d39:	48 83 c4 28          	add    $0x28,%rsp
     d3d:	41 5f                	pop    %r15
     d3f:	41 5e                	pop    %r14
     d41:	41 5d                	pop    %r13
     d43:	41 5c                	pop    %r12
     d45:	5b                   	pop    %rbx
     d46:	5d                   	pop    %rbp
     d47:	c3                   	retq   
     d48:	41 89 d7             	mov    %edx,%r15d
     d4b:	41 83 ff c0          	cmp    $0xffffffc0,%r15d
     d4f:	72 2d                	jb     d7e <guest_func_realloc+0x8e>
     d51:	b8 f0 06 00 00       	mov    $0x6f0,%eax
     d56:	b9 30 00 00 00       	mov    $0x30,%ecx
     d5b:	89 c0                	mov    %eax,%eax
     d5d:	49 89 ff             	mov    %rdi,%r15
     d60:	41 89 0c 07          	mov    %ecx,(%r15,%rax,1)
     d64:	44 8b bc 24 1c 00 00 	mov    0x1c(%rsp),%r15d
     d6b:	00 
     d6c:	44 89 f8             	mov    %r15d,%eax
     d6f:	48 83 c4 28          	add    $0x28,%rsp
     d73:	41 5f                	pop    %r15
     d75:	41 5e                	pop    %r14
     d77:	41 5d                	pop    %r13
     d79:	41 5c                	pop    %r12
     d7b:	5b                   	pop    %rbx
     d7c:	5d                   	pop    %rbp
     d7d:	c3                   	retq   
     d7e:	41 83 ff 0b          	cmp    $0xb,%r15d
     d82:	0f 92 c0             	setb   %al
     d85:	41 83 c7 13          	add    $0x13,%r15d
     d89:	44 89 f9             	mov    %r15d,%ecx
     d8c:	83 e1 f0             	and    $0xfffffff0,%ecx
     d8f:	ba f8 ff ff ff       	mov    $0xfffffff8,%edx
     d94:	89 94 24 14 00 00 00 	mov    %edx,0x14(%rsp)
     d9b:	41 89 f7             	mov    %esi,%r15d
     d9e:	41 83 c7 f8          	add    $0xfffffff8,%r15d
     da2:	44 89 bc 24 18 00 00 	mov    %r15d,0x18(%rsp)
     da9:	00 
     daa:	ba fc ff ff ff       	mov    $0xfffffffc,%edx
     daf:	89 94 24 10 00 00 00 	mov    %edx,0x10(%rsp)
     db6:	41 89 f7             	mov    %esi,%r15d
     db9:	41 83 c7 fc          	add    $0xfffffffc,%r15d
     dbd:	44 89 bc 24 08 00 00 	mov    %r15d,0x8(%rsp)
     dc4:	00 
     dc5:	44 89 fa             	mov    %r15d,%edx
     dc8:	49 89 ff             	mov    %rdi,%r15
     dcb:	41 8b 1c 17          	mov    (%r15,%rdx,1),%ebx
     dcf:	89 de                	mov    %ebx,%esi
     dd1:	83 e6 03             	and    $0x3,%esi
     dd4:	bf 10 05 00 00       	mov    $0x510,%edi
     dd9:	89 ff                	mov    %edi,%edi
     ddb:	41 8b 3c 3f          	mov    (%r15,%rdi,1),%edi
     ddf:	41 89 d8             	mov    %ebx,%r8d
     de2:	41 83 e0 f8          	and    $0xfffffff8,%r8d
     de6:	41 83 f8 01          	cmp    $0x1,%r8d
     dea:	7c 0d                	jl     df9 <guest_func_realloc+0x109>
     dec:	44 8b bc 24 18 00 00 	mov    0x18(%rsp),%r15d
     df3:	00 
     df4:	44 39 ff             	cmp    %r15d,%edi
     df7:	77 00                	ja     df9 <guest_func_realloc+0x109>
     df9:	41 b9 10 00 00 00    	mov    $0x10,%r9d
     dff:	84 c0                	test   %al,%al
     e01:	75 05                	jne    e08 <guest_func_realloc+0x118>
     e03:	40 89 c8             	rex mov %ecx,%eax
     e06:	eb 03                	jmp    e0b <guest_func_realloc+0x11b>
     e08:	44 89 c8             	mov    %r9d,%eax
     e0b:	85 f6                	test   %esi,%esi
     e0d:	75 51                	jne    e60 <guest_func_realloc+0x170>
     e0f:	81 f8 00 01 00 00    	cmp    $0x100,%eax
     e15:	0f 82 82 05 00 00    	jb     139d <guest_func_realloc+0x6ad>
     e1b:	89 c1                	mov    %eax,%ecx
     e1d:	83 c9 04             	or     $0x4,%ecx
     e20:	41 39 c8             	cmp    %ecx,%r8d
     e23:	0f 82 86 05 00 00    	jb     13af <guest_func_realloc+0x6bf>
     e29:	41 29 c0             	sub    %eax,%r8d
     e2c:	b8 e0 06 00 00       	mov    $0x6e0,%eax
     e31:	89 c0                	mov    %eax,%eax
     e33:	4c 8b bc 24 00 00 00 	mov    0x0(%rsp),%r15
     e3a:	00 
     e3b:	41 8b 04 07          	mov    (%r15,%rax,1),%eax
     e3f:	c1 e0 01             	shl    $0x1,%eax
     e42:	41 39 c0             	cmp    %eax,%r8d
     e45:	0f 86 88 06 00 00    	jbe    14d3 <guest_func_realloc+0x7e3>
     e4b:	44 8b bc 24 24 00 00 	mov    0x24(%rsp),%r15d
     e52:	00 
     e53:	44 89 bc 24 0c 00 00 	mov    %r15d,0xc(%rsp)
     e5a:	00 
     e5b:	e9 a7 05 00 00       	jmpq   1407 <guest_func_realloc+0x717>
     e60:	44 89 c1             	mov    %r8d,%ecx
     e63:	44 8b bc 24 18 00 00 	mov    0x18(%rsp),%r15d
     e6a:	00 
     e6b:	44 01 f9             	add    %r15d,%ecx
     e6e:	41 39 c0             	cmp    %eax,%r8d
     e71:	72 78                	jb     eeb <guest_func_realloc+0x1fb>
     e73:	44 89 c6             	mov    %r8d,%esi
     e76:	29 c6                	sub    %eax,%esi
     e78:	83 fe 10             	cmp    $0x10,%esi
     e7b:	0f 82 52 06 00 00    	jb     14d3 <guest_func_realloc+0x7e3>
     e81:	83 e3 01             	and    $0x1,%ebx
     e84:	09 c3                	or     %eax,%ebx
     e86:	83 cb 02             	or     $0x2,%ebx
     e89:	4c 8b bc 24 00 00 00 	mov    0x0(%rsp),%r15
     e90:	00 
     e91:	41 89 1c 17          	mov    %ebx,(%r15,%rdx,1)
     e95:	44 8b bc 24 18 00 00 	mov    0x18(%rsp),%r15d
     e9c:	00 
     e9d:	44 01 f8             	add    %r15d,%eax
     ea0:	89 f2                	mov    %esi,%edx
     ea2:	83 ca 03             	or     $0x3,%edx
     ea5:	89 c3                	mov    %eax,%ebx
     ea7:	4c 8b bc 24 00 00 00 	mov    0x0(%rsp),%r15
     eae:	00 
     eaf:	41 89 54 1f 04       	mov    %edx,0x4(%r15,%rbx,1)
     eb4:	89 c9                	mov    %ecx,%ecx
     eb6:	41 8b 54 0f 04       	mov    0x4(%r15,%rcx,1),%edx
     ebb:	83 ca 01             	or     $0x1,%edx
     ebe:	41 89 54 0f 04       	mov    %edx,0x4(%r15,%rcx,1)
     ec3:	4c 89 ff             	mov    %r15,%rdi
     ec6:	40 89 f2             	rex mov %esi,%edx
     ec9:	40 89 c6             	rex mov %eax,%esi
     ecc:	e8 bf 4d 00 00       	callq  5c90 <guest_func_13>
     ed1:	44 8b bc 24 24 00 00 	mov    0x24(%rsp),%r15d
     ed8:	00 
     ed9:	44 89 f8             	mov    %r15d,%eax
     edc:	48 83 c4 28          	add    $0x28,%rsp
     ee0:	41 5f                	pop    %r15
     ee2:	41 5e                	pop    %r14
     ee4:	41 5d                	pop    %r13
     ee6:	41 5c                	pop    %r12
     ee8:	5b                   	pop    %rbx
     ee9:	5d                   	pop    %rbp
     eea:	c3                   	retq   
     eeb:	be 18 05 00 00       	mov    $0x518,%esi
     ef0:	89 f6                	mov    %esi,%esi
     ef2:	4c 8b bc 24 00 00 00 	mov    0x0(%rsp),%r15
     ef9:	00 
     efa:	45 8b 14 37          	mov    (%r15,%rsi,1),%r10d
     efe:	44 39 d1             	cmp    %r10d,%ecx
     f01:	75 65                	jne    f68 <guest_func_realloc+0x278>
     f03:	b9 0c 05 00 00       	mov    $0x50c,%ecx
     f08:	89 c9                	mov    %ecx,%ecx
     f0a:	41 8b 3c 0f          	mov    (%r15,%rcx,1),%edi
     f0e:	44 01 c7             	add    %r8d,%edi
     f11:	39 c7                	cmp    %eax,%edi
     f13:	0f 86 a8 04 00 00    	jbe    13c1 <guest_func_realloc+0x6d1>
     f19:	83 e3 01             	and    $0x1,%ebx
     f1c:	09 c3                	or     %eax,%ebx
     f1e:	83 cb 02             	or     $0x2,%ebx
     f21:	41 89 1c 17          	mov    %ebx,(%r15,%rdx,1)
     f25:	89 c2                	mov    %eax,%edx
     f27:	44 8b bc 24 18 00 00 	mov    0x18(%rsp),%r15d
     f2e:	00 
     f2f:	44 01 fa             	add    %r15d,%edx
     f32:	4c 8b bc 24 00 00 00 	mov    0x0(%rsp),%r15
     f39:	00 
     f3a:	41 89 14 37          	mov    %edx,(%r15,%rsi,1)
     f3e:	29 c7                	sub    %eax,%edi
     f40:	41 89 3c 0f          	mov    %edi,(%r15,%rcx,1)
     f44:	83 cf 01             	or     $0x1,%edi
     f47:	89 d0                	mov    %edx,%eax
     f49:	41 89 7c 07 04       	mov    %edi,0x4(%r15,%rax,1)
     f4e:	44 8b bc 24 24 00 00 	mov    0x24(%rsp),%r15d
     f55:	00 
     f56:	44 89 f8             	mov    %r15d,%eax
     f59:	48 83 c4 28          	add    $0x28,%rsp
     f5d:	41 5f                	pop    %r15
     f5f:	41 5e                	pop    %r14
     f61:	41 5d                	pop    %r13
     f63:	41 5c                	pop    %r12
     f65:	5b                   	pop    %rbx
     f66:	5d                   	pop    %rbp
     f67:	c3                   	retq   
     f68:	be 14 05 00 00       	mov    $0x514,%esi
     f6d:	89 f6                	mov    %esi,%esi
     f6f:	45 8b 14 37          	mov    (%r15,%rsi,1),%r10d
     f73:	44 39 d1             	cmp    %r10d,%ecx
     f76:	0f 85 e9 00 00 00    	jne    1065 <guest_func_realloc+0x375>
     f7c:	b9 08 05 00 00       	mov    $0x508,%ecx
     f81:	89 c9                	mov    %ecx,%ecx
     f83:	41 8b 3c 0f          	mov    (%r15,%rcx,1),%edi
     f87:	44 01 c7             	add    %r8d,%edi
     f8a:	39 c7                	cmp    %eax,%edi
     f8c:	0f 82 41 04 00 00    	jb     13d3 <guest_func_realloc+0x6e3>
     f92:	41 89 f8             	mov    %edi,%r8d
     f95:	41 29 c0             	sub    %eax,%r8d
     f98:	41 83 f8 10          	cmp    $0x10,%r8d
     f9c:	72 5f                	jb     ffd <guest_func_realloc+0x30d>
     f9e:	83 e3 01             	and    $0x1,%ebx
     fa1:	09 c3                	or     %eax,%ebx
     fa3:	83 cb 02             	or     $0x2,%ebx
     fa6:	41 89 1c 17          	mov    %ebx,(%r15,%rdx,1)
     faa:	44 8b bc 24 18 00 00 	mov    0x18(%rsp),%r15d
     fb1:	00 
     fb2:	44 01 f8             	add    %r15d,%eax
     fb5:	44 89 c2             	mov    %r8d,%edx
     fb8:	83 ca 01             	or     $0x1,%edx
     fbb:	89 c3                	mov    %eax,%ebx
     fbd:	4c 8b bc 24 00 00 00 	mov    0x0(%rsp),%r15
     fc4:	00 
     fc5:	41 89 54 1f 04       	mov    %edx,0x4(%r15,%rbx,1)
     fca:	44 8b bc 24 18 00 00 	mov    0x18(%rsp),%r15d
     fd1:	00 
     fd2:	44 01 ff             	add    %r15d,%edi
     fd5:	89 fa                	mov    %edi,%edx
     fd7:	4c 8b bc 24 00 00 00 	mov    0x0(%rsp),%r15
     fde:	00 
     fdf:	45 89 04 17          	mov    %r8d,(%r15,%rdx,1)
     fe3:	41 8b 5c 17 04       	mov    0x4(%r15,%rdx,1),%ebx
     fe8:	83 e3 fe             	and    $0xfffffffe,%ebx
     feb:	41 89 5c 17 04       	mov    %ebx,0x4(%r15,%rdx,1)
     ff0:	44 89 84 24 1c 00 00 	mov    %r8d,0x1c(%rsp)
     ff7:	00 
     ff8:	41 89 c7             	mov    %eax,%r15d
     ffb:	eb 36                	jmp    1033 <guest_func_realloc+0x343>
     ffd:	83 e3 01             	and    $0x1,%ebx
    1000:	09 fb                	or     %edi,%ebx
    1002:	83 cb 02             	or     $0x2,%ebx
    1005:	41 89 1c 17          	mov    %ebx,(%r15,%rdx,1)
    1009:	44 8b bc 24 18 00 00 	mov    0x18(%rsp),%r15d
    1010:	00 
    1011:	44 01 ff             	add    %r15d,%edi
    1014:	89 f8                	mov    %edi,%eax
    1016:	4c 8b bc 24 00 00 00 	mov    0x0(%rsp),%r15
    101d:	00 
    101e:	41 8b 54 07 04       	mov    0x4(%r15,%rax,1),%edx
    1023:	83 ca 01             	or     $0x1,%edx
    1026:	41 89 54 07 04       	mov    %edx,0x4(%r15,%rax,1)
    102b:	44 8b bc 24 1c 00 00 	mov    0x1c(%rsp),%r15d
    1032:	00 
    1033:	4c 8b b4 24 00 00 00 	mov    0x0(%rsp),%r14
    103a:	00 
    103b:	45 89 3c 36          	mov    %r15d,(%r14,%rsi,1)
    103f:	44 8b bc 24 1c 00 00 	mov    0x1c(%rsp),%r15d
    1046:	00 
    1047:	45 89 3c 0e          	mov    %r15d,(%r14,%rcx,1)
    104b:	44 8b bc 24 24 00 00 	mov    0x24(%rsp),%r15d
    1052:	00 
    1053:	44 89 f8             	mov    %r15d,%eax
    1056:	48 83 c4 28          	add    $0x28,%rsp
    105a:	41 5f                	pop    %r15
    105c:	41 5e                	pop    %r14
    105e:	41 5d                	pop    %r13
    1060:	41 5c                	pop    %r12
    1062:	5b                   	pop    %rbx
    1063:	5d                   	pop    %rbp
    1064:	c3                   	retq   
    1065:	89 ca                	mov    %ecx,%edx
    1067:	41 8b 74 17 04       	mov    0x4(%r15,%rdx,1),%esi
    106c:	41 89 f2             	mov    %esi,%r10d
    106f:	41 83 e2 02          	and    $0x2,%r10d
    1073:	45 85 d2             	test   %r10d,%r10d
    1076:	0f 85 69 03 00 00    	jne    13e5 <guest_func_realloc+0x6f5>
    107c:	41 89 f2             	mov    %esi,%r10d
    107f:	41 83 e2 f8          	and    $0xfffffff8,%r10d
    1083:	45 01 c2             	add    %r8d,%r10d
    1086:	41 39 c2             	cmp    %eax,%r10d
    1089:	0f 82 68 03 00 00    	jb     13f7 <guest_func_realloc+0x707>
    108f:	45 89 d0             	mov    %r10d,%r8d
    1092:	41 29 c0             	sub    %eax,%r8d
    1095:	81 fe ff 00 00 00    	cmp    $0xff,%esi
    109b:	77 6d                	ja     110a <guest_func_realloc+0x41a>
    109d:	41 8b 4c 17 0c       	mov    0xc(%r15,%rdx,1),%ecx
    10a2:	41 8b 54 17 08       	mov    0x8(%r15,%rdx,1),%edx
    10a7:	c1 ee 03             	shr    $0x3,%esi
    10aa:	89 f7                	mov    %esi,%edi
    10ac:	c1 e7 03             	shl    $0x3,%edi
    10af:	81 c7 28 05 00 00    	add    $0x528,%edi
    10b5:	39 fa                	cmp    %edi,%edx
    10b7:	74 00                	je     10b9 <guest_func_realloc+0x3c9>
    10b9:	39 d1                	cmp    %edx,%ecx
    10bb:	75 2e                	jne    10eb <guest_func_realloc+0x3fb>
    10bd:	b9 00 05 00 00       	mov    $0x500,%ecx
    10c2:	89 c9                	mov    %ecx,%ecx
    10c4:	4c 8b bc 24 00 00 00 	mov    0x0(%rsp),%r15
    10cb:	00 
    10cc:	41 8b 14 0f          	mov    (%r15,%rcx,1),%edx
    10d0:	bf fe ff ff ff       	mov    $0xfffffffe,%edi
    10d5:	49 89 c9             	mov    %rcx,%r9
    10d8:	40 89 f1             	rex mov %esi,%ecx
    10db:	4c 89 ce             	mov    %r9,%rsi
    10de:	d3 c7                	rol    %cl,%edi
    10e0:	21 fa                	and    %edi,%edx
    10e2:	41 89 14 37          	mov    %edx,(%r15,%rsi,1)
    10e6:	e9 c5 01 00 00       	jmpq   12b0 <guest_func_realloc+0x5c0>
    10eb:	39 f9                	cmp    %edi,%ecx
    10ed:	74 00                	je     10ef <guest_func_realloc+0x3ff>
    10ef:	89 ce                	mov    %ecx,%esi
    10f1:	4c 8b bc 24 00 00 00 	mov    0x0(%rsp),%r15
    10f8:	00 
    10f9:	41 89 54 37 08       	mov    %edx,0x8(%r15,%rsi,1)
    10fe:	89 d2                	mov    %edx,%edx
    1100:	41 89 4c 17 0c       	mov    %ecx,0xc(%r15,%rdx,1)
    1105:	e9 a6 01 00 00       	jmpq   12b0 <guest_func_realloc+0x5c0>
    110a:	41 8b 74 17 18       	mov    0x18(%r15,%rdx,1),%esi
    110f:	45 8b 5c 17 0c       	mov    0xc(%r15,%rdx,1),%r11d
    1114:	41 39 cb             	cmp    %ecx,%r11d
    1117:	74 2f                	je     1148 <guest_func_realloc+0x458>
    1119:	45 8b 64 17 08       	mov    0x8(%r15,%rdx,1),%r12d
    111e:	44 39 e7             	cmp    %r12d,%edi
    1121:	77 08                	ja     112b <guest_func_realloc+0x43b>
    1123:	44 89 e7             	mov    %r12d,%edi
    1126:	41 8b 7c 3f 0c       	mov    0xc(%r15,%rdi,1),%edi
    112b:	44 89 df             	mov    %r11d,%edi
    112e:	4c 8b bc 24 00 00 00 	mov    0x0(%rsp),%r15
    1135:	00 
    1136:	45 89 64 3f 08       	mov    %r12d,0x8(%r15,%rdi,1)
    113b:	44 89 e7             	mov    %r12d,%edi
    113e:	45 89 5c 3f 0c       	mov    %r11d,0xc(%r15,%rdi,1)
    1143:	e9 96 00 00 00       	jmpq   11de <guest_func_realloc+0x4ee>
    1148:	89 cf                	mov    %ecx,%edi
    114a:	83 c7 14             	add    $0x14,%edi
    114d:	41 89 fb             	mov    %edi,%r11d
    1150:	47 8b 1c 1f          	mov    (%r15,%r11,1),%r11d
    1154:	45 85 db             	test   %r11d,%r11d
    1157:	75 1e                	jne    1177 <guest_func_realloc+0x487>
    1159:	89 cf                	mov    %ecx,%edi
    115b:	83 c7 10             	add    $0x10,%edi
    115e:	41 89 fb             	mov    %edi,%r11d
    1161:	47 8b 1c 1f          	mov    (%r15,%r11,1),%r11d
    1165:	45 85 db             	test   %r11d,%r11d
    1168:	75 0d                	jne    1177 <guest_func_realloc+0x487>
    116a:	44 8b bc 24 1c 00 00 	mov    0x1c(%rsp),%r15d
    1171:	00 
    1172:	45 89 fb             	mov    %r15d,%r11d
    1175:	eb 67                	jmp    11de <guest_func_realloc+0x4ee>
    1177:	eb 20                	jmp    1199 <guest_func_realloc+0x4a9>
    1179:	44 89 ef             	mov    %r13d,%edi
    117c:	45 89 e3             	mov    %r12d,%r11d
    117f:	45 89 de             	mov    %r11d,%r14d
    1182:	41 89 fb             	mov    %edi,%r11d
    1185:	44 89 f7             	mov    %r14d,%edi
    1188:	eb 0f                	jmp    1199 <guest_func_realloc+0x4a9>
    118a:	44 89 ef             	mov    %r13d,%edi
    118d:	45 89 e3             	mov    %r12d,%r11d
    1190:	45 89 de             	mov    %r11d,%r14d
    1193:	41 89 fb             	mov    %edi,%r11d
    1196:	44 89 f7             	mov    %r14d,%edi
    1199:	45 89 dc             	mov    %r11d,%r12d
    119c:	41 83 c4 14          	add    $0x14,%r12d
    11a0:	45 89 e5             	mov    %r12d,%r13d
    11a3:	4c 8b bc 24 00 00 00 	mov    0x0(%rsp),%r15
    11aa:	00 
    11ab:	47 8b 2c 2f          	mov    (%r15,%r13,1),%r13d
    11af:	45 85 ed             	test   %r13d,%r13d
    11b2:	75 c5                	jne    1179 <guest_func_realloc+0x489>
    11b4:	45 89 dc             	mov    %r11d,%r12d
    11b7:	41 83 c4 10          	add    $0x10,%r12d
    11bb:	45 89 dd             	mov    %r11d,%r13d
    11be:	47 8b 6c 2f 10       	mov    0x10(%r15,%r13,1),%r13d
    11c3:	45 85 ed             	test   %r13d,%r13d
    11c6:	75 c2                	jne    118a <guest_func_realloc+0x49a>
    11c8:	89 ff                	mov    %edi,%edi
    11ca:	44 8b bc 24 1c 00 00 	mov    0x1c(%rsp),%r15d
    11d1:	00 
    11d2:	4c 8b b4 24 00 00 00 	mov    0x0(%rsp),%r14
    11d9:	00 
    11da:	45 89 3c 3e          	mov    %r15d,(%r14,%rdi,1)
    11de:	85 f6                	test   %esi,%esi
    11e0:	0f 84 ca 00 00 00    	je     12b0 <guest_func_realloc+0x5c0>
    11e6:	4c 8b bc 24 00 00 00 	mov    0x0(%rsp),%r15
    11ed:	00 
    11ee:	41 8b 7c 17 1c       	mov    0x1c(%r15,%rdx,1),%edi
    11f3:	41 89 fc             	mov    %edi,%r12d
    11f6:	41 c1 e4 02          	shl    $0x2,%r12d
    11fa:	41 81 c4 30 06 00 00 	add    $0x630,%r12d
    1201:	45 89 e4             	mov    %r12d,%r12d
    1204:	47 8b 2c 27          	mov    (%r15,%r12,1),%r13d
    1208:	44 39 e9             	cmp    %r13d,%ecx
    120b:	75 2c                	jne    1239 <guest_func_realloc+0x549>
    120d:	47 89 1c 27          	mov    %r11d,(%r15,%r12,1)
    1211:	45 85 db             	test   %r11d,%r11d
    1214:	75 51                	jne    1267 <guest_func_realloc+0x577>
    1216:	b9 04 05 00 00       	mov    $0x504,%ecx
    121b:	89 c9                	mov    %ecx,%ecx
    121d:	41 8b 14 0f          	mov    (%r15,%rcx,1),%edx
    1221:	be fe ff ff ff       	mov    $0xfffffffe,%esi
    1226:	49 89 c9             	mov    %rcx,%r9
    1229:	40 89 f9             	rex mov %edi,%ecx
    122c:	4c 89 cf             	mov    %r9,%rdi
    122f:	d3 c6                	rol    %cl,%esi
    1231:	21 f2                	and    %esi,%edx
    1233:	41 89 14 3f          	mov    %edx,(%r15,%rdi,1)
    1237:	eb 77                	jmp    12b0 <guest_func_realloc+0x5c0>
    1239:	bf 14 00 00 00       	mov    $0x14,%edi
    123e:	41 89 f4             	mov    %esi,%r12d
    1241:	47 8b 64 27 10       	mov    0x10(%r15,%r12,1),%r12d
    1246:	41 39 cc             	cmp    %ecx,%r12d
    1249:	74 05                	je     1250 <guest_func_realloc+0x560>
    124b:	89 f9                	mov    %edi,%ecx
    124d:	41 89 c9             	mov    %ecx,%r9d
    1250:	41 01 f1             	add    %esi,%r9d
    1253:	44 89 c9             	mov    %r9d,%ecx
    1256:	4c 8b bc 24 00 00 00 	mov    0x0(%rsp),%r15
    125d:	00 
    125e:	45 89 1c 0f          	mov    %r11d,(%r15,%rcx,1)
    1262:	45 85 db             	test   %r11d,%r11d
    1265:	74 49                	je     12b0 <guest_func_realloc+0x5c0>
    1267:	44 89 d9             	mov    %r11d,%ecx
    126a:	4c 8b bc 24 00 00 00 	mov    0x0(%rsp),%r15
    1271:	00 
    1272:	41 89 74 0f 18       	mov    %esi,0x18(%r15,%rcx,1)
    1277:	41 8b 74 17 10       	mov    0x10(%r15,%rdx,1),%esi
    127c:	85 f6                	test   %esi,%esi
    127e:	74 0c                	je     128c <guest_func_realloc+0x59c>
    1280:	41 89 74 0f 10       	mov    %esi,0x10(%r15,%rcx,1)
    1285:	89 f1                	mov    %esi,%ecx
    1287:	45 89 5c 0f 18       	mov    %r11d,0x18(%r15,%rcx,1)
    128c:	4c 8b bc 24 00 00 00 	mov    0x0(%rsp),%r15
    1293:	00 
    1294:	41 8b 4c 17 14       	mov    0x14(%r15,%rdx,1),%ecx
    1299:	85 c9                	test   %ecx,%ecx
    129b:	74 13                	je     12b0 <guest_func_realloc+0x5c0>
    129d:	44 89 da             	mov    %r11d,%edx
    12a0:	83 c2 14             	add    $0x14,%edx
    12a3:	89 d2                	mov    %edx,%edx
    12a5:	41 89 0c 17          	mov    %ecx,(%r15,%rdx,1)
    12a9:	89 c9                	mov    %ecx,%ecx
    12ab:	45 89 5c 0f 18       	mov    %r11d,0x18(%r15,%rcx,1)
    12b0:	41 83 f8 0f          	cmp    $0xf,%r8d
    12b4:	77 5d                	ja     1313 <guest_func_realloc+0x623>
    12b6:	83 e3 01             	and    $0x1,%ebx
    12b9:	44 09 d3             	or     %r10d,%ebx
    12bc:	83 cb 02             	or     $0x2,%ebx
    12bf:	44 8b bc 24 08 00 00 	mov    0x8(%rsp),%r15d
    12c6:	00 
    12c7:	44 89 f8             	mov    %r15d,%eax
    12ca:	4c 8b bc 24 00 00 00 	mov    0x0(%rsp),%r15
    12d1:	00 
    12d2:	41 89 1c 07          	mov    %ebx,(%r15,%rax,1)
    12d6:	44 8b bc 24 18 00 00 	mov    0x18(%rsp),%r15d
    12dd:	00 
    12de:	45 01 d7             	add    %r10d,%r15d
    12e1:	44 89 f8             	mov    %r15d,%eax
    12e4:	4c 8b bc 24 00 00 00 	mov    0x0(%rsp),%r15
    12eb:	00 
    12ec:	41 8b 4c 07 04       	mov    0x4(%r15,%rax,1),%ecx
    12f1:	83 c9 01             	or     $0x1,%ecx
    12f4:	41 89 4c 07 04       	mov    %ecx,0x4(%r15,%rax,1)
    12f9:	44 8b bc 24 24 00 00 	mov    0x24(%rsp),%r15d
    1300:	00 
    1301:	44 89 f8             	mov    %r15d,%eax
    1304:	48 83 c4 28          	add    $0x28,%rsp
    1308:	41 5f                	pop    %r15
    130a:	41 5e                	pop    %r14
    130c:	41 5d                	pop    %r13
    130e:	41 5c                	pop    %r12
    1310:	5b                   	pop    %rbx
    1311:	5d                   	pop    %rbp
    1312:	c3                   	retq   
    1313:	83 e3 01             	and    $0x1,%ebx
    1316:	09 c3                	or     %eax,%ebx
    1318:	83 cb 02             	or     $0x2,%ebx
    131b:	44 8b bc 24 08 00 00 	mov    0x8(%rsp),%r15d
    1322:	00 
    1323:	44 89 f9             	mov    %r15d,%ecx
    1326:	4c 8b bc 24 00 00 00 	mov    0x0(%rsp),%r15
    132d:	00 
    132e:	41 89 1c 0f          	mov    %ebx,(%r15,%rcx,1)
    1332:	44 8b bc 24 18 00 00 	mov    0x18(%rsp),%r15d
    1339:	00 
    133a:	44 01 f8             	add    %r15d,%eax
    133d:	44 89 c1             	mov    %r8d,%ecx
    1340:	83 c9 03             	or     $0x3,%ecx
    1343:	89 c2                	mov    %eax,%edx
    1345:	4c 8b bc 24 00 00 00 	mov    0x0(%rsp),%r15
    134c:	00 
    134d:	41 89 4c 17 04       	mov    %ecx,0x4(%r15,%rdx,1)
    1352:	44 8b bc 24 18 00 00 	mov    0x18(%rsp),%r15d
    1359:	00 
    135a:	45 01 d7             	add    %r10d,%r15d
    135d:	44 89 f9             	mov    %r15d,%ecx
    1360:	4c 8b bc 24 00 00 00 	mov    0x0(%rsp),%r15
    1367:	00 
    1368:	41 8b 54 0f 04       	mov    0x4(%r15,%rcx,1),%edx
    136d:	83 ca 01             	or     $0x1,%edx
    1370:	41 89 54 0f 04       	mov    %edx,0x4(%r15,%rcx,1)
    1375:	4c 89 ff             	mov    %r15,%rdi
    1378:	40 89 c6             	rex mov %eax,%esi
    137b:	44 89 c2             	mov    %r8d,%edx
    137e:	e8 0d 49 00 00       	callq  5c90 <guest_func_13>
    1383:	44 8b bc 24 24 00 00 	mov    0x24(%rsp),%r15d
    138a:	00 
    138b:	44 89 f8             	mov    %r15d,%eax
    138e:	48 83 c4 28          	add    $0x28,%rsp
    1392:	41 5f                	pop    %r15
    1394:	41 5e                	pop    %r14
    1396:	41 5d                	pop    %r13
    1398:	41 5c                	pop    %r12
    139a:	5b                   	pop    %rbx
    139b:	5d                   	pop    %rbp
    139c:	c3                   	retq   
    139d:	44 8b bc 24 24 00 00 	mov    0x24(%rsp),%r15d
    13a4:	00 
    13a5:	44 89 bc 24 0c 00 00 	mov    %r15d,0xc(%rsp)
    13ac:	00 
    13ad:	eb 58                	jmp    1407 <guest_func_realloc+0x717>
    13af:	44 8b bc 24 24 00 00 	mov    0x24(%rsp),%r15d
    13b6:	00 
    13b7:	44 89 bc 24 0c 00 00 	mov    %r15d,0xc(%rsp)
    13be:	00 
    13bf:	eb 46                	jmp    1407 <guest_func_realloc+0x717>
    13c1:	44 8b bc 24 24 00 00 	mov    0x24(%rsp),%r15d
    13c8:	00 
    13c9:	44 89 bc 24 0c 00 00 	mov    %r15d,0xc(%rsp)
    13d0:	00 
    13d1:	eb 34                	jmp    1407 <guest_func_realloc+0x717>
    13d3:	44 8b bc 24 24 00 00 	mov    0x24(%rsp),%r15d
    13da:	00 
    13db:	44 89 bc 24 0c 00 00 	mov    %r15d,0xc(%rsp)
    13e2:	00 
    13e3:	eb 22                	jmp    1407 <guest_func_realloc+0x717>
    13e5:	44 8b bc 24 24 00 00 	mov    0x24(%rsp),%r15d
    13ec:	00 
    13ed:	44 89 bc 24 0c 00 00 	mov    %r15d,0xc(%rsp)
    13f4:	00 
    13f5:	eb 10                	jmp    1407 <guest_func_realloc+0x717>
    13f7:	44 8b bc 24 24 00 00 	mov    0x24(%rsp),%r15d
    13fe:	00 
    13ff:	44 89 bc 24 0c 00 00 	mov    %r15d,0xc(%rsp)
    1406:	00 
    1407:	4c 8b bc 24 00 00 00 	mov    0x0(%rsp),%r15
    140e:	00 
    140f:	44 8b b4 24 20 00 00 	mov    0x20(%rsp),%r14d
    1416:	00 
    1417:	4c 89 ff             	mov    %r15,%rdi
    141a:	44 89 f6             	mov    %r14d,%esi
    141d:	e8 ce 00 00 00       	callq  14f0 <guest_func_8>
    1422:	85 c0                	test   %eax,%eax
    1424:	75 1a                	jne    1440 <guest_func_realloc+0x750>
    1426:	44 8b bc 24 1c 00 00 	mov    0x1c(%rsp),%r15d
    142d:	00 
    142e:	44 89 f8             	mov    %r15d,%eax
    1431:	48 83 c4 28          	add    $0x28,%rsp
    1435:	41 5f                	pop    %r15
    1437:	41 5e                	pop    %r14
    1439:	41 5d                	pop    %r13
    143b:	41 5c                	pop    %r12
    143d:	5b                   	pop    %rbx
    143e:	5d                   	pop    %rbp
    143f:	c3                   	retq   
    1440:	44 8b bc 24 08 00 00 	mov    0x8(%rsp),%r15d
    1447:	00 
    1448:	44 89 f9             	mov    %r15d,%ecx
    144b:	4c 8b bc 24 00 00 00 	mov    0x0(%rsp),%r15
    1452:	00 
    1453:	41 8b 0c 0f          	mov    (%r15,%rcx,1),%ecx
    1457:	89 ca                	mov    %ecx,%edx
    1459:	83 e2 03             	and    $0x3,%edx
    145c:	85 d2                	test   %edx,%edx
    145e:	75 10                	jne    1470 <guest_func_realloc+0x780>
    1460:	44 8b bc 24 14 00 00 	mov    0x14(%rsp),%r15d
    1467:	00 
    1468:	44 89 bc 24 10 00 00 	mov    %r15d,0x10(%rsp)
    146f:	00 
    1470:	83 e1 f8             	and    $0xfffffff8,%ecx
    1473:	44 8b bc 24 10 00 00 	mov    0x10(%rsp),%r15d
    147a:	00 
    147b:	44 89 fa             	mov    %r15d,%edx
    147e:	01 ca                	add    %ecx,%edx
    1480:	44 8b bc 24 20 00 00 	mov    0x20(%rsp),%r15d
    1487:	00 
    1488:	44 39 fa             	cmp    %r15d,%edx
    148b:	72 03                	jb     1490 <guest_func_realloc+0x7a0>
    148d:	44 89 fa             	mov    %r15d,%edx
    1490:	4c 8b bc 24 00 00 00 	mov    0x0(%rsp),%r15
    1497:	00 
    1498:	44 8b b4 24 0c 00 00 	mov    0xc(%rsp),%r14d
    149f:	00 
    14a0:	4c 89 ff             	mov    %r15,%rdi
    14a3:	40 89 c6             	rex mov %eax,%esi
    14a6:	40 89 d1             	rex mov %edx,%ecx
    14a9:	44 89 f2             	mov    %r14d,%edx
    14ac:	e8 3f 57 00 00       	callq  6bf0 <guest_func_memcpy>
    14b1:	89 84 24 24 00 00 00 	mov    %eax,0x24(%rsp)
    14b8:	4c 8b bc 24 00 00 00 	mov    0x0(%rsp),%r15
    14bf:	00 
    14c0:	44 8b b4 24 0c 00 00 	mov    0xc(%rsp),%r14d
    14c7:	00 
    14c8:	4c 89 ff             	mov    %r15,%rdi
    14cb:	44 89 f6             	mov    %r14d,%esi
    14ce:	e8 ad 5d 00 00       	callq  7280 <guest_func_10>
    14d3:	44 8b bc 24 24 00 00 	mov    0x24(%rsp),%r15d
    14da:	00 
    14db:	44 89 f8             	mov    %r15d,%eax
    14de:	48 83 c4 28          	add    $0x28,%rsp
    14e2:	41 5f                	pop    %r15
    14e4:	41 5e                	pop    %r14
    14e6:	41 5d                	pop    %r13
    14e8:	41 5c                	pop    %r12
    14ea:	5b                   	pop    %rbx
    14eb:	5d                   	pop    %rbp
    14ec:	c3                   	retq   
    14ed:	00 00                	add    %al,(%rax)
	...

00000000000014f0 <guest_func_8>:
    14f0:	55                   	push   %rbp
    14f1:	48 89 e5             	mov    %rsp,%rbp
    14f4:	53                   	push   %rbx
    14f5:	41 54                	push   %r12
    14f7:	41 55                	push   %r13
    14f9:	41 56                	push   %r14
    14fb:	41 57                	push   %r15
    14fd:	48 83 ec 78          	sub    $0x78,%rsp
    1501:	48 89 bc 24 38 00 00 	mov    %rdi,0x38(%rsp)
    1508:	00 
    1509:	89 b4 24 74 00 00 00 	mov    %esi,0x74(%rsp)
    1510:	31 c0                	xor    %eax,%eax
    1512:	89 84 24 70 00 00 00 	mov    %eax,0x70(%rsp)
    1519:	49 89 ff             	mov    %rdi,%r15
    151c:	49 8b 47 f0          	mov    -0x10(%r15),%rax
    1520:	8b 00                	mov    (%rax),%eax
    1522:	89 84 24 6c 00 00 00 	mov    %eax,0x6c(%rsp)
    1529:	b8 10 00 00 00       	mov    $0x10,%eax
    152e:	89 84 24 68 00 00 00 	mov    %eax,0x68(%rsp)
    1535:	44 8b bc 24 6c 00 00 	mov    0x6c(%rsp),%r15d
    153c:	00 
    153d:	41 83 c7 f0          	add    $0xfffffff0,%r15d
    1541:	44 89 bc 24 64 00 00 	mov    %r15d,0x64(%rsp)
    1548:	00 
    1549:	49 89 ff             	mov    %rdi,%r15
    154c:	49 8b 47 f0          	mov    -0x10(%r15),%rax
    1550:	44 8b bc 24 64 00 00 	mov    0x64(%rsp),%r15d
    1557:	00 
    1558:	44 89 38             	mov    %r15d,(%rax)
    155b:	b8 18 05 00 00       	mov    $0x518,%eax
    1560:	89 c0                	mov    %eax,%eax
    1562:	48 89 84 24 30 00 00 	mov    %rax,0x30(%rsp)
    1569:	00 
    156a:	49 89 ff             	mov    %rdi,%r15
    156d:	49 89 c6             	mov    %rax,%r14
    1570:	43 8b 04 37          	mov    (%r15,%r14,1),%eax
    1574:	85 c0                	test   %eax,%eax
    1576:	0f 85 9e 01 00 00    	jne    171a <guest_func_8+0x22a>
    157c:	44 8b b4 24 70 00 00 	mov    0x70(%rsp),%r14d
    1583:	00 
    1584:	4c 89 ff             	mov    %r15,%rdi
    1587:	44 89 f6             	mov    %r14d,%esi
    158a:	e8 61 3d 00 00       	callq  52f0 <guest_func_sbrk>
    158f:	b9 00 07 01 00       	mov    $0x10700,%ecx
    1594:	89 c2                	mov    %eax,%edx
    1596:	81 c2 00 f9 fe ff    	add    $0xfffef900,%edx
    159c:	83 fa 59             	cmp    $0x59,%edx
    159f:	0f 82 75 01 00 00    	jb     171a <guest_func_8+0x22a>
    15a5:	bb d8 06 00 00       	mov    $0x6d8,%ebx
    15aa:	89 db                	mov    %ebx,%ebx
    15ac:	4c 8b bc 24 38 00 00 	mov    0x38(%rsp),%r15
    15b3:	00 
    15b4:	41 8b 34 1f          	mov    (%r15,%rbx,1),%esi
    15b8:	85 f6                	test   %esi,%esi
    15ba:	75 75                	jne    1631 <guest_func_8+0x141>
    15bc:	be e4 06 00 00       	mov    $0x6e4,%esi
    15c1:	48 c7 c7 ff ff ff ff 	mov    $0xffffffffffffffff,%rdi
    15c8:	89 f6                	mov    %esi,%esi
    15ca:	49 89 3c 37          	mov    %rdi,(%r15,%rsi,1)
    15ce:	be dc 06 00 00       	mov    $0x6dc,%esi
    15d3:	48 bf 00 00 01 00 00 	movabs $0x1000000010000,%rdi
    15da:	00 01 00 
    15dd:	89 f6                	mov    %esi,%esi
    15df:	49 89 3c 37          	mov    %rdi,(%r15,%rsi,1)
    15e3:	44 8b bc 24 6c 00 00 	mov    0x6c(%rsp),%r15d
    15ea:	00 
    15eb:	41 83 c7 f8          	add    $0xfffffff8,%r15d
    15ef:	41 83 e7 f0          	and    $0xfffffff0,%r15d
    15f3:	41 81 f7 58 55 55 55 	xor    $0x55555558,%r15d
    15fa:	4c 8b b4 24 38 00 00 	mov    0x38(%rsp),%r14
    1601:	00 
    1602:	45 89 3c 1e          	mov    %r15d,(%r14,%rbx,1)
    1606:	bb ec 06 00 00       	mov    $0x6ec,%ebx
    160b:	89 db                	mov    %ebx,%ebx
    160d:	44 8b b4 24 70 00 00 	mov    0x70(%rsp),%r14d
    1614:	00 
    1615:	4c 8b ac 24 38 00 00 	mov    0x38(%rsp),%r13
    161c:	00 
    161d:	45 89 74 1d 00       	mov    %r14d,0x0(%r13,%rbx,1)
    1622:	bb bc 06 00 00       	mov    $0x6bc,%ebx
    1627:	89 db                	mov    %ebx,%ebx
    1629:	45 89 74 1d 00       	mov    %r14d,0x0(%r13,%rbx,1)
    162e:	44 89 fe             	mov    %r15d,%esi
    1631:	bb c4 06 00 00       	mov    $0x6c4,%ebx
    1636:	89 db                	mov    %ebx,%ebx
    1638:	4c 8b bc 24 38 00 00 	mov    0x38(%rsp),%r15
    163f:	00 
    1640:	41 89 14 1f          	mov    %edx,(%r15,%rbx,1)
    1644:	ba c0 06 00 00       	mov    $0x6c0,%edx
    1649:	89 d2                	mov    %edx,%edx
    164b:	41 89 0c 17          	mov    %ecx,(%r15,%rdx,1)
    164f:	ba 10 05 00 00       	mov    $0x510,%edx
    1654:	89 d2                	mov    %edx,%edx
    1656:	41 89 0c 17          	mov    %ecx,(%r15,%rdx,1)
    165a:	b9 24 05 00 00       	mov    $0x524,%ecx
    165f:	89 c9                	mov    %ecx,%ecx
    1661:	41 89 34 0f          	mov    %esi,(%r15,%rcx,1)
    1665:	b9 20 05 00 00       	mov    $0x520,%ecx
    166a:	ba ff ff ff ff       	mov    $0xffffffff,%edx
    166f:	89 c9                	mov    %ecx,%ecx
    1671:	41 89 14 0f          	mov    %edx,(%r15,%rcx,1)
    1675:	44 8b bc 24 70 00 00 	mov    0x70(%rsp),%r15d
    167c:	00 
    167d:	eb 03                	jmp    1682 <guest_func_8+0x192>
    167f:	41 89 cf             	mov    %ecx,%r15d
    1682:	44 89 f9             	mov    %r15d,%ecx
    1685:	81 c1 30 05 00 00    	add    $0x530,%ecx
    168b:	44 89 fa             	mov    %r15d,%edx
    168e:	81 c2 28 05 00 00    	add    $0x528,%edx
    1694:	89 c9                	mov    %ecx,%ecx
    1696:	4c 8b b4 24 38 00 00 	mov    0x38(%rsp),%r14
    169d:	00 
    169e:	41 89 14 0e          	mov    %edx,(%r14,%rcx,1)
    16a2:	44 89 f9             	mov    %r15d,%ecx
    16a5:	81 c1 34 05 00 00    	add    $0x534,%ecx
    16ab:	89 c9                	mov    %ecx,%ecx
    16ad:	41 89 14 0e          	mov    %edx,(%r14,%rcx,1)
    16b1:	44 89 f9             	mov    %r15d,%ecx
    16b4:	83 c1 08             	add    $0x8,%ecx
    16b7:	81 f9 00 01 00 00    	cmp    $0x100,%ecx
    16bd:	75 c0                	jne    167f <guest_func_8+0x18f>
    16bf:	b9 0c 07 01 00       	mov    $0x1070c,%ecx
    16c4:	89 c2                	mov    %eax,%edx
    16c6:	81 c2 c0 f8 fe ff    	add    $0xfffef8c0,%edx
    16cc:	89 d3                	mov    %edx,%ebx
    16ce:	83 cb 01             	or     $0x1,%ebx
    16d1:	89 c9                	mov    %ecx,%ecx
    16d3:	4d 89 f7             	mov    %r14,%r15
    16d6:	41 89 1c 0f          	mov    %ebx,(%r15,%rcx,1)
    16da:	b9 1c 05 00 00       	mov    $0x51c,%ecx
    16df:	bb e8 06 00 00       	mov    $0x6e8,%ebx
    16e4:	89 db                	mov    %ebx,%ebx
    16e6:	41 8b 1c 1f          	mov    (%r15,%rbx,1),%ebx
    16ea:	89 c9                	mov    %ecx,%ecx
    16ec:	41 89 1c 0f          	mov    %ebx,(%r15,%rcx,1)
    16f0:	b9 08 07 01 00       	mov    $0x10708,%ecx
    16f5:	4c 8b b4 24 30 00 00 	mov    0x30(%rsp),%r14
    16fc:	00 
    16fd:	43 89 0c 37          	mov    %ecx,(%r15,%r14,1)
    1701:	b9 0c 05 00 00       	mov    $0x50c,%ecx
    1706:	89 c9                	mov    %ecx,%ecx
    1708:	41 89 14 0f          	mov    %edx,(%r15,%rcx,1)
    170c:	83 c0 cc             	add    $0xffffffcc,%eax
    170f:	b9 38 00 00 00       	mov    $0x38,%ecx
    1714:	89 c0                	mov    %eax,%eax
    1716:	41 89 0c 07          	mov    %ecx,(%r15,%rax,1)
    171a:	44 8b bc 24 74 00 00 	mov    0x74(%rsp),%r15d
    1721:	00 
    1722:	41 81 ff ec 00 00 00 	cmp    $0xec,%r15d
    1729:	0f 87 f6 05 00 00    	ja     1d25 <guest_func_8+0x835>
    172f:	b8 00 05 00 00       	mov    $0x500,%eax
    1734:	89 c0                	mov    %eax,%eax
    1736:	4c 8b bc 24 38 00 00 	mov    0x38(%rsp),%r15
    173d:	00 
    173e:	41 8b 04 07          	mov    (%r15,%rax,1),%eax
    1742:	89 84 24 60 00 00 00 	mov    %eax,0x60(%rsp)
    1749:	44 8b bc 24 74 00 00 	mov    0x74(%rsp),%r15d
    1750:	00 
    1751:	41 83 c7 13          	add    $0x13,%r15d
    1755:	41 83 e7 f0          	and    $0xfffffff0,%r15d
    1759:	44 89 bc 24 54 00 00 	mov    %r15d,0x54(%rsp)
    1760:	00 
    1761:	44 8b bc 24 74 00 00 	mov    0x74(%rsp),%r15d
    1768:	00 
    1769:	41 83 ff 0b          	cmp    $0xb,%r15d
    176d:	72 02                	jb     1771 <guest_func_8+0x281>
    176f:	eb 10                	jmp    1781 <guest_func_8+0x291>
    1771:	44 8b bc 24 68 00 00 	mov    0x68(%rsp),%r15d
    1778:	00 
    1779:	44 89 bc 24 54 00 00 	mov    %r15d,0x54(%rsp)
    1780:	00 
    1781:	44 8b bc 24 54 00 00 	mov    0x54(%rsp),%r15d
    1788:	00 
    1789:	44 89 f8             	mov    %r15d,%eax
    178c:	c1 e8 03             	shr    $0x3,%eax
    178f:	44 8b bc 24 60 00 00 	mov    0x60(%rsp),%r15d
    1796:	00 
    1797:	44 89 fa             	mov    %r15d,%edx
    179a:	40 89 c1             	rex mov %eax,%ecx
    179d:	d3 ea                	shr    %cl,%edx
    179f:	89 d0                	mov    %edx,%eax
    17a1:	83 e0 03             	and    $0x3,%eax
    17a4:	40 89 c3             	rex mov %eax,%ebx
    17a7:	40 89 c8             	rex mov %ecx,%eax
    17aa:	40 89 d9             	rex mov %ebx,%ecx
    17ad:	85 c9                	test   %ecx,%ecx
    17af:	0f 84 b9 00 00 00    	je     186e <guest_func_8+0x37e>
    17b5:	83 e2 01             	and    $0x1,%edx
    17b8:	09 c2                	or     %eax,%edx
    17ba:	40 89 d0             	rex mov %edx,%eax
    17bd:	83 f0 01             	xor    $0x1,%eax
    17c0:	89 c1                	mov    %eax,%ecx
    17c2:	c1 e1 03             	shl    $0x3,%ecx
    17c5:	89 ca                	mov    %ecx,%edx
    17c7:	81 c2 30 05 00 00    	add    $0x530,%edx
    17cd:	89 d2                	mov    %edx,%edx
    17cf:	4c 8b bc 24 38 00 00 	mov    0x38(%rsp),%r15
    17d6:	00 
    17d7:	41 8b 14 17          	mov    (%r15,%rdx,1),%edx
    17db:	89 d3                	mov    %edx,%ebx
    17dd:	83 c3 08             	add    $0x8,%ebx
    17e0:	89 9c 24 70 00 00 00 	mov    %ebx,0x70(%rsp)
    17e7:	89 d3                	mov    %edx,%ebx
    17e9:	41 8b 74 1f 08       	mov    0x8(%r15,%rbx,1),%esi
    17ee:	89 cf                	mov    %ecx,%edi
    17f0:	81 c7 28 05 00 00    	add    $0x528,%edi
    17f6:	39 fe                	cmp    %edi,%esi
    17f8:	75 33                	jne    182d <guest_func_8+0x33d>
    17fa:	be 00 05 00 00       	mov    $0x500,%esi
    17ff:	bf fe ff ff ff       	mov    $0xfffffffe,%edi
    1804:	41 89 c8             	mov    %ecx,%r8d
    1807:	40 89 c1             	rex mov %eax,%ecx
    180a:	44 89 c0             	mov    %r8d,%eax
    180d:	d3 c7                	rol    %cl,%edi
    180f:	44 8b bc 24 60 00 00 	mov    0x60(%rsp),%r15d
    1816:	00 
    1817:	44 21 ff             	and    %r15d,%edi
    181a:	89 f1                	mov    %esi,%ecx
    181c:	4c 8b bc 24 38 00 00 	mov    0x38(%rsp),%r15
    1823:	00 
    1824:	41 89 3c 0f          	mov    %edi,(%r15,%rcx,1)
    1828:	40 89 c1             	rex mov %eax,%ecx
    182b:	eb 19                	jmp    1846 <guest_func_8+0x356>
    182d:	b8 10 05 00 00       	mov    $0x510,%eax
    1832:	89 c0                	mov    %eax,%eax
    1834:	41 8b 04 07          	mov    (%r15,%rax,1),%eax
    1838:	89 f8                	mov    %edi,%eax
    183a:	41 89 74 07 08       	mov    %esi,0x8(%r15,%rax,1)
    183f:	89 f0                	mov    %esi,%eax
    1841:	41 89 7c 07 0c       	mov    %edi,0xc(%r15,%rax,1)
    1846:	89 c8                	mov    %ecx,%eax
    1848:	83 c8 03             	or     $0x3,%eax
    184b:	4c 8b bc 24 38 00 00 	mov    0x38(%rsp),%r15
    1852:	00 
    1853:	41 89 44 1f 04       	mov    %eax,0x4(%r15,%rbx,1)
    1858:	01 d1                	add    %edx,%ecx
    185a:	89 c8                	mov    %ecx,%eax
    185c:	41 8b 4c 07 04       	mov    0x4(%r15,%rax,1),%ecx
    1861:	83 c9 01             	or     $0x1,%ecx
    1864:	41 89 4c 07 04       	mov    %ecx,0x4(%r15,%rax,1)
    1869:	e9 af 26 00 00       	jmpq   3f1d <guest_func_8+0x2a2d>
    186e:	b9 08 05 00 00       	mov    $0x508,%ecx
    1873:	89 c9                	mov    %ecx,%ecx
    1875:	4c 8b bc 24 38 00 00 	mov    0x38(%rsp),%r15
    187c:	00 
    187d:	41 8b 0c 0f          	mov    (%r15,%rcx,1),%ecx
    1881:	89 8c 24 5c 00 00 00 	mov    %ecx,0x5c(%rsp)
    1888:	44 8b bc 24 54 00 00 	mov    0x54(%rsp),%r15d
    188f:	00 
    1890:	41 89 ce             	mov    %ecx,%r14d
    1893:	45 39 f7             	cmp    %r14d,%r15d
    1896:	0f 86 4c 09 00 00    	jbe    21e8 <guest_func_8+0xcf8>
    189c:	85 d2                	test   %edx,%edx
    189e:	0f 84 2f 02 00 00    	je     1ad3 <guest_func_8+0x5e3>
    18a4:	40 89 c1             	rex mov %eax,%ecx
    18a7:	d3 e2                	shl    %cl,%edx
    18a9:	b8 02 00 00 00       	mov    $0x2,%eax
    18ae:	d3 e0                	shl    %cl,%eax
    18b0:	44 8b bc 24 70 00 00 	mov    0x70(%rsp),%r15d
    18b7:	00 
    18b8:	41 29 c7             	sub    %eax,%r15d
    18bb:	44 09 f8             	or     %r15d,%eax
    18be:	21 c2                	and    %eax,%edx
    18c0:	44 8b bc 24 70 00 00 	mov    0x70(%rsp),%r15d
    18c7:	00 
    18c8:	41 29 d7             	sub    %edx,%r15d
    18cb:	44 21 fa             	and    %r15d,%edx
    18ce:	83 c2 ff             	add    $0xffffffff,%edx
    18d1:	89 d0                	mov    %edx,%eax
    18d3:	c1 e8 0c             	shr    $0xc,%eax
    18d6:	83 e0 10             	and    $0x10,%eax
    18d9:	40 89 c1             	rex mov %eax,%ecx
    18dc:	d3 ea                	shr    %cl,%edx
    18de:	89 d0                	mov    %edx,%eax
    18e0:	c1 e8 05             	shr    $0x5,%eax
    18e3:	83 e0 08             	and    $0x8,%eax
    18e6:	40 89 cb             	rex mov %ecx,%ebx
    18e9:	40 89 c1             	rex mov %eax,%ecx
    18ec:	40 89 d8             	rex mov %ebx,%eax
    18ef:	d3 ea                	shr    %cl,%edx
    18f1:	89 d3                	mov    %edx,%ebx
    18f3:	c1 eb 02             	shr    $0x2,%ebx
    18f6:	83 e3 04             	and    $0x4,%ebx
    18f9:	40 89 ce             	rex mov %ecx,%esi
    18fc:	40 89 d9             	rex mov %ebx,%ecx
    18ff:	40 89 f3             	rex mov %esi,%ebx
    1902:	d3 ea                	shr    %cl,%edx
    1904:	be 01 00 00 00       	mov    $0x1,%esi
    1909:	89 d7                	mov    %edx,%edi
    190b:	c1 ef 01             	shr    $0x1,%edi
    190e:	83 e7 02             	and    $0x2,%edi
    1911:	41 89 c8             	mov    %ecx,%r8d
    1914:	40 89 f9             	rex mov %edi,%ecx
    1917:	44 89 c7             	mov    %r8d,%edi
    191a:	d3 ea                	shr    %cl,%edx
    191c:	41 89 d0             	mov    %edx,%r8d
    191f:	41 c1 e8 01          	shr    $0x1,%r8d
    1923:	41 83 e0 01          	and    $0x1,%r8d
    1927:	09 c3                	or     %eax,%ebx
    1929:	09 fb                	or     %edi,%ebx
    192b:	09 cb                	or     %ecx,%ebx
    192d:	44 89 c0             	mov    %r8d,%eax
    1930:	09 d8                	or     %ebx,%eax
    1932:	44 89 c1             	mov    %r8d,%ecx
    1935:	d3 ea                	shr    %cl,%edx
    1937:	01 d0                	add    %edx,%eax
    1939:	89 c1                	mov    %eax,%ecx
    193b:	c1 e1 03             	shl    $0x3,%ecx
    193e:	89 ca                	mov    %ecx,%edx
    1940:	81 c2 30 05 00 00    	add    $0x530,%edx
    1946:	89 d2                	mov    %edx,%edx
    1948:	4c 8b bc 24 38 00 00 	mov    0x38(%rsp),%r15
    194f:	00 
    1950:	41 8b 14 17          	mov    (%r15,%rdx,1),%edx
    1954:	89 d3                	mov    %edx,%ebx
    1956:	41 8b 7c 1f 08       	mov    0x8(%r15,%rbx,1),%edi
    195b:	41 89 c8             	mov    %ecx,%r8d
    195e:	41 81 c0 28 05 00 00 	add    $0x528,%r8d
    1965:	44 39 c7             	cmp    %r8d,%edi
    1968:	75 40                	jne    19aa <guest_func_8+0x4ba>
    196a:	bf 00 05 00 00       	mov    $0x500,%edi
    196f:	41 b8 fe ff ff ff    	mov    $0xfffffffe,%r8d
    1975:	41 89 c9             	mov    %ecx,%r9d
    1978:	40 89 c1             	rex mov %eax,%ecx
    197b:	44 89 c8             	mov    %r9d,%eax
    197e:	41 d3 c0             	rol    %cl,%r8d
    1981:	44 8b bc 24 60 00 00 	mov    0x60(%rsp),%r15d
    1988:	00 
    1989:	45 21 f8             	and    %r15d,%r8d
    198c:	44 89 84 24 60 00 00 	mov    %r8d,0x60(%rsp)
    1993:	00 
    1994:	89 f9                	mov    %edi,%ecx
    1996:	45 89 c7             	mov    %r8d,%r15d
    1999:	4c 8b b4 24 38 00 00 	mov    0x38(%rsp),%r14
    19a0:	00 
    19a1:	45 89 3c 0e          	mov    %r15d,(%r14,%rcx,1)
    19a5:	40 89 c1             	rex mov %eax,%ecx
    19a8:	eb 1a                	jmp    19c4 <guest_func_8+0x4d4>
    19aa:	b8 10 05 00 00       	mov    $0x510,%eax
    19af:	89 c0                	mov    %eax,%eax
    19b1:	41 8b 04 07          	mov    (%r15,%rax,1),%eax
    19b5:	44 89 c0             	mov    %r8d,%eax
    19b8:	41 89 7c 07 08       	mov    %edi,0x8(%r15,%rax,1)
    19bd:	89 f8                	mov    %edi,%eax
    19bf:	45 89 44 07 0c       	mov    %r8d,0xc(%r15,%rax,1)
    19c4:	89 d0                	mov    %edx,%eax
    19c6:	83 c0 08             	add    $0x8,%eax
    19c9:	89 84 24 70 00 00 00 	mov    %eax,0x70(%rsp)
    19d0:	44 8b bc 24 54 00 00 	mov    0x54(%rsp),%r15d
    19d7:	00 
    19d8:	41 83 cf 03          	or     $0x3,%r15d
    19dc:	4c 8b b4 24 38 00 00 	mov    0x38(%rsp),%r14
    19e3:	00 
    19e4:	45 89 7c 1e 04       	mov    %r15d,0x4(%r14,%rbx,1)
    19e9:	89 c8                	mov    %ecx,%eax
    19eb:	44 8b bc 24 54 00 00 	mov    0x54(%rsp),%r15d
    19f2:	00 
    19f3:	44 29 f8             	sub    %r15d,%eax
    19f6:	01 d1                	add    %edx,%ecx
    19f8:	89 c9                	mov    %ecx,%ecx
    19fa:	4d 89 f7             	mov    %r14,%r15
    19fd:	41 89 04 0f          	mov    %eax,(%r15,%rcx,1)
    1a01:	44 8b bc 24 54 00 00 	mov    0x54(%rsp),%r15d
    1a08:	00 
    1a09:	40 89 d1             	rex mov %edx,%ecx
    1a0c:	44 01 f9             	add    %r15d,%ecx
    1a0f:	89 c2                	mov    %eax,%edx
    1a11:	83 ca 01             	or     $0x1,%edx
    1a14:	89 cb                	mov    %ecx,%ebx
    1a16:	4d 89 f7             	mov    %r14,%r15
    1a19:	41 89 54 1f 04       	mov    %edx,0x4(%r15,%rbx,1)
    1a1e:	44 8b bc 24 5c 00 00 	mov    0x5c(%rsp),%r15d
    1a25:	00 
    1a26:	45 85 ff             	test   %r15d,%r15d
    1a29:	0f 84 81 00 00 00    	je     1ab0 <guest_func_8+0x5c0>
    1a2f:	41 c1 ef 03          	shr    $0x3,%r15d
    1a33:	44 89 fa             	mov    %r15d,%edx
    1a36:	c1 e2 03             	shl    $0x3,%edx
    1a39:	81 c2 28 05 00 00    	add    $0x528,%edx
    1a3f:	bb 14 05 00 00       	mov    $0x514,%ebx
    1a44:	89 db                	mov    %ebx,%ebx
    1a46:	41 8b 1c 1e          	mov    (%r14,%rbx,1),%ebx
    1a4a:	40 89 f7             	rex mov %esi,%edi
    1a4d:	40 89 ce             	rex mov %ecx,%esi
    1a50:	44 89 f9             	mov    %r15d,%ecx
    1a53:	d3 e7                	shl    %cl,%edi
    1a55:	89 f9                	mov    %edi,%ecx
    1a57:	44 8b bc 24 60 00 00 	mov    0x60(%rsp),%r15d
    1a5e:	00 
    1a5f:	44 21 f9             	and    %r15d,%ecx
    1a62:	41 89 c8             	mov    %ecx,%r8d
    1a65:	40 89 f1             	rex mov %esi,%ecx
    1a68:	44 89 c6             	mov    %r8d,%esi
    1a6b:	85 f6                	test   %esi,%esi
    1a6d:	75 15                	jne    1a84 <guest_func_8+0x594>
    1a6f:	be 00 05 00 00       	mov    $0x500,%esi
    1a74:	44 09 ff             	or     %r15d,%edi
    1a77:	89 f6                	mov    %esi,%esi
    1a79:	4d 89 f7             	mov    %r14,%r15
    1a7c:	41 89 3c 37          	mov    %edi,(%r15,%rsi,1)
    1a80:	89 d6                	mov    %edx,%esi
    1a82:	eb 0a                	jmp    1a8e <guest_func_8+0x59e>
    1a84:	89 d6                	mov    %edx,%esi
    1a86:	4d 89 f7             	mov    %r14,%r15
    1a89:	41 8b 74 37 08       	mov    0x8(%r15,%rsi,1),%esi
    1a8e:	89 f7                	mov    %esi,%edi
    1a90:	4c 8b bc 24 38 00 00 	mov    0x38(%rsp),%r15
    1a97:	00 
    1a98:	41 89 5c 3f 0c       	mov    %ebx,0xc(%r15,%rdi,1)
    1a9d:	89 d7                	mov    %edx,%edi
    1a9f:	41 89 5c 3f 08       	mov    %ebx,0x8(%r15,%rdi,1)
    1aa4:	89 db                	mov    %ebx,%ebx
    1aa6:	41 89 54 1f 0c       	mov    %edx,0xc(%r15,%rbx,1)
    1aab:	41 89 74 1f 08       	mov    %esi,0x8(%r15,%rbx,1)
    1ab0:	ba 14 05 00 00       	mov    $0x514,%edx
    1ab5:	89 d2                	mov    %edx,%edx
    1ab7:	4c 8b bc 24 38 00 00 	mov    0x38(%rsp),%r15
    1abe:	00 
    1abf:	41 89 0c 17          	mov    %ecx,(%r15,%rdx,1)
    1ac3:	b9 08 05 00 00       	mov    $0x508,%ecx
    1ac8:	89 c9                	mov    %ecx,%ecx
    1aca:	41 89 04 0f          	mov    %eax,(%r15,%rcx,1)
    1ace:	e9 4a 24 00 00       	jmpq   3f1d <guest_func_8+0x2a2d>
    1ad3:	b8 04 05 00 00       	mov    $0x504,%eax
    1ad8:	89 c0                	mov    %eax,%eax
    1ada:	4c 8b bc 24 38 00 00 	mov    0x38(%rsp),%r15
    1ae1:	00 
    1ae2:	41 8b 0c 07          	mov    (%r15,%rax,1),%ecx
    1ae6:	85 c9                	test   %ecx,%ecx
    1ae8:	0f 84 fa 06 00 00    	je     21e8 <guest_func_8+0xcf8>
    1aee:	44 8b bc 24 70 00 00 	mov    0x70(%rsp),%r15d
    1af5:	00 
    1af6:	41 29 cf             	sub    %ecx,%r15d
    1af9:	41 21 cf             	and    %ecx,%r15d
    1afc:	41 83 c7 ff          	add    $0xffffffff,%r15d
    1b00:	44 89 fa             	mov    %r15d,%edx
    1b03:	c1 ea 0c             	shr    $0xc,%edx
    1b06:	83 e2 10             	and    $0x10,%edx
    1b09:	40 89 cb             	rex mov %ecx,%ebx
    1b0c:	40 89 d1             	rex mov %edx,%ecx
    1b0f:	40 89 da             	rex mov %ebx,%edx
    1b12:	41 d3 ef             	shr    %cl,%r15d
    1b15:	44 89 fb             	mov    %r15d,%ebx
    1b18:	c1 eb 05             	shr    $0x5,%ebx
    1b1b:	83 e3 08             	and    $0x8,%ebx
    1b1e:	40 89 ce             	rex mov %ecx,%esi
    1b21:	40 89 d9             	rex mov %ebx,%ecx
    1b24:	40 89 f3             	rex mov %esi,%ebx
    1b27:	41 d3 ef             	shr    %cl,%r15d
    1b2a:	44 89 fe             	mov    %r15d,%esi
    1b2d:	c1 ee 02             	shr    $0x2,%esi
    1b30:	83 e6 04             	and    $0x4,%esi
    1b33:	40 89 cf             	rex mov %ecx,%edi
    1b36:	40 89 f1             	rex mov %esi,%ecx
    1b39:	40 89 fe             	rex mov %edi,%esi
    1b3c:	41 d3 ef             	shr    %cl,%r15d
    1b3f:	bf 01 00 00 00       	mov    $0x1,%edi
    1b44:	45 89 f8             	mov    %r15d,%r8d
    1b47:	41 c1 e8 01          	shr    $0x1,%r8d
    1b4b:	41 83 e0 02          	and    $0x2,%r8d
    1b4f:	41 89 c9             	mov    %ecx,%r9d
    1b52:	44 89 c1             	mov    %r8d,%ecx
    1b55:	45 89 c8             	mov    %r9d,%r8d
    1b58:	41 d3 ef             	shr    %cl,%r15d
    1b5b:	45 89 f9             	mov    %r15d,%r9d
    1b5e:	41 c1 e9 01          	shr    $0x1,%r9d
    1b62:	41 83 e1 01          	and    $0x1,%r9d
    1b66:	09 de                	or     %ebx,%esi
    1b68:	44 09 c6             	or     %r8d,%esi
    1b6b:	09 ce                	or     %ecx,%esi
    1b6d:	44 89 c9             	mov    %r9d,%ecx
    1b70:	09 f1                	or     %esi,%ecx
    1b72:	40 89 cb             	rex mov %ecx,%ebx
    1b75:	44 89 c9             	mov    %r9d,%ecx
    1b78:	41 d3 ef             	shr    %cl,%r15d
    1b7b:	44 01 fb             	add    %r15d,%ebx
    1b7e:	c1 e3 02             	shl    $0x2,%ebx
    1b81:	81 c3 30 06 00 00    	add    $0x630,%ebx
    1b87:	89 d9                	mov    %ebx,%ecx
    1b89:	4c 8b bc 24 38 00 00 	mov    0x38(%rsp),%r15
    1b90:	00 
    1b91:	41 8b 0c 0f          	mov    (%r15,%rcx,1),%ecx
    1b95:	89 cb                	mov    %ecx,%ebx
    1b97:	41 8b 5c 1f 04       	mov    0x4(%r15,%rbx,1),%ebx
    1b9c:	83 e3 f8             	and    $0xfffffff8,%ebx
    1b9f:	44 8b bc 24 54 00 00 	mov    0x54(%rsp),%r15d
    1ba6:	00 
    1ba7:	44 29 fb             	sub    %r15d,%ebx
    1baa:	be 14 00 00 00       	mov    $0x14,%esi
    1baf:	41 89 c8             	mov    %ecx,%r8d
    1bb2:	41 89 c9             	mov    %ecx,%r9d
    1bb5:	40 89 d1             	rex mov %edx,%ecx
    1bb8:	44 89 ca             	mov    %r9d,%edx
    1bbb:	45 89 c1             	mov    %r8d,%r9d
    1bbe:	4c 8b bc 24 38 00 00 	mov    0x38(%rsp),%r15
    1bc5:	00 
    1bc6:	47 8b 4c 0f 10       	mov    0x10(%r15,%r9,1),%r9d
    1bcb:	45 85 c9             	test   %r9d,%r9d
    1bce:	75 13                	jne    1be3 <guest_func_8+0x6f3>
    1bd0:	41 83 c0 14          	add    $0x14,%r8d
    1bd4:	45 89 c0             	mov    %r8d,%r8d
    1bd7:	47 8b 04 07          	mov    (%r15,%r8,1),%r8d
    1bdb:	45 85 c0             	test   %r8d,%r8d
    1bde:	74 49                	je     1c29 <guest_func_8+0x739>
    1be0:	45 89 c1             	mov    %r8d,%r9d
    1be3:	45 89 c8             	mov    %r9d,%r8d
    1be6:	4c 8b bc 24 38 00 00 	mov    0x38(%rsp),%r15
    1bed:	00 
    1bee:	47 8b 44 07 04       	mov    0x4(%r15,%r8,1),%r8d
    1bf3:	41 83 e0 f8          	and    $0xfffffff8,%r8d
    1bf7:	44 8b bc 24 54 00 00 	mov    0x54(%rsp),%r15d
    1bfe:	00 
    1bff:	45 29 f8             	sub    %r15d,%r8d
    1c02:	41 39 d8             	cmp    %ebx,%r8d
    1c05:	41 0f 92 c2          	setb   %r10b
    1c09:	72 03                	jb     1c0e <guest_func_8+0x71e>
    1c0b:	41 89 d8             	mov    %ebx,%r8d
    1c0e:	45 84 d2             	test   %r10b,%r10b
    1c11:	75 02                	jne    1c15 <guest_func_8+0x725>
    1c13:	eb 03                	jmp    1c18 <guest_func_8+0x728>
    1c15:	44 89 ca             	mov    %r9d,%edx
    1c18:	44 89 c3             	mov    %r8d,%ebx
    1c1b:	45 89 ca             	mov    %r9d,%r10d
    1c1e:	45 89 c3             	mov    %r8d,%r11d
    1c21:	45 89 d0             	mov    %r10d,%r8d
    1c24:	45 89 da             	mov    %r11d,%r10d
    1c27:	eb 92                	jmp    1bbb <guest_func_8+0x6cb>
    1c29:	41 89 d0             	mov    %edx,%r8d
    1c2c:	47 8b 4c 07 18       	mov    0x18(%r15,%r8,1),%r9d
    1c31:	47 8b 54 07 0c       	mov    0xc(%r15,%r8,1),%r10d
    1c36:	44 39 d2             	cmp    %r10d,%edx
    1c39:	74 44                	je     1c7f <guest_func_8+0x78f>
    1c3b:	41 bb 10 05 00 00    	mov    $0x510,%r11d
    1c41:	45 89 db             	mov    %r11d,%r11d
    1c44:	47 8b 1c 1f          	mov    (%r15,%r11,1),%r11d
    1c48:	47 8b 64 07 08       	mov    0x8(%r15,%r8,1),%r12d
    1c4d:	45 39 e3             	cmp    %r12d,%r11d
    1c50:	77 08                	ja     1c5a <guest_func_8+0x76a>
    1c52:	45 89 e3             	mov    %r12d,%r11d
    1c55:	47 8b 5c 1f 0c       	mov    0xc(%r15,%r11,1),%r11d
    1c5a:	45 89 d3             	mov    %r10d,%r11d
    1c5d:	4c 8b bc 24 38 00 00 	mov    0x38(%rsp),%r15
    1c64:	00 
    1c65:	47 89 64 1f 08       	mov    %r12d,0x8(%r15,%r11,1)
    1c6a:	45 89 e3             	mov    %r12d,%r11d
    1c6d:	47 89 54 1f 0c       	mov    %r10d,0xc(%r15,%r11,1)
    1c72:	44 89 94 24 70 00 00 	mov    %r10d,0x70(%rsp)
    1c79:	00 
    1c7a:	e9 15 20 00 00       	jmpq   3c94 <guest_func_8+0x27a4>
    1c7f:	41 89 d2             	mov    %edx,%r10d
    1c82:	41 83 c2 14          	add    $0x14,%r10d
    1c86:	45 89 d3             	mov    %r10d,%r11d
    1c89:	47 8b 1c 1f          	mov    (%r15,%r11,1),%r11d
    1c8d:	45 85 db             	test   %r11d,%r11d
    1c90:	75 1e                	jne    1cb0 <guest_func_8+0x7c0>
    1c92:	47 8b 54 07 10       	mov    0x10(%r15,%r8,1),%r10d
    1c97:	45 85 d2             	test   %r10d,%r10d
    1c9a:	0f 84 f4 1f 00 00    	je     3c94 <guest_func_8+0x27a4>
    1ca0:	41 89 d3             	mov    %edx,%r11d
    1ca3:	41 83 c3 10          	add    $0x10,%r11d
    1ca7:	45 89 dc             	mov    %r11d,%r12d
    1caa:	45 89 d3             	mov    %r10d,%r11d
    1cad:	45 89 e2             	mov    %r12d,%r10d
    1cb0:	eb 20                	jmp    1cd2 <guest_func_8+0x7e2>
    1cb2:	45 89 ea             	mov    %r13d,%r10d
    1cb5:	45 89 e3             	mov    %r12d,%r11d
    1cb8:	45 89 de             	mov    %r11d,%r14d
    1cbb:	45 89 d3             	mov    %r10d,%r11d
    1cbe:	45 89 f2             	mov    %r14d,%r10d
    1cc1:	eb 0f                	jmp    1cd2 <guest_func_8+0x7e2>
    1cc3:	45 89 ea             	mov    %r13d,%r10d
    1cc6:	45 89 e3             	mov    %r12d,%r11d
    1cc9:	45 89 de             	mov    %r11d,%r14d
    1ccc:	45 89 d3             	mov    %r10d,%r11d
    1ccf:	45 89 f2             	mov    %r14d,%r10d
    1cd2:	45 89 dc             	mov    %r11d,%r12d
    1cd5:	41 83 c4 14          	add    $0x14,%r12d
    1cd9:	45 89 e5             	mov    %r12d,%r13d
    1cdc:	4c 8b bc 24 38 00 00 	mov    0x38(%rsp),%r15
    1ce3:	00 
    1ce4:	47 8b 2c 2f          	mov    (%r15,%r13,1),%r13d
    1ce8:	45 85 ed             	test   %r13d,%r13d
    1ceb:	75 c5                	jne    1cb2 <guest_func_8+0x7c2>
    1ced:	45 89 dc             	mov    %r11d,%r12d
    1cf0:	41 83 c4 10          	add    $0x10,%r12d
    1cf4:	45 89 dd             	mov    %r11d,%r13d
    1cf7:	47 8b 6c 2f 10       	mov    0x10(%r15,%r13,1),%r13d
    1cfc:	45 85 ed             	test   %r13d,%r13d
    1cff:	75 c2                	jne    1cc3 <guest_func_8+0x7d3>
    1d01:	45 89 d2             	mov    %r10d,%r10d
    1d04:	44 8b bc 24 70 00 00 	mov    0x70(%rsp),%r15d
    1d0b:	00 
    1d0c:	4c 8b b4 24 38 00 00 	mov    0x38(%rsp),%r14
    1d13:	00 
    1d14:	47 89 3c 16          	mov    %r15d,(%r14,%r10,1)
    1d18:	44 89 9c 24 70 00 00 	mov    %r11d,0x70(%rsp)
    1d1f:	00 
    1d20:	e9 6f 1f 00 00       	jmpq   3c94 <guest_func_8+0x27a4>
    1d25:	b8 ff ff ff ff       	mov    $0xffffffff,%eax
    1d2a:	89 84 24 54 00 00 00 	mov    %eax,0x54(%rsp)
    1d31:	41 83 ff bf          	cmp    $0xffffffbf,%r15d
    1d35:	0f 87 ad 04 00 00    	ja     21e8 <guest_func_8+0xcf8>
    1d3b:	44 89 f8             	mov    %r15d,%eax
    1d3e:	83 c0 13             	add    $0x13,%eax
    1d41:	89 c1                	mov    %eax,%ecx
    1d43:	83 e1 f0             	and    $0xfffffff0,%ecx
    1d46:	89 8c 24 54 00 00 00 	mov    %ecx,0x54(%rsp)
    1d4d:	b9 04 05 00 00       	mov    $0x504,%ecx
    1d52:	89 c9                	mov    %ecx,%ecx
    1d54:	4c 8b bc 24 38 00 00 	mov    0x38(%rsp),%r15
    1d5b:	00 
    1d5c:	41 8b 14 0f          	mov    (%r15,%rcx,1),%edx
    1d60:	85 d2                	test   %edx,%edx
    1d62:	0f 84 80 04 00 00    	je     21e8 <guest_func_8+0xcf8>
    1d68:	c1 e8 08             	shr    $0x8,%eax
    1d6b:	85 c0                	test   %eax,%eax
    1d6d:	0f 84 94 00 00 00    	je     1e07 <guest_func_8+0x917>
    1d73:	bb 1f 00 00 00       	mov    $0x1f,%ebx
    1d78:	44 8b bc 24 54 00 00 	mov    0x54(%rsp),%r15d
    1d7f:	00 
    1d80:	41 81 ff ff ff ff 00 	cmp    $0xffffff,%r15d
    1d87:	0f 87 84 00 00 00    	ja     1e11 <guest_func_8+0x921>
    1d8d:	89 c3                	mov    %eax,%ebx
    1d8f:	81 c3 00 ff 0f 00    	add    $0xfff00,%ebx
    1d95:	c1 eb 10             	shr    $0x10,%ebx
    1d98:	83 e3 08             	and    $0x8,%ebx
    1d9b:	48 89 ce             	mov    %rcx,%rsi
    1d9e:	40 89 d9             	rex mov %ebx,%ecx
    1da1:	48 89 f3             	mov    %rsi,%rbx
    1da4:	d3 e0                	shl    %cl,%eax
    1da6:	89 c6                	mov    %eax,%esi
    1da8:	81 c6 00 f0 07 00    	add    $0x7f000,%esi
    1dae:	c1 ee 10             	shr    $0x10,%esi
    1db1:	83 e6 04             	and    $0x4,%esi
    1db4:	40 89 cf             	rex mov %ecx,%edi
    1db7:	40 89 f1             	rex mov %esi,%ecx
    1dba:	40 89 fe             	rex mov %edi,%esi
    1dbd:	d3 e0                	shl    %cl,%eax
    1dbf:	89 c7                	mov    %eax,%edi
    1dc1:	81 c7 00 c0 03 00    	add    $0x3c000,%edi
    1dc7:	c1 ef 10             	shr    $0x10,%edi
    1dca:	83 e7 02             	and    $0x2,%edi
    1dcd:	41 89 c8             	mov    %ecx,%r8d
    1dd0:	40 89 f9             	rex mov %edi,%ecx
    1dd3:	44 89 c7             	mov    %r8d,%edi
    1dd6:	d3 e0                	shl    %cl,%eax
    1dd8:	c1 e8 0f             	shr    $0xf,%eax
    1ddb:	09 fe                	or     %edi,%esi
    1ddd:	09 ce                	or     %ecx,%esi
    1ddf:	29 f0                	sub    %esi,%eax
    1de1:	89 c1                	mov    %eax,%ecx
    1de3:	c1 e1 01             	shl    $0x1,%ecx
    1de6:	83 c0 15             	add    $0x15,%eax
    1de9:	40 89 ce             	rex mov %ecx,%esi
    1dec:	40 89 c1             	rex mov %eax,%ecx
    1def:	40 89 f0             	rex mov %esi,%eax
    1df2:	41 d3 ef             	shr    %cl,%r15d
    1df5:	41 83 e7 01          	and    $0x1,%r15d
    1df9:	44 09 f8             	or     %r15d,%eax
    1dfc:	83 c0 1c             	add    $0x1c,%eax
    1dff:	48 89 d9             	mov    %rbx,%rcx
    1e02:	41 89 c7             	mov    %eax,%r15d
    1e05:	eb 0d                	jmp    1e14 <guest_func_8+0x924>
    1e07:	44 8b bc 24 70 00 00 	mov    0x70(%rsp),%r15d
    1e0e:	00 
    1e0f:	eb 03                	jmp    1e14 <guest_func_8+0x924>
    1e11:	41 89 df             	mov    %ebx,%r15d
    1e14:	44 8b b4 24 70 00 00 	mov    0x70(%rsp),%r14d
    1e1b:	00 
    1e1c:	44 8b ac 24 54 00 00 	mov    0x54(%rsp),%r13d
    1e23:	00 
    1e24:	44 89 f0             	mov    %r14d,%eax
    1e27:	44 29 e8             	sub    %r13d,%eax
    1e2a:	bb 02 00 00 00       	mov    $0x2,%ebx
    1e2f:	44 89 fe             	mov    %r15d,%esi
    1e32:	c1 e6 02             	shl    $0x2,%esi
    1e35:	81 c6 30 06 00 00    	add    $0x630,%esi
    1e3b:	89 f6                	mov    %esi,%esi
    1e3d:	4c 8b b4 24 38 00 00 	mov    0x38(%rsp),%r14
    1e44:	00 
    1e45:	41 8b 34 36          	mov    (%r14,%rsi,1),%esi
    1e49:	85 f6                	test   %esi,%esi
    1e4b:	75 1f                	jne    1e6c <guest_func_8+0x97c>
    1e4d:	44 8b b4 24 70 00 00 	mov    0x70(%rsp),%r14d
    1e54:	00 
    1e55:	45 89 f5             	mov    %r14d,%r13d
    1e58:	45 89 f1             	mov    %r14d,%r9d
    1e5b:	44 89 ee             	mov    %r13d,%esi
    1e5e:	41 89 c0             	mov    %eax,%r8d
    1e61:	40 89 d0             	rex mov %edx,%eax
    1e64:	44 89 fa             	mov    %r15d,%edx
    1e67:	e9 0f 01 00 00       	jmpq   1f7b <guest_func_8+0xa8b>
    1e6c:	bf 19 00 00 00       	mov    $0x19,%edi
    1e71:	45 89 f8             	mov    %r15d,%r8d
    1e74:	41 c1 e8 01          	shr    $0x1,%r8d
    1e78:	44 29 c7             	sub    %r8d,%edi
    1e7b:	41 83 ff 1f          	cmp    $0x1f,%r15d
    1e7f:	74 05                	je     1e86 <guest_func_8+0x996>
    1e81:	41 89 fe             	mov    %edi,%r14d
    1e84:	eb 08                	jmp    1e8e <guest_func_8+0x99e>
    1e86:	44 8b b4 24 70 00 00 	mov    0x70(%rsp),%r14d
    1e8d:	00 
    1e8e:	44 8b ac 24 54 00 00 	mov    0x54(%rsp),%r13d
    1e95:	00 
    1e96:	48 89 cf             	mov    %rcx,%rdi
    1e99:	44 89 f1             	mov    %r14d,%ecx
    1e9c:	41 d3 e5             	shl    %cl,%r13d
    1e9f:	44 8b b4 24 70 00 00 	mov    0x70(%rsp),%r14d
    1ea6:	00 
    1ea7:	45 89 f4             	mov    %r14d,%r12d
    1eaa:	89 c1                	mov    %eax,%ecx
    1eac:	41 89 c8             	mov    %ecx,%r8d
    1eaf:	48 89 f9             	mov    %rdi,%rcx
    1eb2:	44 89 c7             	mov    %r8d,%edi
    1eb5:	eb 15                	jmp    1ecc <guest_func_8+0x9dc>
    1eb7:	44 89 cf             	mov    %r9d,%edi
    1eba:	45 89 c3             	mov    %r8d,%r11d
    1ebd:	41 89 fe             	mov    %edi,%r14d
    1ec0:	44 89 df             	mov    %r11d,%edi
    1ec3:	45 89 d5             	mov    %r10d,%r13d
    1ec6:	41 89 d7             	mov    %edx,%r15d
    1ec9:	40 89 c2             	rex mov %eax,%edx
    1ecc:	89 d0                	mov    %edx,%eax
    1ece:	44 89 fa             	mov    %r15d,%edx
    1ed1:	41 89 f0             	mov    %esi,%r8d
    1ed4:	4c 8b bc 24 38 00 00 	mov    0x38(%rsp),%r15
    1edb:	00 
    1edc:	47 8b 44 07 04       	mov    0x4(%r15,%r8,1),%r8d
    1ee1:	41 83 e0 f8          	and    $0xfffffff8,%r8d
    1ee5:	44 8b bc 24 54 00 00 	mov    0x54(%rsp),%r15d
    1eec:	00 
    1eed:	45 29 f8             	sub    %r15d,%r8d
    1ef0:	41 39 f8             	cmp    %edi,%r8d
    1ef3:	73 14                	jae    1f09 <guest_func_8+0xa19>
    1ef5:	45 85 c0             	test   %r8d,%r8d
    1ef8:	75 14                	jne    1f0e <guest_func_8+0xa1e>
    1efa:	44 8b bc 24 70 00 00 	mov    0x70(%rsp),%r15d
    1f01:	00 
    1f02:	89 f2                	mov    %esi,%edx
    1f04:	e9 4f 01 00 00       	jmpq   2058 <guest_func_8+0xb68>
    1f09:	41 89 f8             	mov    %edi,%r8d
    1f0c:	eb 05                	jmp    1f13 <guest_func_8+0xa23>
    1f0e:	89 f7                	mov    %esi,%edi
    1f10:	41 89 fc             	mov    %edi,%r12d
    1f13:	89 f7                	mov    %esi,%edi
    1f15:	83 c7 14             	add    $0x14,%edi
    1f18:	89 ff                	mov    %edi,%edi
    1f1a:	4c 8b bc 24 38 00 00 	mov    0x38(%rsp),%r15
    1f21:	00 
    1f22:	41 8b 3c 3f          	mov    (%r15,%rdi,1),%edi
    1f26:	45 89 e9             	mov    %r13d,%r9d
    1f29:	41 c1 e9 1d          	shr    $0x1d,%r9d
    1f2d:	41 83 e1 04          	and    $0x4,%r9d
    1f31:	41 01 f1             	add    %esi,%r9d
    1f34:	41 83 c1 10          	add    $0x10,%r9d
    1f38:	44 89 ce             	mov    %r9d,%esi
    1f3b:	41 8b 34 37          	mov    (%r15,%rsi,1),%esi
    1f3f:	39 f7                	cmp    %esi,%edi
    1f41:	74 05                	je     1f48 <guest_func_8+0xa58>
    1f43:	41 89 f9             	mov    %edi,%r9d
    1f46:	eb 03                	jmp    1f4b <guest_func_8+0xa5b>
    1f48:	45 89 f1             	mov    %r14d,%r9d
    1f4b:	85 ff                	test   %edi,%edi
    1f4d:	75 06                	jne    1f55 <guest_func_8+0xa65>
    1f4f:	44 89 f7             	mov    %r14d,%edi
    1f52:	41 89 f9             	mov    %edi,%r9d
    1f55:	40 89 f7             	rex mov %esi,%edi
    1f58:	48 89 ce             	mov    %rcx,%rsi
    1f5b:	83 ff 00             	cmp    $0x0,%edi
    1f5e:	0f 95 c1             	setne  %cl
    1f61:	0f b6 c9             	movzbl %cl,%ecx
    1f64:	45 89 ea             	mov    %r13d,%r10d
    1f67:	41 d3 e2             	shl    %cl,%r10d
    1f6a:	48 89 f1             	mov    %rsi,%rcx
    1f6d:	40 89 fe             	rex mov %edi,%esi
    1f70:	85 f6                	test   %esi,%esi
    1f72:	0f 85 3f ff ff ff    	jne    1eb7 <guest_func_8+0x9c7>
    1f78:	44 89 e6             	mov    %r12d,%esi
    1f7b:	44 89 cf             	mov    %r9d,%edi
    1f7e:	09 f7                	or     %esi,%edi
    1f80:	85 ff                	test   %edi,%edi
    1f82:	0f 85 c2 00 00 00    	jne    204a <guest_func_8+0xb5a>
    1f88:	48 89 cf             	mov    %rcx,%rdi
    1f8b:	40 89 d1             	rex mov %edx,%ecx
    1f8e:	48 89 fa             	mov    %rdi,%rdx
    1f91:	d3 e3                	shl    %cl,%ebx
    1f93:	44 8b bc 24 70 00 00 	mov    0x70(%rsp),%r15d
    1f9a:	00 
    1f9b:	41 29 df             	sub    %ebx,%r15d
    1f9e:	44 09 fb             	or     %r15d,%ebx
    1fa1:	21 c3                	and    %eax,%ebx
    1fa3:	85 db                	test   %ebx,%ebx
    1fa5:	0f 84 3d 02 00 00    	je     21e8 <guest_func_8+0xcf8>
    1fab:	44 8b bc 24 70 00 00 	mov    0x70(%rsp),%r15d
    1fb2:	00 
    1fb3:	41 29 df             	sub    %ebx,%r15d
    1fb6:	41 21 df             	and    %ebx,%r15d
    1fb9:	41 83 c7 ff          	add    $0xffffffff,%r15d
    1fbd:	44 89 f9             	mov    %r15d,%ecx
    1fc0:	c1 e9 0c             	shr    $0xc,%ecx
    1fc3:	83 e1 10             	and    $0x10,%ecx
    1fc6:	41 d3 ef             	shr    %cl,%r15d
    1fc9:	44 89 fb             	mov    %r15d,%ebx
    1fcc:	c1 eb 05             	shr    $0x5,%ebx
    1fcf:	83 e3 08             	and    $0x8,%ebx
    1fd2:	40 89 cf             	rex mov %ecx,%edi
    1fd5:	40 89 d9             	rex mov %ebx,%ecx
    1fd8:	40 89 fb             	rex mov %edi,%ebx
    1fdb:	41 d3 ef             	shr    %cl,%r15d
    1fde:	44 89 ff             	mov    %r15d,%edi
    1fe1:	c1 ef 02             	shr    $0x2,%edi
    1fe4:	83 e7 04             	and    $0x4,%edi
    1fe7:	41 89 c9             	mov    %ecx,%r9d
    1fea:	40 89 f9             	rex mov %edi,%ecx
    1fed:	44 89 cf             	mov    %r9d,%edi
    1ff0:	41 d3 ef             	shr    %cl,%r15d
    1ff3:	45 89 f9             	mov    %r15d,%r9d
    1ff6:	41 c1 e9 01          	shr    $0x1,%r9d
    1ffa:	41 83 e1 02          	and    $0x2,%r9d
    1ffe:	41 89 ca             	mov    %ecx,%r10d
    2001:	44 89 c9             	mov    %r9d,%ecx
    2004:	45 89 d1             	mov    %r10d,%r9d
    2007:	41 d3 ef             	shr    %cl,%r15d
    200a:	45 89 fa             	mov    %r15d,%r10d
    200d:	41 c1 ea 01          	shr    $0x1,%r10d
    2011:	41 83 e2 01          	and    $0x1,%r10d
    2015:	09 df                	or     %ebx,%edi
    2017:	44 09 cf             	or     %r9d,%edi
    201a:	09 cf                	or     %ecx,%edi
    201c:	44 89 d1             	mov    %r10d,%ecx
    201f:	09 f9                	or     %edi,%ecx
    2021:	40 89 cb             	rex mov %ecx,%ebx
    2024:	44 89 d1             	mov    %r10d,%ecx
    2027:	41 d3 ef             	shr    %cl,%r15d
    202a:	44 01 fb             	add    %r15d,%ebx
    202d:	c1 e3 02             	shl    $0x2,%ebx
    2030:	81 c3 30 06 00 00    	add    $0x630,%ebx
    2036:	89 d9                	mov    %ebx,%ecx
    2038:	4c 8b bc 24 38 00 00 	mov    0x38(%rsp),%r15
    203f:	00 
    2040:	41 8b 0c 0f          	mov    (%r15,%rcx,1),%ecx
    2044:	41 89 c9             	mov    %ecx,%r9d
    2047:	48 89 d1             	mov    %rdx,%rcx
    204a:	45 85 c9             	test   %r9d,%r9d
    204d:	74 76                	je     20c5 <guest_func_8+0xbd5>
    204f:	44 89 c2             	mov    %r8d,%edx
    2052:	41 89 d7             	mov    %edx,%r15d
    2055:	44 89 ca             	mov    %r9d,%edx
    2058:	eb 11                	jmp    206b <guest_func_8+0xb7b>
    205a:	89 d3                	mov    %edx,%ebx
    205c:	41 89 f8             	mov    %edi,%r8d
    205f:	45 89 c7             	mov    %r8d,%r15d
    2062:	41 89 d8             	mov    %ebx,%r8d
    2065:	40 89 d3             	rex mov %edx,%ebx
    2068:	44 89 c2             	mov    %r8d,%edx
    206b:	89 c0                	mov    %eax,%eax
    206d:	89 d3                	mov    %edx,%ebx
    206f:	4c 8b b4 24 38 00 00 	mov    0x38(%rsp),%r14
    2076:	00 
    2077:	41 8b 7c 1e 04       	mov    0x4(%r14,%rbx,1),%edi
    207c:	83 e7 f8             	and    $0xfffffff8,%edi
    207f:	44 8b b4 24 54 00 00 	mov    0x54(%rsp),%r14d
    2086:	00 
    2087:	44 29 f7             	sub    %r14d,%edi
    208a:	44 39 ff             	cmp    %r15d,%edi
    208d:	41 0f 92 c0          	setb   %r8b
    2091:	72 03                	jb     2096 <guest_func_8+0xba6>
    2093:	44 89 ff             	mov    %r15d,%edi
    2096:	45 84 c0             	test   %r8b,%r8b
    2099:	75 02                	jne    209d <guest_func_8+0xbad>
    209b:	eb 02                	jmp    209f <guest_func_8+0xbaf>
    209d:	89 d6                	mov    %edx,%esi
    209f:	4c 8b bc 24 38 00 00 	mov    0x38(%rsp),%r15
    20a6:	00 
    20a7:	41 8b 5c 1f 10       	mov    0x10(%r15,%rbx,1),%ebx
    20ac:	85 db                	test   %ebx,%ebx
    20ae:	74 05                	je     20b5 <guest_func_8+0xbc5>
    20b0:	40 89 da             	rex mov %ebx,%edx
    20b3:	eb 09                	jmp    20be <guest_func_8+0xbce>
    20b5:	83 c2 14             	add    $0x14,%edx
    20b8:	89 d2                	mov    %edx,%edx
    20ba:	41 8b 14 17          	mov    (%r15,%rdx,1),%edx
    20be:	85 d2                	test   %edx,%edx
    20c0:	75 98                	jne    205a <guest_func_8+0xb6a>
    20c2:	41 89 f8             	mov    %edi,%r8d
    20c5:	85 f6                	test   %esi,%esi
    20c7:	0f 84 1b 01 00 00    	je     21e8 <guest_func_8+0xcf8>
    20cd:	ba 08 05 00 00       	mov    $0x508,%edx
    20d2:	89 d2                	mov    %edx,%edx
    20d4:	4c 8b bc 24 38 00 00 	mov    0x38(%rsp),%r15
    20db:	00 
    20dc:	41 8b 14 17          	mov    (%r15,%rdx,1),%edx
    20e0:	44 8b bc 24 54 00 00 	mov    0x54(%rsp),%r15d
    20e7:	00 
    20e8:	44 29 fa             	sub    %r15d,%edx
    20eb:	41 39 d0             	cmp    %edx,%r8d
    20ee:	0f 83 f4 00 00 00    	jae    21e8 <guest_func_8+0xcf8>
    20f4:	89 f2                	mov    %esi,%edx
    20f6:	4c 8b bc 24 38 00 00 	mov    0x38(%rsp),%r15
    20fd:	00 
    20fe:	41 8b 5c 17 18       	mov    0x18(%r15,%rdx,1),%ebx
    2103:	41 8b 7c 17 0c       	mov    0xc(%r15,%rdx,1),%edi
    2108:	39 f7                	cmp    %esi,%edi
    210a:	74 3f                	je     214b <guest_func_8+0xc5b>
    210c:	41 b9 10 05 00 00    	mov    $0x510,%r9d
    2112:	45 89 c9             	mov    %r9d,%r9d
    2115:	47 8b 0c 0f          	mov    (%r15,%r9,1),%r9d
    2119:	45 8b 54 17 08       	mov    0x8(%r15,%rdx,1),%r10d
    211e:	45 39 d1             	cmp    %r10d,%r9d
    2121:	77 08                	ja     212b <guest_func_8+0xc3b>
    2123:	45 89 d1             	mov    %r10d,%r9d
    2126:	47 8b 4c 0f 0c       	mov    0xc(%r15,%r9,1),%r9d
    212b:	41 89 f9             	mov    %edi,%r9d
    212e:	4c 8b bc 24 38 00 00 	mov    0x38(%rsp),%r15
    2135:	00 
    2136:	47 89 54 0f 08       	mov    %r10d,0x8(%r15,%r9,1)
    213b:	45 89 d1             	mov    %r10d,%r9d
    213e:	43 89 7c 0f 0c       	mov    %edi,0xc(%r15,%r9,1)
    2143:	41 89 ff             	mov    %edi,%r15d
    2146:	e9 4b 17 00 00       	jmpq   3896 <guest_func_8+0x23a6>
    214b:	89 f7                	mov    %esi,%edi
    214d:	83 c7 14             	add    $0x14,%edi
    2150:	41 89 f9             	mov    %edi,%r9d
    2153:	47 8b 0c 0f          	mov    (%r15,%r9,1),%r9d
    2157:	45 85 c9             	test   %r9d,%r9d
    215a:	75 1d                	jne    2179 <guest_func_8+0xc89>
    215c:	41 8b 7c 17 10       	mov    0x10(%r15,%rdx,1),%edi
    2161:	85 ff                	test   %edi,%edi
    2163:	0f 84 b2 06 00 00    	je     281b <guest_func_8+0x132b>
    2169:	41 89 f1             	mov    %esi,%r9d
    216c:	41 83 c1 10          	add    $0x10,%r9d
    2170:	45 89 ca             	mov    %r9d,%r10d
    2173:	41 89 f9             	mov    %edi,%r9d
    2176:	44 89 d7             	mov    %r10d,%edi
    2179:	eb 20                	jmp    219b <guest_func_8+0xcab>
    217b:	44 89 df             	mov    %r11d,%edi
    217e:	45 89 d1             	mov    %r10d,%r9d
    2181:	45 89 cc             	mov    %r9d,%r12d
    2184:	41 89 f9             	mov    %edi,%r9d
    2187:	44 89 e7             	mov    %r12d,%edi
    218a:	eb 0f                	jmp    219b <guest_func_8+0xcab>
    218c:	44 89 df             	mov    %r11d,%edi
    218f:	45 89 d1             	mov    %r10d,%r9d
    2192:	45 89 cc             	mov    %r9d,%r12d
    2195:	41 89 f9             	mov    %edi,%r9d
    2198:	44 89 e7             	mov    %r12d,%edi
    219b:	45 89 ca             	mov    %r9d,%r10d
    219e:	41 83 c2 14          	add    $0x14,%r10d
    21a2:	45 89 d3             	mov    %r10d,%r11d
    21a5:	4c 8b bc 24 38 00 00 	mov    0x38(%rsp),%r15
    21ac:	00 
    21ad:	47 8b 1c 1f          	mov    (%r15,%r11,1),%r11d
    21b1:	45 85 db             	test   %r11d,%r11d
    21b4:	75 c5                	jne    217b <guest_func_8+0xc8b>
    21b6:	45 89 ca             	mov    %r9d,%r10d
    21b9:	41 83 c2 10          	add    $0x10,%r10d
    21bd:	45 89 cb             	mov    %r9d,%r11d
    21c0:	47 8b 5c 1f 10       	mov    0x10(%r15,%r11,1),%r11d
    21c5:	45 85 db             	test   %r11d,%r11d
    21c8:	75 c2                	jne    218c <guest_func_8+0xc9c>
    21ca:	89 ff                	mov    %edi,%edi
    21cc:	44 8b bc 24 70 00 00 	mov    0x70(%rsp),%r15d
    21d3:	00 
    21d4:	4c 8b b4 24 38 00 00 	mov    0x38(%rsp),%r14
    21db:	00 
    21dc:	45 89 3c 3e          	mov    %r15d,(%r14,%rdi,1)
    21e0:	45 89 cf             	mov    %r9d,%r15d
    21e3:	e9 ae 16 00 00       	jmpq   3896 <guest_func_8+0x23a6>
    21e8:	b8 08 05 00 00       	mov    $0x508,%eax
    21ed:	89 c0                	mov    %eax,%eax
    21ef:	48 89 84 24 28 00 00 	mov    %rax,0x28(%rsp)
    21f6:	00 
    21f7:	4c 8b bc 24 38 00 00 	mov    0x38(%rsp),%r15
    21fe:	00 
    21ff:	49 89 c6             	mov    %rax,%r14
    2202:	43 8b 04 37          	mov    (%r15,%r14,1),%eax
    2206:	44 8b bc 24 54 00 00 	mov    0x54(%rsp),%r15d
    220d:	00 
    220e:	44 39 f8             	cmp    %r15d,%eax
    2211:	0f 82 c0 00 00 00    	jb     22d7 <guest_func_8+0xde7>
    2217:	b9 14 05 00 00       	mov    $0x514,%ecx
    221c:	89 c9                	mov    %ecx,%ecx
    221e:	4c 8b bc 24 38 00 00 	mov    0x38(%rsp),%r15
    2225:	00 
    2226:	41 8b 14 0f          	mov    (%r15,%rcx,1),%edx
    222a:	89 c3                	mov    %eax,%ebx
    222c:	44 8b bc 24 54 00 00 	mov    0x54(%rsp),%r15d
    2233:	00 
    2234:	44 29 fb             	sub    %r15d,%ebx
    2237:	83 fb 10             	cmp    $0x10,%ebx
    223a:	72 47                	jb     2283 <guest_func_8+0xd93>
    223c:	89 d6                	mov    %edx,%esi
    223e:	44 01 fe             	add    %r15d,%esi
    2241:	89 df                	mov    %ebx,%edi
    2243:	83 cf 01             	or     $0x1,%edi
    2246:	41 89 f0             	mov    %esi,%r8d
    2249:	4c 8b bc 24 38 00 00 	mov    0x38(%rsp),%r15
    2250:	00 
    2251:	43 89 7c 07 04       	mov    %edi,0x4(%r15,%r8,1)
    2256:	43 89 1c 37          	mov    %ebx,(%r15,%r14,1)
    225a:	41 89 34 0f          	mov    %esi,(%r15,%rcx,1)
    225e:	01 d0                	add    %edx,%eax
    2260:	89 c0                	mov    %eax,%eax
    2262:	41 89 1c 07          	mov    %ebx,(%r15,%rax,1)
    2266:	44 8b bc 24 54 00 00 	mov    0x54(%rsp),%r15d
    226d:	00 
    226e:	41 83 cf 03          	or     $0x3,%r15d
    2272:	89 d0                	mov    %edx,%eax
    2274:	4c 8b b4 24 38 00 00 	mov    0x38(%rsp),%r14
    227b:	00 
    227c:	45 89 7c 06 04       	mov    %r15d,0x4(%r14,%rax,1)
    2281:	eb 45                	jmp    22c8 <guest_func_8+0xdd8>
    2283:	89 c3                	mov    %eax,%ebx
    2285:	83 cb 03             	or     $0x3,%ebx
    2288:	89 d6                	mov    %edx,%esi
    228a:	4c 8b bc 24 38 00 00 	mov    0x38(%rsp),%r15
    2291:	00 
    2292:	41 89 5c 37 04       	mov    %ebx,0x4(%r15,%rsi,1)
    2297:	01 d0                	add    %edx,%eax
    2299:	89 c0                	mov    %eax,%eax
    229b:	41 8b 5c 07 04       	mov    0x4(%r15,%rax,1),%ebx
    22a0:	83 cb 01             	or     $0x1,%ebx
    22a3:	41 89 5c 07 04       	mov    %ebx,0x4(%r15,%rax,1)
    22a8:	44 8b bc 24 70 00 00 	mov    0x70(%rsp),%r15d
    22af:	00 
    22b0:	4c 8b b4 24 38 00 00 	mov    0x38(%rsp),%r14
    22b7:	00 
    22b8:	45 89 3c 0e          	mov    %r15d,(%r14,%rcx,1)
    22bc:	4c 8b ac 24 28 00 00 	mov    0x28(%rsp),%r13
    22c3:	00 
    22c4:	47 89 3c 2e          	mov    %r15d,(%r14,%r13,1)
    22c8:	83 c2 08             	add    $0x8,%edx
    22cb:	89 94 24 70 00 00 00 	mov    %edx,0x70(%rsp)
    22d2:	e9 46 1c 00 00       	jmpq   3f1d <guest_func_8+0x2a2d>
    22d7:	b8 0c 05 00 00       	mov    $0x50c,%eax
    22dc:	89 c0                	mov    %eax,%eax
    22de:	48 89 84 24 20 00 00 	mov    %rax,0x20(%rsp)
    22e5:	00 
    22e6:	4c 8b bc 24 38 00 00 	mov    0x38(%rsp),%r15
    22ed:	00 
    22ee:	49 89 c6             	mov    %rax,%r14
    22f1:	43 8b 04 37          	mov    (%r15,%r14,1),%eax
    22f5:	44 8b bc 24 54 00 00 	mov    0x54(%rsp),%r15d
    22fc:	00 
    22fd:	44 39 f8             	cmp    %r15d,%eax
    2300:	76 7a                	jbe    237c <guest_func_8+0xe8c>
    2302:	4c 8b bc 24 38 00 00 	mov    0x38(%rsp),%r15
    2309:	00 
    230a:	4c 8b b4 24 30 00 00 	mov    0x30(%rsp),%r14
    2311:	00 
    2312:	43 8b 0c 37          	mov    (%r15,%r14,1),%ecx
    2316:	89 ca                	mov    %ecx,%edx
    2318:	44 8b bc 24 54 00 00 	mov    0x54(%rsp),%r15d
    231f:	00 
    2320:	44 01 fa             	add    %r15d,%edx
    2323:	44 29 f8             	sub    %r15d,%eax
    2326:	89 c3                	mov    %eax,%ebx
    2328:	83 cb 01             	or     $0x1,%ebx
    232b:	89 d6                	mov    %edx,%esi
    232d:	4c 8b bc 24 38 00 00 	mov    0x38(%rsp),%r15
    2334:	00 
    2335:	41 89 5c 37 04       	mov    %ebx,0x4(%r15,%rsi,1)
    233a:	4c 8b b4 24 20 00 00 	mov    0x20(%rsp),%r14
    2341:	00 
    2342:	43 89 04 37          	mov    %eax,(%r15,%r14,1)
    2346:	4c 8b b4 24 30 00 00 	mov    0x30(%rsp),%r14
    234d:	00 
    234e:	43 89 14 37          	mov    %edx,(%r15,%r14,1)
    2352:	44 8b bc 24 54 00 00 	mov    0x54(%rsp),%r15d
    2359:	00 
    235a:	41 83 cf 03          	or     $0x3,%r15d
    235e:	89 c8                	mov    %ecx,%eax
    2360:	4c 8b b4 24 38 00 00 	mov    0x38(%rsp),%r14
    2367:	00 
    2368:	45 89 7c 06 04       	mov    %r15d,0x4(%r14,%rax,1)
    236d:	83 c1 08             	add    $0x8,%ecx
    2370:	89 8c 24 70 00 00 00 	mov    %ecx,0x70(%rsp)
    2377:	e9 a1 1b 00 00       	jmpq   3f1d <guest_func_8+0x2a2d>
    237c:	b9 d8 06 00 00       	mov    $0x6d8,%ecx
    2381:	89 c9                	mov    %ecx,%ecx
    2383:	48 89 8c 24 18 00 00 	mov    %rcx,0x18(%rsp)
    238a:	00 
    238b:	4c 8b bc 24 38 00 00 	mov    0x38(%rsp),%r15
    2392:	00 
    2393:	49 89 ce             	mov    %rcx,%r14
    2396:	43 8b 0c 37          	mov    (%r15,%r14,1),%ecx
    239a:	85 c9                	test   %ecx,%ecx
    239c:	74 0d                	je     23ab <guest_func_8+0xebb>
    239e:	b9 e0 06 00 00       	mov    $0x6e0,%ecx
    23a3:	89 c9                	mov    %ecx,%ecx
    23a5:	41 8b 0c 0f          	mov    (%r15,%rcx,1),%ecx
    23a9:	eb 75                	jmp    2420 <guest_func_8+0xf30>
    23ab:	b9 e4 06 00 00       	mov    $0x6e4,%ecx
    23b0:	48 c7 c2 ff ff ff ff 	mov    $0xffffffffffffffff,%rdx
    23b7:	89 c9                	mov    %ecx,%ecx
    23b9:	49 89 14 0f          	mov    %rdx,(%r15,%rcx,1)
    23bd:	b9 dc 06 00 00       	mov    $0x6dc,%ecx
    23c2:	48 ba 00 00 01 00 00 	movabs $0x1000000010000,%rdx
    23c9:	00 01 00 
    23cc:	89 c9                	mov    %ecx,%ecx
    23ce:	49 89 14 0f          	mov    %rdx,(%r15,%rcx,1)
    23d2:	44 8b bc 24 64 00 00 	mov    0x64(%rsp),%r15d
    23d9:	00 
    23da:	41 83 c7 0c          	add    $0xc,%r15d
    23de:	41 83 e7 f0          	and    $0xfffffff0,%r15d
    23e2:	41 81 f7 58 55 55 55 	xor    $0x55555558,%r15d
    23e9:	4c 8b b4 24 38 00 00 	mov    0x38(%rsp),%r14
    23f0:	00 
    23f1:	4c 8b ac 24 18 00 00 	mov    0x18(%rsp),%r13
    23f8:	00 
    23f9:	47 89 3c 2e          	mov    %r15d,(%r14,%r13,1)
    23fd:	b9 ec 06 00 00       	mov    $0x6ec,%ecx
    2402:	89 c9                	mov    %ecx,%ecx
    2404:	44 8b bc 24 70 00 00 	mov    0x70(%rsp),%r15d
    240b:	00 
    240c:	45 89 3c 0e          	mov    %r15d,(%r14,%rcx,1)
    2410:	b9 bc 06 00 00       	mov    $0x6bc,%ecx
    2415:	89 c9                	mov    %ecx,%ecx
    2417:	45 89 3c 0e          	mov    %r15d,(%r14,%rcx,1)
    241b:	b9 00 00 01 00       	mov    $0x10000,%ecx
    2420:	44 8b bc 24 54 00 00 	mov    0x54(%rsp),%r15d
    2427:	00 
    2428:	41 83 c7 47          	add    $0x47,%r15d
    242c:	44 89 bc 24 50 00 00 	mov    %r15d,0x50(%rsp)
    2433:	00 
    2434:	89 ca                	mov    %ecx,%edx
    2436:	44 01 fa             	add    %r15d,%edx
    2439:	44 8b bc 24 70 00 00 	mov    0x70(%rsp),%r15d
    2440:	00 
    2441:	44 89 fb             	mov    %r15d,%ebx
    2444:	29 cb                	sub    %ecx,%ebx
    2446:	89 d1                	mov    %edx,%ecx
    2448:	21 d9                	and    %ebx,%ecx
    244a:	89 8c 24 58 00 00 00 	mov    %ecx,0x58(%rsp)
    2451:	41 89 cf             	mov    %ecx,%r15d
    2454:	44 8b b4 24 54 00 00 	mov    0x54(%rsp),%r14d
    245b:	00 
    245c:	45 39 f7             	cmp    %r14d,%r15d
    245f:	77 1d                	ja     247e <guest_func_8+0xf8e>
    2461:	b8 f0 06 00 00       	mov    $0x6f0,%eax
    2466:	b9 30 00 00 00       	mov    $0x30,%ecx
    246b:	89 c0                	mov    %eax,%eax
    246d:	4c 8b bc 24 38 00 00 	mov    0x38(%rsp),%r15
    2474:	00 
    2475:	41 89 0c 07          	mov    %ecx,(%r15,%rax,1)
    2479:	e9 9f 1a 00 00       	jmpq   3f1d <guest_func_8+0x2a2d>
    247e:	b9 b8 06 00 00       	mov    $0x6b8,%ecx
    2483:	89 c9                	mov    %ecx,%ecx
    2485:	48 89 8c 24 10 00 00 	mov    %rcx,0x10(%rsp)
    248c:	00 
    248d:	4c 8b bc 24 38 00 00 	mov    0x38(%rsp),%r15
    2494:	00 
    2495:	49 89 ce             	mov    %rcx,%r14
    2498:	43 8b 0c 37          	mov    (%r15,%r14,1),%ecx
    249c:	85 c9                	test   %ecx,%ecx
    249e:	74 5e                	je     24fe <guest_func_8+0x100e>
    24a0:	be b0 06 00 00       	mov    $0x6b0,%esi
    24a5:	89 f6                	mov    %esi,%esi
    24a7:	41 8b 34 37          	mov    (%r15,%rsi,1),%esi
    24ab:	89 f7                	mov    %esi,%edi
    24ad:	44 8b bc 24 58 00 00 	mov    0x58(%rsp),%r15d
    24b4:	00 
    24b5:	44 01 ff             	add    %r15d,%edi
    24b8:	41 89 c0             	mov    %eax,%r8d
    24bb:	40 89 f0             	rex mov %esi,%eax
    24be:	44 89 c6             	mov    %r8d,%esi
    24c1:	39 c7                	cmp    %eax,%edi
    24c3:	0f 97 c0             	seta   %al
    24c6:	44 0f b6 c0          	movzbl %al,%r8d
    24ca:	39 cf                	cmp    %ecx,%edi
    24cc:	40 89 f0             	rex mov %esi,%eax
    24cf:	76 0b                	jbe    24dc <guest_func_8+0xfec>
    24d1:	44 8b bc 24 70 00 00 	mov    0x70(%rsp),%r15d
    24d8:	00 
    24d9:	45 89 f8             	mov    %r15d,%r8d
    24dc:	45 85 c0             	test   %r8d,%r8d
    24df:	75 1d                	jne    24fe <guest_func_8+0x100e>
    24e1:	b8 f0 06 00 00       	mov    $0x6f0,%eax
    24e6:	b9 30 00 00 00       	mov    $0x30,%ecx
    24eb:	89 c0                	mov    %eax,%eax
    24ed:	4c 8b bc 24 38 00 00 	mov    0x38(%rsp),%r15
    24f4:	00 
    24f5:	41 89 0c 07          	mov    %ecx,(%r15,%rax,1)
    24f9:	e9 1f 1a 00 00       	jmpq   3f1d <guest_func_8+0x2a2d>
    24fe:	b9 bc 06 00 00       	mov    $0x6bc,%ecx
    2503:	89 c9                	mov    %ecx,%ecx
    2505:	48 89 8c 24 08 00 00 	mov    %rcx,0x8(%rsp)
    250c:	00 
    250d:	4c 8b bc 24 38 00 00 	mov    0x38(%rsp),%r15
    2514:	00 
    2515:	49 89 ce             	mov    %rcx,%r14
    2518:	43 0f b6 0c 37       	movzbl (%r15,%r14,1),%ecx
    251d:	83 e1 04             	and    $0x4,%ecx
    2520:	85 c9                	test   %ecx,%ecx
    2522:	0f 85 25 03 00 00    	jne    284d <guest_func_8+0x135d>
    2528:	4c 8b b4 24 30 00 00 	mov    0x30(%rsp),%r14
    252f:	00 
    2530:	43 8b 0c 37          	mov    (%r15,%r14,1),%ecx
    2534:	85 c9                	test   %ecx,%ecx
    2536:	74 54                	je     258c <guest_func_8+0x109c>
    2538:	be c0 06 00 00       	mov    $0x6c0,%esi
    253d:	89 b4 24 44 00 00 00 	mov    %esi,0x44(%rsp)
    2544:	44 8b bc 24 44 00 00 	mov    0x44(%rsp),%r15d
    254b:	00 
    254c:	44 89 fe             	mov    %r15d,%esi
    254f:	4c 8b bc 24 38 00 00 	mov    0x38(%rsp),%r15
    2556:	00 
    2557:	41 8b 3c 37          	mov    (%r15,%rsi,1),%edi
    255b:	39 cf                	cmp    %ecx,%edi
    255d:	77 11                	ja     2570 <guest_func_8+0x1080>
    255f:	45 8b 44 37 04       	mov    0x4(%r15,%rsi,1),%r8d
    2564:	41 01 f8             	add    %edi,%r8d
    2567:	41 39 c8             	cmp    %ecx,%r8d
    256a:	0f 87 48 01 00 00    	ja     26b8 <guest_func_8+0x11c8>
    2570:	4c 8b bc 24 38 00 00 	mov    0x38(%rsp),%r15
    2577:	00 
    2578:	41 8b 74 37 08       	mov    0x8(%r15,%rsi,1),%esi
    257d:	89 b4 24 44 00 00 00 	mov    %esi,0x44(%rsp)
    2584:	41 89 f7             	mov    %esi,%r15d
    2587:	45 85 ff             	test   %r15d,%r15d
    258a:	75 b8                	jne    2544 <guest_func_8+0x1054>
    258c:	4c 8b bc 24 38 00 00 	mov    0x38(%rsp),%r15
    2593:	00 
    2594:	44 8b b4 24 70 00 00 	mov    0x70(%rsp),%r14d
    259b:	00 
    259c:	4c 89 ff             	mov    %r15,%rdi
    259f:	44 89 f6             	mov    %r14d,%esi
    25a2:	e8 49 2d 00 00       	callq  52f0 <guest_func_sbrk>
    25a7:	89 84 24 48 00 00 00 	mov    %eax,0x48(%rsp)
    25ae:	41 89 c7             	mov    %eax,%r15d
    25b1:	41 83 ff ff          	cmp    $0xffffffff,%r15d
    25b5:	0f 84 77 02 00 00    	je     2832 <guest_func_8+0x1342>
    25bb:	b8 dc 06 00 00       	mov    $0x6dc,%eax
    25c0:	89 c0                	mov    %eax,%eax
    25c2:	4c 8b bc 24 38 00 00 	mov    0x38(%rsp),%r15
    25c9:	00 
    25ca:	41 8b 04 07          	mov    (%r15,%rax,1),%eax
    25ce:	89 c1                	mov    %eax,%ecx
    25d0:	83 c1 ff             	add    $0xffffffff,%ecx
    25d3:	89 ca                	mov    %ecx,%edx
    25d5:	44 8b bc 24 48 00 00 	mov    0x48(%rsp),%r15d
    25dc:	00 
    25dd:	44 21 fa             	and    %r15d,%edx
    25e0:	85 d2                	test   %edx,%edx
    25e2:	74 31                	je     2615 <guest_func_8+0x1125>
    25e4:	44 8b bc 24 58 00 00 	mov    0x58(%rsp),%r15d
    25eb:	00 
    25ec:	44 8b b4 24 48 00 00 	mov    0x48(%rsp),%r14d
    25f3:	00 
    25f4:	45 29 f7             	sub    %r14d,%r15d
    25f7:	41 01 ce             	add    %ecx,%r14d
    25fa:	44 8b ac 24 70 00 00 	mov    0x70(%rsp),%r13d
    2601:	00 
    2602:	41 29 c5             	sub    %eax,%r13d
    2605:	45 21 ee             	and    %r13d,%r14d
    2608:	45 01 f7             	add    %r14d,%r15d
    260b:	44 89 bc 24 4c 00 00 	mov    %r15d,0x4c(%rsp)
    2612:	00 
    2613:	eb 10                	jmp    2625 <guest_func_8+0x1135>
    2615:	44 8b bc 24 58 00 00 	mov    0x58(%rsp),%r15d
    261c:	00 
    261d:	44 89 bc 24 4c 00 00 	mov    %r15d,0x4c(%rsp)
    2624:	00 
    2625:	44 8b bc 24 4c 00 00 	mov    0x4c(%rsp),%r15d
    262c:	00 
    262d:	44 8b b4 24 54 00 00 	mov    0x54(%rsp),%r14d
    2634:	00 
    2635:	45 39 f7             	cmp    %r14d,%r15d
    2638:	0f 86 f4 01 00 00    	jbe    2832 <guest_func_8+0x1342>
    263e:	41 81 ff fe ff ff 7f 	cmp    $0x7ffffffe,%r15d
    2645:	0f 87 e7 01 00 00    	ja     2832 <guest_func_8+0x1342>
    264b:	4c 8b bc 24 38 00 00 	mov    0x38(%rsp),%r15
    2652:	00 
    2653:	4c 8b b4 24 10 00 00 	mov    0x10(%rsp),%r14
    265a:	00 
    265b:	43 8b 04 37          	mov    (%r15,%r14,1),%eax
    265f:	85 c0                	test   %eax,%eax
    2661:	74 28                	je     268b <guest_func_8+0x119b>
    2663:	b9 b0 06 00 00       	mov    $0x6b0,%ecx
    2668:	89 c9                	mov    %ecx,%ecx
    266a:	41 8b 0c 0f          	mov    (%r15,%rcx,1),%ecx
    266e:	89 ca                	mov    %ecx,%edx
    2670:	44 8b bc 24 4c 00 00 	mov    0x4c(%rsp),%r15d
    2677:	00 
    2678:	44 01 fa             	add    %r15d,%edx
    267b:	39 ca                	cmp    %ecx,%edx
    267d:	0f 86 af 01 00 00    	jbe    2832 <guest_func_8+0x1342>
    2683:	39 c2                	cmp    %eax,%edx
    2685:	0f 87 a7 01 00 00    	ja     2832 <guest_func_8+0x1342>
    268b:	4c 8b bc 24 38 00 00 	mov    0x38(%rsp),%r15
    2692:	00 
    2693:	44 8b b4 24 4c 00 00 	mov    0x4c(%rsp),%r14d
    269a:	00 
    269b:	4c 89 ff             	mov    %r15,%rdi
    269e:	44 89 f6             	mov    %r14d,%esi
    26a1:	e8 4a 2c 00 00       	callq  52f0 <guest_func_sbrk>
    26a6:	44 8b bc 24 48 00 00 	mov    0x48(%rsp),%r15d
    26ad:	00 
    26ae:	41 39 c7             	cmp    %eax,%r15d
    26b1:	75 6e                	jne    2721 <guest_func_8+0x1231>
    26b3:	e9 2d 02 00 00       	jmpq   28e5 <guest_func_8+0x13f5>
    26b8:	29 c2                	sub    %eax,%edx
    26ba:	21 da                	and    %ebx,%edx
    26bc:	89 94 24 4c 00 00 00 	mov    %edx,0x4c(%rsp)
    26c3:	41 89 d7             	mov    %edx,%r15d
    26c6:	41 81 ff fe ff ff 7f 	cmp    $0x7ffffffe,%r15d
    26cd:	0f 87 5f 01 00 00    	ja     2832 <guest_func_8+0x1342>
    26d3:	4c 8b bc 24 38 00 00 	mov    0x38(%rsp),%r15
    26da:	00 
    26db:	41 89 d6             	mov    %edx,%r14d
    26de:	4c 89 ff             	mov    %r15,%rdi
    26e1:	44 89 f6             	mov    %r14d,%esi
    26e4:	e8 07 2c 00 00       	callq  52f0 <guest_func_sbrk>
    26e9:	89 84 24 48 00 00 00 	mov    %eax,0x48(%rsp)
    26f0:	44 8b bc 24 44 00 00 	mov    0x44(%rsp),%r15d
    26f7:	00 
    26f8:	44 89 f8             	mov    %r15d,%eax
    26fb:	4c 8b bc 24 38 00 00 	mov    0x38(%rsp),%r15
    2702:	00 
    2703:	41 8b 0c 07          	mov    (%r15,%rax,1),%ecx
    2707:	41 8b 44 07 04       	mov    0x4(%r15,%rax,1),%eax
    270c:	01 c1                	add    %eax,%ecx
    270e:	44 8b bc 24 48 00 00 	mov    0x48(%rsp),%r15d
    2715:	00 
    2716:	41 39 cf             	cmp    %ecx,%r15d
    2719:	0f 84 09 01 00 00    	je     2828 <guest_func_8+0x1338>
    271f:	eb 07                	jmp    2728 <guest_func_8+0x1238>
    2721:	89 84 24 48 00 00 00 	mov    %eax,0x48(%rsp)
    2728:	44 8b bc 24 54 00 00 	mov    0x54(%rsp),%r15d
    272f:	00 
    2730:	41 83 c7 48          	add    $0x48,%r15d
    2734:	44 8b b4 24 4c 00 00 	mov    0x4c(%rsp),%r14d
    273b:	00 
    273c:	45 39 f7             	cmp    %r14d,%r15d
    273f:	0f 86 c2 00 00 00    	jbe    2807 <guest_func_8+0x1317>
    2745:	44 8b bc 24 48 00 00 	mov    0x48(%rsp),%r15d
    274c:	00 
    274d:	41 83 ff ff          	cmp    $0xffffffff,%r15d
    2751:	0f 84 b0 00 00 00    	je     2807 <guest_func_8+0x1317>
    2757:	b8 e0 06 00 00       	mov    $0x6e0,%eax
    275c:	89 c0                	mov    %eax,%eax
    275e:	4c 8b bc 24 38 00 00 	mov    0x38(%rsp),%r15
    2765:	00 
    2766:	41 8b 04 07          	mov    (%r15,%rax,1),%eax
    276a:	44 8b bc 24 50 00 00 	mov    0x50(%rsp),%r15d
    2771:	00 
    2772:	45 29 f7             	sub    %r14d,%r15d
    2775:	89 c1                	mov    %eax,%ecx
    2777:	44 01 f9             	add    %r15d,%ecx
    277a:	44 8b bc 24 70 00 00 	mov    0x70(%rsp),%r15d
    2781:	00 
    2782:	41 29 c7             	sub    %eax,%r15d
    2785:	44 21 f9             	and    %r15d,%ecx
    2788:	89 8c 24 40 00 00 00 	mov    %ecx,0x40(%rsp)
    278f:	41 89 cf             	mov    %ecx,%r15d
    2792:	41 81 ff fe ff ff 7f 	cmp    $0x7ffffffe,%r15d
    2799:	0f 86 05 00 00 00    	jbe    27a4 <guest_func_8+0x12b4>
    279f:	e9 41 01 00 00       	jmpq   28e5 <guest_func_8+0x13f5>
    27a4:	4c 8b bc 24 38 00 00 	mov    0x38(%rsp),%r15
    27ab:	00 
    27ac:	41 89 ce             	mov    %ecx,%r14d
    27af:	4c 89 ff             	mov    %r15,%rdi
    27b2:	44 89 f6             	mov    %r14d,%esi
    27b5:	e8 36 2b 00 00       	callq  52f0 <guest_func_sbrk>
    27ba:	83 f8 ff             	cmp    $0xffffffff,%eax
    27bd:	74 20                	je     27df <guest_func_8+0x12ef>
    27bf:	44 8b bc 24 40 00 00 	mov    0x40(%rsp),%r15d
    27c6:	00 
    27c7:	44 8b b4 24 4c 00 00 	mov    0x4c(%rsp),%r14d
    27ce:	00 
    27cf:	45 01 f7             	add    %r14d,%r15d
    27d2:	44 89 bc 24 4c 00 00 	mov    %r15d,0x4c(%rsp)
    27d9:	00 
    27da:	e9 06 01 00 00       	jmpq   28e5 <guest_func_8+0x13f5>
    27df:	44 8b bc 24 70 00 00 	mov    0x70(%rsp),%r15d
    27e6:	00 
    27e7:	44 8b b4 24 4c 00 00 	mov    0x4c(%rsp),%r14d
    27ee:	00 
    27ef:	45 29 f7             	sub    %r14d,%r15d
    27f2:	4c 8b b4 24 38 00 00 	mov    0x38(%rsp),%r14
    27f9:	00 
    27fa:	4c 89 f7             	mov    %r14,%rdi
    27fd:	44 89 fe             	mov    %r15d,%esi
    2800:	e8 eb 2a 00 00       	callq  52f0 <guest_func_sbrk>
    2805:	eb 2b                	jmp    2832 <guest_func_8+0x1342>
    2807:	44 8b bc 24 48 00 00 	mov    0x48(%rsp),%r15d
    280e:	00 
    280f:	41 83 ff ff          	cmp    $0xffffffff,%r15d
    2813:	0f 85 cc 00 00 00    	jne    28e5 <guest_func_8+0x13f5>
    2819:	eb 17                	jmp    2832 <guest_func_8+0x1342>
    281b:	44 8b bc 24 70 00 00 	mov    0x70(%rsp),%r15d
    2822:	00 
    2823:	e9 6e 10 00 00       	jmpq   3896 <guest_func_8+0x23a6>
    2828:	41 83 ff ff          	cmp    $0xffffffff,%r15d
    282c:	0f 85 b3 00 00 00    	jne    28e5 <guest_func_8+0x13f5>
    2832:	4c 8b bc 24 38 00 00 	mov    0x38(%rsp),%r15
    2839:	00 
    283a:	4c 8b b4 24 08 00 00 	mov    0x8(%rsp),%r14
    2841:	00 
    2842:	43 8b 04 37          	mov    (%r15,%r14,1),%eax
    2846:	83 c8 04             	or     $0x4,%eax
    2849:	43 89 04 37          	mov    %eax,(%r15,%r14,1)
    284d:	44 8b bc 24 58 00 00 	mov    0x58(%rsp),%r15d
    2854:	00 
    2855:	41 81 ff fe ff ff 7f 	cmp    $0x7ffffffe,%r15d
    285c:	0f 87 17 10 00 00    	ja     3879 <guest_func_8+0x2389>
    2862:	4c 8b bc 24 38 00 00 	mov    0x38(%rsp),%r15
    2869:	00 
    286a:	44 8b b4 24 58 00 00 	mov    0x58(%rsp),%r14d
    2871:	00 
    2872:	4c 89 ff             	mov    %r15,%rdi
    2875:	44 89 f6             	mov    %r14d,%esi
    2878:	e8 73 2a 00 00       	callq  52f0 <guest_func_sbrk>
    287d:	89 84 24 48 00 00 00 	mov    %eax,0x48(%rsp)
    2884:	4c 8b bc 24 38 00 00 	mov    0x38(%rsp),%r15
    288b:	00 
    288c:	44 8b b4 24 70 00 00 	mov    0x70(%rsp),%r14d
    2893:	00 
    2894:	4c 89 ff             	mov    %r15,%rdi
    2897:	44 89 f6             	mov    %r14d,%esi
    289a:	e8 51 2a 00 00       	callq  52f0 <guest_func_sbrk>
    289f:	44 8b bc 24 48 00 00 	mov    0x48(%rsp),%r15d
    28a6:	00 
    28a7:	41 39 c7             	cmp    %eax,%r15d
    28aa:	0f 83 c9 0f 00 00    	jae    3879 <guest_func_8+0x2389>
    28b0:	41 83 ff ff          	cmp    $0xffffffff,%r15d
    28b4:	0f 84 bf 0f 00 00    	je     3879 <guest_func_8+0x2389>
    28ba:	83 f8 ff             	cmp    $0xffffffff,%eax
    28bd:	0f 84 b6 0f 00 00    	je     3879 <guest_func_8+0x2389>
    28c3:	44 29 f8             	sub    %r15d,%eax
    28c6:	89 84 24 4c 00 00 00 	mov    %eax,0x4c(%rsp)
    28cd:	44 8b bc 24 54 00 00 	mov    0x54(%rsp),%r15d
    28d4:	00 
    28d5:	41 83 c7 38          	add    $0x38,%r15d
    28d9:	41 89 c6             	mov    %eax,%r14d
    28dc:	45 39 fe             	cmp    %r15d,%r14d
    28df:	0f 86 94 0f 00 00    	jbe    3879 <guest_func_8+0x2389>
    28e5:	b8 b0 06 00 00       	mov    $0x6b0,%eax
    28ea:	89 c0                	mov    %eax,%eax
    28ec:	4c 8b bc 24 38 00 00 	mov    0x38(%rsp),%r15
    28f3:	00 
    28f4:	41 8b 0c 07          	mov    (%r15,%rax,1),%ecx
    28f8:	44 8b bc 24 4c 00 00 	mov    0x4c(%rsp),%r15d
    28ff:	00 
    2900:	44 01 f9             	add    %r15d,%ecx
    2903:	4c 8b bc 24 38 00 00 	mov    0x38(%rsp),%r15
    290a:	00 
    290b:	41 89 0c 07          	mov    %ecx,(%r15,%rax,1)
    290f:	b8 b4 06 00 00       	mov    $0x6b4,%eax
    2914:	89 c0                	mov    %eax,%eax
    2916:	41 8b 04 07          	mov    (%r15,%rax,1),%eax
    291a:	39 c1                	cmp    %eax,%ecx
    291c:	0f 86 0b 00 00 00    	jbe    292d <guest_func_8+0x143d>
    2922:	b8 b4 06 00 00       	mov    $0x6b4,%eax
    2927:	89 c0                	mov    %eax,%eax
    2929:	41 89 0c 07          	mov    %ecx,(%r15,%rax,1)
    292d:	4c 8b bc 24 38 00 00 	mov    0x38(%rsp),%r15
    2934:	00 
    2935:	4c 8b b4 24 30 00 00 	mov    0x30(%rsp),%r14
    293c:	00 
    293d:	43 8b 04 37          	mov    (%r15,%r14,1),%eax
    2941:	85 c0                	test   %eax,%eax
    2943:	74 45                	je     298a <guest_func_8+0x149a>
    2945:	b9 c0 06 00 00       	mov    $0x6c0,%ecx
    294a:	89 ca                	mov    %ecx,%edx
    294c:	89 d2                	mov    %edx,%edx
    294e:	4c 8b bc 24 38 00 00 	mov    0x38(%rsp),%r15
    2955:	00 
    2956:	41 8b 1c 17          	mov    (%r15,%rdx,1),%ebx
    295a:	41 8b 74 17 04       	mov    0x4(%r15,%rdx,1),%esi
    295f:	89 df                	mov    %ebx,%edi
    2961:	01 f7                	add    %esi,%edi
    2963:	44 8b bc 24 48 00 00 	mov    0x48(%rsp),%r15d
    296a:	00 
    296b:	44 39 ff             	cmp    %r15d,%edi
    296e:	0f 84 d7 01 00 00    	je     2b4b <guest_func_8+0x165b>
    2974:	4c 8b bc 24 38 00 00 	mov    0x38(%rsp),%r15
    297b:	00 
    297c:	41 8b 54 17 08       	mov    0x8(%r15,%rdx,1),%edx
    2981:	85 d2                	test   %edx,%edx
    2983:	75 c7                	jne    294c <guest_func_8+0x145c>
    2985:	e9 a8 02 00 00       	jmpq   2c32 <guest_func_8+0x1742>
    298a:	b8 10 05 00 00       	mov    $0x510,%eax
    298f:	89 c0                	mov    %eax,%eax
    2991:	41 8b 0c 07          	mov    (%r15,%rax,1),%ecx
    2995:	83 f9 00             	cmp    $0x0,%ecx
    2998:	0f 94 c2             	sete   %dl
    299b:	0f b6 d2             	movzbl %dl,%edx
    299e:	83 fa 00             	cmp    $0x0,%edx
    29a1:	0f 94 c2             	sete   %dl
    29a4:	0f b6 d2             	movzbl %dl,%edx
    29a7:	44 8b bc 24 48 00 00 	mov    0x48(%rsp),%r15d
    29ae:	00 
    29af:	41 39 cf             	cmp    %ecx,%r15d
    29b2:	0f 83 0b 00 00 00    	jae    29c3 <guest_func_8+0x14d3>
    29b8:	44 8b bc 24 70 00 00 	mov    0x70(%rsp),%r15d
    29bf:	00 
    29c0:	44 89 fa             	mov    %r15d,%edx
    29c3:	85 d2                	test   %edx,%edx
    29c5:	0f 85 14 00 00 00    	jne    29df <guest_func_8+0x14ef>
    29cb:	44 8b bc 24 48 00 00 	mov    0x48(%rsp),%r15d
    29d2:	00 
    29d3:	4c 8b b4 24 38 00 00 	mov    0x38(%rsp),%r14
    29da:	00 
    29db:	45 89 3c 06          	mov    %r15d,(%r14,%rax,1)
    29df:	b8 c4 06 00 00       	mov    $0x6c4,%eax
    29e4:	89 c0                	mov    %eax,%eax
    29e6:	44 8b bc 24 4c 00 00 	mov    0x4c(%rsp),%r15d
    29ed:	00 
    29ee:	4c 8b b4 24 38 00 00 	mov    0x38(%rsp),%r14
    29f5:	00 
    29f6:	45 89 3c 06          	mov    %r15d,(%r14,%rax,1)
    29fa:	b8 c0 06 00 00       	mov    $0x6c0,%eax
    29ff:	89 c0                	mov    %eax,%eax
    2a01:	44 8b bc 24 48 00 00 	mov    0x48(%rsp),%r15d
    2a08:	00 
    2a09:	45 89 3c 06          	mov    %r15d,(%r14,%rax,1)
    2a0d:	b8 20 05 00 00       	mov    $0x520,%eax
    2a12:	b9 ff ff ff ff       	mov    $0xffffffff,%ecx
    2a17:	89 c0                	mov    %eax,%eax
    2a19:	4d 89 f7             	mov    %r14,%r15
    2a1c:	41 89 0c 07          	mov    %ecx,(%r15,%rax,1)
    2a20:	b8 24 05 00 00       	mov    $0x524,%eax
    2a25:	4c 8b b4 24 18 00 00 	mov    0x18(%rsp),%r14
    2a2c:	00 
    2a2d:	43 8b 0c 37          	mov    (%r15,%r14,1),%ecx
    2a31:	89 c0                	mov    %eax,%eax
    2a33:	41 89 0c 07          	mov    %ecx,(%r15,%rax,1)
    2a37:	b8 cc 06 00 00       	mov    $0x6cc,%eax
    2a3c:	89 c0                	mov    %eax,%eax
    2a3e:	44 8b bc 24 70 00 00 	mov    0x70(%rsp),%r15d
    2a45:	00 
    2a46:	4c 8b b4 24 38 00 00 	mov    0x38(%rsp),%r14
    2a4d:	00 
    2a4e:	45 89 3c 06          	mov    %r15d,(%r14,%rax,1)
    2a52:	e9 03 00 00 00       	jmpq   2a5a <guest_func_8+0x156a>
    2a57:	41 89 c7             	mov    %eax,%r15d
    2a5a:	44 89 f8             	mov    %r15d,%eax
    2a5d:	81 c0 30 05 00 00    	add    $0x530,%eax
    2a63:	44 89 f9             	mov    %r15d,%ecx
    2a66:	81 c1 28 05 00 00    	add    $0x528,%ecx
    2a6c:	89 c0                	mov    %eax,%eax
    2a6e:	4c 8b b4 24 38 00 00 	mov    0x38(%rsp),%r14
    2a75:	00 
    2a76:	41 89 0c 06          	mov    %ecx,(%r14,%rax,1)
    2a7a:	44 89 f8             	mov    %r15d,%eax
    2a7d:	81 c0 34 05 00 00    	add    $0x534,%eax
    2a83:	89 c0                	mov    %eax,%eax
    2a85:	41 89 0c 06          	mov    %ecx,(%r14,%rax,1)
    2a89:	44 89 f8             	mov    %r15d,%eax
    2a8c:	83 c0 08             	add    $0x8,%eax
    2a8f:	81 f8 00 01 00 00    	cmp    $0x100,%eax
    2a95:	75 c0                	jne    2a57 <guest_func_8+0x1567>
    2a97:	b8 f8 ff ff ff       	mov    $0xfffffff8,%eax
    2a9c:	44 8b bc 24 48 00 00 	mov    0x48(%rsp),%r15d
    2aa3:	00 
    2aa4:	44 29 f8             	sub    %r15d,%eax
    2aa7:	83 e0 0f             	and    $0xf,%eax
    2aaa:	41 83 c7 08          	add    $0x8,%r15d
    2aae:	41 83 e7 0f          	and    $0xf,%r15d
    2ab2:	45 85 ff             	test   %r15d,%r15d
    2ab5:	0f 85 0b 00 00 00    	jne    2ac6 <guest_func_8+0x15d6>
    2abb:	44 8b bc 24 70 00 00 	mov    0x70(%rsp),%r15d
    2ac2:	00 
    2ac3:	44 89 f8             	mov    %r15d,%eax
    2ac6:	89 c1                	mov    %eax,%ecx
    2ac8:	44 8b bc 24 48 00 00 	mov    0x48(%rsp),%r15d
    2acf:	00 
    2ad0:	44 01 f9             	add    %r15d,%ecx
    2ad3:	44 8b bc 24 4c 00 00 	mov    0x4c(%rsp),%r15d
    2ada:	00 
    2adb:	41 83 c7 c8          	add    $0xffffffc8,%r15d
    2adf:	44 89 fa             	mov    %r15d,%edx
    2ae2:	29 c2                	sub    %eax,%edx
    2ae4:	89 d0                	mov    %edx,%eax
    2ae6:	83 c8 01             	or     $0x1,%eax
    2ae9:	89 cb                	mov    %ecx,%ebx
    2aeb:	4c 8b b4 24 38 00 00 	mov    0x38(%rsp),%r14
    2af2:	00 
    2af3:	41 89 44 1e 04       	mov    %eax,0x4(%r14,%rbx,1)
    2af8:	b8 1c 05 00 00       	mov    $0x51c,%eax
    2afd:	bb e8 06 00 00       	mov    $0x6e8,%ebx
    2b02:	89 db                	mov    %ebx,%ebx
    2b04:	41 8b 1c 1e          	mov    (%r14,%rbx,1),%ebx
    2b08:	89 c0                	mov    %eax,%eax
    2b0a:	41 89 1c 06          	mov    %ebx,(%r14,%rax,1)
    2b0e:	4c 8b ac 24 20 00 00 	mov    0x20(%rsp),%r13
    2b15:	00 
    2b16:	43 89 14 2e          	mov    %edx,(%r14,%r13,1)
    2b1a:	4c 8b ac 24 30 00 00 	mov    0x30(%rsp),%r13
    2b21:	00 
    2b22:	43 89 0c 2e          	mov    %ecx,(%r14,%r13,1)
    2b26:	44 8b b4 24 48 00 00 	mov    0x48(%rsp),%r14d
    2b2d:	00 
    2b2e:	45 01 fe             	add    %r15d,%r14d
    2b31:	b8 38 00 00 00       	mov    $0x38,%eax
    2b36:	44 89 f1             	mov    %r14d,%ecx
    2b39:	4c 8b bc 24 38 00 00 	mov    0x38(%rsp),%r15
    2b40:	00 
    2b41:	41 89 44 0f 04       	mov    %eax,0x4(%r15,%rcx,1)
    2b46:	e9 8f 0c 00 00       	jmpq   37da <guest_func_8+0x22ea>
    2b4b:	4c 8b bc 24 38 00 00 	mov    0x38(%rsp),%r15
    2b52:	00 
    2b53:	41 0f b6 7c 17 0c    	movzbl 0xc(%r15,%rdx,1),%edi
    2b59:	83 e7 08             	and    $0x8,%edi
    2b5c:	85 ff                	test   %edi,%edi
    2b5e:	0f 85 ce 00 00 00    	jne    2c32 <guest_func_8+0x1742>
    2b64:	44 8b bc 24 48 00 00 	mov    0x48(%rsp),%r15d
    2b6b:	00 
    2b6c:	41 39 c7             	cmp    %eax,%r15d
    2b6f:	0f 86 bd 00 00 00    	jbe    2c32 <guest_func_8+0x1742>
    2b75:	39 c3                	cmp    %eax,%ebx
    2b77:	0f 87 b5 00 00 00    	ja     2c32 <guest_func_8+0x1742>
    2b7d:	b9 f8 ff ff ff       	mov    $0xfffffff8,%ecx
    2b82:	29 c1                	sub    %eax,%ecx
    2b84:	83 e1 0f             	and    $0xf,%ecx
    2b87:	89 c3                	mov    %eax,%ebx
    2b89:	83 c3 08             	add    $0x8,%ebx
    2b8c:	83 e3 0f             	and    $0xf,%ebx
    2b8f:	85 db                	test   %ebx,%ebx
    2b91:	0f 85 0b 00 00 00    	jne    2ba2 <guest_func_8+0x16b2>
    2b97:	44 8b bc 24 70 00 00 	mov    0x70(%rsp),%r15d
    2b9e:	00 
    2b9f:	44 89 f9             	mov    %r15d,%ecx
    2ba2:	89 cb                	mov    %ecx,%ebx
    2ba4:	01 c3                	add    %eax,%ebx
    2ba6:	4c 8b bc 24 38 00 00 	mov    0x38(%rsp),%r15
    2bad:	00 
    2bae:	4c 8b b4 24 20 00 00 	mov    0x20(%rsp),%r14
    2bb5:	00 
    2bb6:	43 8b 3c 37          	mov    (%r15,%r14,1),%edi
    2bba:	44 8b bc 24 4c 00 00 	mov    0x4c(%rsp),%r15d
    2bc1:	00 
    2bc2:	44 01 ff             	add    %r15d,%edi
    2bc5:	41 89 f8             	mov    %edi,%r8d
    2bc8:	41 29 c8             	sub    %ecx,%r8d
    2bcb:	44 89 c1             	mov    %r8d,%ecx
    2bce:	83 c9 01             	or     $0x1,%ecx
    2bd1:	41 89 d9             	mov    %ebx,%r9d
    2bd4:	4c 8b bc 24 38 00 00 	mov    0x38(%rsp),%r15
    2bdb:	00 
    2bdc:	43 89 4c 0f 04       	mov    %ecx,0x4(%r15,%r9,1)
    2be1:	44 8b bc 24 4c 00 00 	mov    0x4c(%rsp),%r15d
    2be8:	00 
    2be9:	44 01 fe             	add    %r15d,%esi
    2bec:	4c 8b bc 24 38 00 00 	mov    0x38(%rsp),%r15
    2bf3:	00 
    2bf4:	41 89 74 17 04       	mov    %esi,0x4(%r15,%rdx,1)
    2bf9:	b9 1c 05 00 00       	mov    $0x51c,%ecx
    2bfe:	ba e8 06 00 00       	mov    $0x6e8,%edx
    2c03:	89 d2                	mov    %edx,%edx
    2c05:	41 8b 14 17          	mov    (%r15,%rdx,1),%edx
    2c09:	89 c9                	mov    %ecx,%ecx
    2c0b:	41 89 14 0f          	mov    %edx,(%r15,%rcx,1)
    2c0f:	47 89 04 37          	mov    %r8d,(%r15,%r14,1)
    2c13:	4c 8b b4 24 30 00 00 	mov    0x30(%rsp),%r14
    2c1a:	00 
    2c1b:	43 89 1c 37          	mov    %ebx,(%r15,%r14,1)
    2c1f:	01 c7                	add    %eax,%edi
    2c21:	b8 38 00 00 00       	mov    $0x38,%eax
    2c26:	89 f9                	mov    %edi,%ecx
    2c28:	41 89 44 0f 04       	mov    %eax,0x4(%r15,%rcx,1)
    2c2d:	e9 a8 0b 00 00       	jmpq   37da <guest_func_8+0x22ea>
    2c32:	ba 10 05 00 00       	mov    $0x510,%edx
    2c37:	89 d2                	mov    %edx,%edx
    2c39:	4c 8b bc 24 38 00 00 	mov    0x38(%rsp),%r15
    2c40:	00 
    2c41:	41 8b 14 17          	mov    (%r15,%rdx,1),%edx
    2c45:	44 8b bc 24 48 00 00 	mov    0x48(%rsp),%r15d
    2c4c:	00 
    2c4d:	41 39 d7             	cmp    %edx,%r15d
    2c50:	0f 83 16 00 00 00    	jae    2c6c <guest_func_8+0x177c>
    2c56:	ba 10 05 00 00       	mov    $0x510,%edx
    2c5b:	89 d2                	mov    %edx,%edx
    2c5d:	4c 8b b4 24 38 00 00 	mov    0x38(%rsp),%r14
    2c64:	00 
    2c65:	45 89 3c 16          	mov    %r15d,(%r14,%rdx,1)
    2c69:	44 89 fa             	mov    %r15d,%edx
    2c6c:	44 8b bc 24 48 00 00 	mov    0x48(%rsp),%r15d
    2c73:	00 
    2c74:	44 8b b4 24 4c 00 00 	mov    0x4c(%rsp),%r14d
    2c7b:	00 
    2c7c:	44 89 fb             	mov    %r15d,%ebx
    2c7f:	44 01 f3             	add    %r14d,%ebx
    2c82:	89 ce                	mov    %ecx,%esi
    2c84:	89 f6                	mov    %esi,%esi
    2c86:	4c 8b bc 24 38 00 00 	mov    0x38(%rsp),%r15
    2c8d:	00 
    2c8e:	41 8b 3c 37          	mov    (%r15,%rsi,1),%edi
    2c92:	39 fb                	cmp    %edi,%ebx
    2c94:	0f 84 0e 00 00 00    	je     2ca8 <guest_func_8+0x17b8>
    2c9a:	41 8b 74 37 08       	mov    0x8(%r15,%rsi,1),%esi
    2c9f:	85 f6                	test   %esi,%esi
    2ca1:	75 e1                	jne    2c84 <guest_func_8+0x1794>
    2ca3:	e9 11 00 00 00       	jmpq   2cb9 <guest_func_8+0x17c9>
    2ca8:	41 0f b6 7c 37 0c    	movzbl 0xc(%r15,%rsi,1),%edi
    2cae:	83 e7 08             	and    $0x8,%edi
    2cb1:	85 ff                	test   %edi,%edi
    2cb3:	0f 84 36 00 00 00    	je     2cef <guest_func_8+0x17ff>
    2cb9:	89 ca                	mov    %ecx,%edx
    2cbb:	89 d2                	mov    %edx,%edx
    2cbd:	4c 8b bc 24 38 00 00 	mov    0x38(%rsp),%r15
    2cc4:	00 
    2cc5:	41 8b 1c 17          	mov    (%r15,%rdx,1),%ebx
    2cc9:	39 c3                	cmp    %eax,%ebx
    2ccb:	0f 87 0f 00 00 00    	ja     2ce0 <guest_func_8+0x17f0>
    2cd1:	41 8b 74 17 04       	mov    0x4(%r15,%rdx,1),%esi
    2cd6:	01 de                	add    %ebx,%esi
    2cd8:	39 c6                	cmp    %eax,%esi
    2cda:	0f 87 7a 06 00 00    	ja     335a <guest_func_8+0x1e6a>
    2ce0:	4c 8b bc 24 38 00 00 	mov    0x38(%rsp),%r15
    2ce7:	00 
    2ce8:	41 8b 54 17 08       	mov    0x8(%r15,%rdx,1),%edx
    2ced:	eb cc                	jmp    2cbb <guest_func_8+0x17cb>
    2cef:	44 8b bc 24 48 00 00 	mov    0x48(%rsp),%r15d
    2cf6:	00 
    2cf7:	4c 8b b4 24 38 00 00 	mov    0x38(%rsp),%r14
    2cfe:	00 
    2cff:	45 89 3c 36          	mov    %r15d,(%r14,%rsi,1)
    2d03:	4d 89 f7             	mov    %r14,%r15
    2d06:	41 8b 4c 37 04       	mov    0x4(%r15,%rsi,1),%ecx
    2d0b:	44 8b bc 24 4c 00 00 	mov    0x4c(%rsp),%r15d
    2d12:	00 
    2d13:	44 01 f9             	add    %r15d,%ecx
    2d16:	4d 89 f7             	mov    %r14,%r15
    2d19:	41 89 4c 37 04       	mov    %ecx,0x4(%r15,%rsi,1)
    2d1e:	b9 f8 ff ff ff       	mov    $0xfffffff8,%ecx
    2d23:	89 ce                	mov    %ecx,%esi
    2d25:	44 8b bc 24 48 00 00 	mov    0x48(%rsp),%r15d
    2d2c:	00 
    2d2d:	44 29 fe             	sub    %r15d,%esi
    2d30:	83 e6 0f             	and    $0xf,%esi
    2d33:	41 83 c7 08          	add    $0x8,%r15d
    2d37:	41 83 e7 0f          	and    $0xf,%r15d
    2d3b:	45 85 ff             	test   %r15d,%r15d
    2d3e:	0f 85 0b 00 00 00    	jne    2d4f <guest_func_8+0x185f>
    2d44:	44 8b bc 24 70 00 00 	mov    0x70(%rsp),%r15d
    2d4b:	00 
    2d4c:	44 89 fe             	mov    %r15d,%esi
    2d4f:	44 8b bc 24 48 00 00 	mov    0x48(%rsp),%r15d
    2d56:	00 
    2d57:	44 01 fe             	add    %r15d,%esi
    2d5a:	44 8b bc 24 54 00 00 	mov    0x54(%rsp),%r15d
    2d61:	00 
    2d62:	41 83 cf 03          	or     $0x3,%r15d
    2d66:	89 f7                	mov    %esi,%edi
    2d68:	4c 8b b4 24 38 00 00 	mov    0x38(%rsp),%r14
    2d6f:	00 
    2d70:	45 89 7c 3e 04       	mov    %r15d,0x4(%r14,%rdi,1)
    2d75:	29 d9                	sub    %ebx,%ecx
    2d77:	83 e1 0f             	and    $0xf,%ecx
    2d7a:	89 df                	mov    %ebx,%edi
    2d7c:	83 c7 08             	add    $0x8,%edi
    2d7f:	83 e7 0f             	and    $0xf,%edi
    2d82:	85 ff                	test   %edi,%edi
    2d84:	0f 85 0b 00 00 00    	jne    2d95 <guest_func_8+0x18a5>
    2d8a:	44 8b bc 24 70 00 00 	mov    0x70(%rsp),%r15d
    2d91:	00 
    2d92:	44 89 f9             	mov    %r15d,%ecx
    2d95:	01 d9                	add    %ebx,%ecx
    2d97:	89 cb                	mov    %ecx,%ebx
    2d99:	29 f3                	sub    %esi,%ebx
    2d9b:	44 8b bc 24 54 00 00 	mov    0x54(%rsp),%r15d
    2da2:	00 
    2da3:	44 29 fb             	sub    %r15d,%ebx
    2da6:	44 89 ff             	mov    %r15d,%edi
    2da9:	01 f7                	add    %esi,%edi
    2dab:	39 c1                	cmp    %eax,%ecx
    2dad:	0f 85 35 00 00 00    	jne    2de8 <guest_func_8+0x18f8>
    2db3:	4c 8b bc 24 38 00 00 	mov    0x38(%rsp),%r15
    2dba:	00 
    2dbb:	4c 8b b4 24 30 00 00 	mov    0x30(%rsp),%r14
    2dc2:	00 
    2dc3:	43 89 3c 37          	mov    %edi,(%r15,%r14,1)
    2dc7:	4c 8b b4 24 20 00 00 	mov    0x20(%rsp),%r14
    2dce:	00 
    2dcf:	43 8b 04 37          	mov    (%r15,%r14,1),%eax
    2dd3:	01 d8                	add    %ebx,%eax
    2dd5:	43 89 04 37          	mov    %eax,(%r15,%r14,1)
    2dd9:	83 c8 01             	or     $0x1,%eax
    2ddc:	89 f9                	mov    %edi,%ecx
    2dde:	41 89 44 0f 04       	mov    %eax,0x4(%r15,%rcx,1)
    2de3:	e9 ac 09 00 00       	jmpq   3794 <guest_func_8+0x22a4>
    2de8:	b8 14 05 00 00       	mov    $0x514,%eax
    2ded:	89 c0                	mov    %eax,%eax
    2def:	4c 8b bc 24 38 00 00 	mov    0x38(%rsp),%r15
    2df6:	00 
    2df7:	45 8b 04 07          	mov    (%r15,%rax,1),%r8d
    2dfb:	44 39 c1             	cmp    %r8d,%ecx
    2dfe:	0f 85 31 00 00 00    	jne    2e35 <guest_func_8+0x1945>
    2e04:	41 89 3c 07          	mov    %edi,(%r15,%rax,1)
    2e08:	4c 8b b4 24 28 00 00 	mov    0x28(%rsp),%r14
    2e0f:	00 
    2e10:	43 8b 04 37          	mov    (%r15,%r14,1),%eax
    2e14:	01 d8                	add    %ebx,%eax
    2e16:	43 89 04 37          	mov    %eax,(%r15,%r14,1)
    2e1a:	89 c1                	mov    %eax,%ecx
    2e1c:	83 c9 01             	or     $0x1,%ecx
    2e1f:	89 fa                	mov    %edi,%edx
    2e21:	41 89 4c 17 04       	mov    %ecx,0x4(%r15,%rdx,1)
    2e26:	89 c1                	mov    %eax,%ecx
    2e28:	01 f9                	add    %edi,%ecx
    2e2a:	89 c9                	mov    %ecx,%ecx
    2e2c:	41 89 04 0f          	mov    %eax,(%r15,%rcx,1)
    2e30:	e9 5f 09 00 00       	jmpq   3794 <guest_func_8+0x22a4>
    2e35:	89 c8                	mov    %ecx,%eax
    2e37:	45 8b 44 07 04       	mov    0x4(%r15,%rax,1),%r8d
    2e3c:	45 89 c1             	mov    %r8d,%r9d
    2e3f:	41 83 e1 03          	and    $0x3,%r9d
    2e43:	41 ba 01 00 00 00    	mov    $0x1,%r10d
    2e49:	41 83 f9 01          	cmp    $0x1,%r9d
    2e4d:	0f 85 8d 02 00 00    	jne    30e0 <guest_func_8+0x1bf0>
    2e53:	45 89 c1             	mov    %r8d,%r9d
    2e56:	41 83 e1 f8          	and    $0xfffffff8,%r9d
    2e5a:	41 81 f8 ff 00 00 00 	cmp    $0xff,%r8d
    2e61:	0f 87 86 00 00 00    	ja     2eed <guest_func_8+0x19fd>
    2e67:	41 8b 54 07 0c       	mov    0xc(%r15,%rax,1),%edx
    2e6c:	41 8b 44 07 08       	mov    0x8(%r15,%rax,1),%eax
    2e71:	41 c1 e8 03          	shr    $0x3,%r8d
    2e75:	45 89 c3             	mov    %r8d,%r11d
    2e78:	41 c1 e3 03          	shl    $0x3,%r11d
    2e7c:	41 81 c3 28 05 00 00 	add    $0x528,%r11d
    2e83:	44 39 d8             	cmp    %r11d,%eax
    2e86:	0f 84 00 00 00 00    	je     2e8c <guest_func_8+0x199c>
    2e8c:	39 d0                	cmp    %edx,%eax
    2e8e:	0f 85 34 00 00 00    	jne    2ec8 <guest_func_8+0x19d8>
    2e94:	b8 00 05 00 00       	mov    $0x500,%eax
    2e99:	89 c0                	mov    %eax,%eax
    2e9b:	4c 8b bc 24 38 00 00 	mov    0x38(%rsp),%r15
    2ea2:	00 
    2ea3:	41 8b 14 07          	mov    (%r15,%rax,1),%edx
    2ea7:	41 bb fe ff ff ff    	mov    $0xfffffffe,%r11d
    2ead:	41 89 cc             	mov    %ecx,%r12d
    2eb0:	44 89 c1             	mov    %r8d,%ecx
    2eb3:	45 89 e0             	mov    %r12d,%r8d
    2eb6:	41 d3 c3             	rol    %cl,%r11d
    2eb9:	44 21 da             	and    %r11d,%edx
    2ebc:	41 89 14 07          	mov    %edx,(%r15,%rax,1)
    2ec0:	44 89 c1             	mov    %r8d,%ecx
    2ec3:	e9 12 02 00 00       	jmpq   30da <guest_func_8+0x1bea>
    2ec8:	41 39 d3             	cmp    %edx,%r11d
    2ecb:	0f 84 00 00 00 00    	je     2ed1 <guest_func_8+0x19e1>
    2ed1:	41 89 d0             	mov    %edx,%r8d
    2ed4:	4c 8b bc 24 38 00 00 	mov    0x38(%rsp),%r15
    2edb:	00 
    2edc:	43 89 44 07 08       	mov    %eax,0x8(%r15,%r8,1)
    2ee1:	89 c0                	mov    %eax,%eax
    2ee3:	41 89 54 07 0c       	mov    %edx,0xc(%r15,%rax,1)
    2ee8:	e9 ed 01 00 00       	jmpq   30da <guest_func_8+0x1bea>
    2eed:	45 8b 44 07 18       	mov    0x18(%r15,%rax,1),%r8d
    2ef2:	45 8b 5c 07 0c       	mov    0xc(%r15,%rax,1),%r11d
    2ef7:	41 39 cb             	cmp    %ecx,%r11d
    2efa:	0f 84 33 00 00 00    	je     2f33 <guest_func_8+0x1a43>
    2f00:	45 8b 64 07 08       	mov    0x8(%r15,%rax,1),%r12d
    2f05:	44 39 e2             	cmp    %r12d,%edx
    2f08:	0f 87 08 00 00 00    	ja     2f16 <guest_func_8+0x1a26>
    2f0e:	44 89 e2             	mov    %r12d,%edx
    2f11:	41 8b 54 17 0c       	mov    0xc(%r15,%rdx,1),%edx
    2f16:	44 89 da             	mov    %r11d,%edx
    2f19:	4c 8b bc 24 38 00 00 	mov    0x38(%rsp),%r15
    2f20:	00 
    2f21:	45 89 64 17 08       	mov    %r12d,0x8(%r15,%rdx,1)
    2f26:	44 89 e2             	mov    %r12d,%edx
    2f29:	45 89 5c 17 0c       	mov    %r11d,0xc(%r15,%rdx,1)
    2f2e:	e9 a7 00 00 00       	jmpq   2fda <guest_func_8+0x1aea>
    2f33:	89 ca                	mov    %ecx,%edx
    2f35:	83 c2 14             	add    $0x14,%edx
    2f38:	41 89 d3             	mov    %edx,%r11d
    2f3b:	47 8b 1c 1f          	mov    (%r15,%r11,1),%r11d
    2f3f:	45 85 db             	test   %r11d,%r11d
    2f42:	0f 85 25 00 00 00    	jne    2f6d <guest_func_8+0x1a7d>
    2f48:	89 ca                	mov    %ecx,%edx
    2f4a:	83 c2 10             	add    $0x10,%edx
    2f4d:	41 89 d3             	mov    %edx,%r11d
    2f50:	47 8b 1c 1f          	mov    (%r15,%r11,1),%r11d
    2f54:	45 85 db             	test   %r11d,%r11d
    2f57:	0f 85 10 00 00 00    	jne    2f6d <guest_func_8+0x1a7d>
    2f5d:	44 8b bc 24 70 00 00 	mov    0x70(%rsp),%r15d
    2f64:	00 
    2f65:	45 89 fb             	mov    %r15d,%r11d
    2f68:	e9 6d 00 00 00       	jmpq   2fda <guest_func_8+0x1aea>
    2f6d:	e9 23 00 00 00       	jmpq   2f95 <guest_func_8+0x1aa5>
    2f72:	44 89 ea             	mov    %r13d,%edx
    2f75:	45 89 e3             	mov    %r12d,%r11d
    2f78:	45 89 de             	mov    %r11d,%r14d
    2f7b:	41 89 d3             	mov    %edx,%r11d
    2f7e:	44 89 f2             	mov    %r14d,%edx
    2f81:	e9 0f 00 00 00       	jmpq   2f95 <guest_func_8+0x1aa5>
    2f86:	44 89 ea             	mov    %r13d,%edx
    2f89:	45 89 e3             	mov    %r12d,%r11d
    2f8c:	45 89 de             	mov    %r11d,%r14d
    2f8f:	41 89 d3             	mov    %edx,%r11d
    2f92:	44 89 f2             	mov    %r14d,%edx
    2f95:	45 89 dc             	mov    %r11d,%r12d
    2f98:	41 83 c4 14          	add    $0x14,%r12d
    2f9c:	45 89 e5             	mov    %r12d,%r13d
    2f9f:	4c 8b bc 24 38 00 00 	mov    0x38(%rsp),%r15
    2fa6:	00 
    2fa7:	47 8b 2c 2f          	mov    (%r15,%r13,1),%r13d
    2fab:	45 85 ed             	test   %r13d,%r13d
    2fae:	75 c2                	jne    2f72 <guest_func_8+0x1a82>
    2fb0:	45 89 dc             	mov    %r11d,%r12d
    2fb3:	41 83 c4 10          	add    $0x10,%r12d
    2fb7:	45 89 dd             	mov    %r11d,%r13d
    2fba:	47 8b 6c 2f 10       	mov    0x10(%r15,%r13,1),%r13d
    2fbf:	45 85 ed             	test   %r13d,%r13d
    2fc2:	75 c2                	jne    2f86 <guest_func_8+0x1a96>
    2fc4:	89 d2                	mov    %edx,%edx
    2fc6:	44 8b bc 24 70 00 00 	mov    0x70(%rsp),%r15d
    2fcd:	00 
    2fce:	4c 8b b4 24 38 00 00 	mov    0x38(%rsp),%r14
    2fd5:	00 
    2fd6:	45 89 3c 16          	mov    %r15d,(%r14,%rdx,1)
    2fda:	45 85 c0             	test   %r8d,%r8d
    2fdd:	0f 84 f7 00 00 00    	je     30da <guest_func_8+0x1bea>
    2fe3:	4c 8b bc 24 38 00 00 	mov    0x38(%rsp),%r15
    2fea:	00 
    2feb:	41 8b 54 07 1c       	mov    0x1c(%r15,%rax,1),%edx
    2ff0:	41 89 d4             	mov    %edx,%r12d
    2ff3:	41 c1 e4 02          	shl    $0x2,%r12d
    2ff7:	41 81 c4 30 06 00 00 	add    $0x630,%r12d
    2ffe:	45 89 e4             	mov    %r12d,%r12d
    3001:	47 8b 2c 27          	mov    (%r15,%r12,1),%r13d
    3005:	44 39 e9             	cmp    %r13d,%ecx
    3008:	0f 85 39 00 00 00    	jne    3047 <guest_func_8+0x1b57>
    300e:	47 89 1c 27          	mov    %r11d,(%r15,%r12,1)
    3012:	45 85 db             	test   %r11d,%r11d
    3015:	0f 85 6c 00 00 00    	jne    3087 <guest_func_8+0x1b97>
    301b:	b8 04 05 00 00       	mov    $0x504,%eax
    3020:	89 c0                	mov    %eax,%eax
    3022:	45 8b 04 07          	mov    (%r15,%rax,1),%r8d
    3026:	41 bb fe ff ff ff    	mov    $0xfffffffe,%r11d
    302c:	41 89 cc             	mov    %ecx,%r12d
    302f:	40 89 d1             	rex mov %edx,%ecx
    3032:	44 89 e2             	mov    %r12d,%edx
    3035:	41 d3 c3             	rol    %cl,%r11d
    3038:	45 21 d8             	and    %r11d,%r8d
    303b:	45 89 04 07          	mov    %r8d,(%r15,%rax,1)
    303f:	40 89 d1             	rex mov %edx,%ecx
    3042:	e9 93 00 00 00       	jmpq   30da <guest_func_8+0x1bea>
    3047:	ba 14 00 00 00       	mov    $0x14,%edx
    304c:	45 89 c4             	mov    %r8d,%r12d
    304f:	47 8b 64 27 10       	mov    0x10(%r15,%r12,1),%r12d
    3054:	41 39 cc             	cmp    %ecx,%r12d
    3057:	0f 84 07 00 00 00    	je     3064 <guest_func_8+0x1b74>
    305d:	89 94 24 68 00 00 00 	mov    %edx,0x68(%rsp)
    3064:	44 8b bc 24 68 00 00 	mov    0x68(%rsp),%r15d
    306b:	00 
    306c:	45 01 c7             	add    %r8d,%r15d
    306f:	44 89 fa             	mov    %r15d,%edx
    3072:	4c 8b bc 24 38 00 00 	mov    0x38(%rsp),%r15
    3079:	00 
    307a:	45 89 1c 17          	mov    %r11d,(%r15,%rdx,1)
    307e:	45 85 db             	test   %r11d,%r11d
    3081:	0f 84 53 00 00 00    	je     30da <guest_func_8+0x1bea>
    3087:	44 89 da             	mov    %r11d,%edx
    308a:	4c 8b bc 24 38 00 00 	mov    0x38(%rsp),%r15
    3091:	00 
    3092:	45 89 44 17 18       	mov    %r8d,0x18(%r15,%rdx,1)
    3097:	45 8b 44 07 10       	mov    0x10(%r15,%rax,1),%r8d
    309c:	45 85 c0             	test   %r8d,%r8d
    309f:	0f 84 0d 00 00 00    	je     30b2 <guest_func_8+0x1bc2>
    30a5:	45 89 44 17 10       	mov    %r8d,0x10(%r15,%rdx,1)
    30aa:	44 89 c2             	mov    %r8d,%edx
    30ad:	45 89 5c 17 18       	mov    %r11d,0x18(%r15,%rdx,1)
    30b2:	4c 8b bc 24 38 00 00 	mov    0x38(%rsp),%r15
    30b9:	00 
    30ba:	41 8b 44 07 14       	mov    0x14(%r15,%rax,1),%eax
    30bf:	85 c0                	test   %eax,%eax
    30c1:	0f 84 13 00 00 00    	je     30da <guest_func_8+0x1bea>
    30c7:	44 89 da             	mov    %r11d,%edx
    30ca:	83 c2 14             	add    $0x14,%edx
    30cd:	89 d2                	mov    %edx,%edx
    30cf:	41 89 04 17          	mov    %eax,(%r15,%rdx,1)
    30d3:	89 c0                	mov    %eax,%eax
    30d5:	45 89 5c 07 18       	mov    %r11d,0x18(%r15,%rax,1)
    30da:	44 01 cb             	add    %r9d,%ebx
    30dd:	44 01 c9             	add    %r9d,%ecx
    30e0:	89 c8                	mov    %ecx,%eax
    30e2:	4c 8b bc 24 38 00 00 	mov    0x38(%rsp),%r15
    30e9:	00 
    30ea:	41 8b 4c 07 04       	mov    0x4(%r15,%rax,1),%ecx
    30ef:	83 e1 fe             	and    $0xfffffffe,%ecx
    30f2:	41 89 4c 07 04       	mov    %ecx,0x4(%r15,%rax,1)
    30f7:	89 d8                	mov    %ebx,%eax
    30f9:	01 f8                	add    %edi,%eax
    30fb:	89 c0                	mov    %eax,%eax
    30fd:	41 89 1c 07          	mov    %ebx,(%r15,%rax,1)
    3101:	89 d8                	mov    %ebx,%eax
    3103:	83 c8 01             	or     $0x1,%eax
    3106:	89 f9                	mov    %edi,%ecx
    3108:	41 89 44 0f 04       	mov    %eax,0x4(%r15,%rcx,1)
    310d:	81 fb ff 00 00 00    	cmp    $0xff,%ebx
    3113:	0f 87 79 00 00 00    	ja     3192 <guest_func_8+0x1ca2>
    3119:	c1 eb 03             	shr    $0x3,%ebx
    311c:	89 d8                	mov    %ebx,%eax
    311e:	c1 e0 03             	shl    $0x3,%eax
    3121:	81 c0 28 05 00 00    	add    $0x528,%eax
    3127:	ba 00 05 00 00       	mov    $0x500,%edx
    312c:	89 d2                	mov    %edx,%edx
    312e:	45 8b 04 17          	mov    (%r15,%rdx,1),%r8d
    3132:	45 89 d1             	mov    %r10d,%r9d
    3135:	49 89 ca             	mov    %rcx,%r10
    3138:	40 89 d9             	rex mov %ebx,%ecx
    313b:	4c 89 d3             	mov    %r10,%rbx
    313e:	41 d3 e1             	shl    %cl,%r9d
    3141:	44 89 c1             	mov    %r8d,%ecx
    3144:	44 21 c9             	and    %r9d,%ecx
    3147:	41 89 ca             	mov    %ecx,%r10d
    314a:	48 89 d9             	mov    %rbx,%rcx
    314d:	44 89 d3             	mov    %r10d,%ebx
    3150:	85 db                	test   %ebx,%ebx
    3152:	0f 85 0e 00 00 00    	jne    3166 <guest_func_8+0x1c76>
    3158:	45 09 c1             	or     %r8d,%r9d
    315b:	45 89 0c 17          	mov    %r9d,(%r15,%rdx,1)
    315f:	89 c2                	mov    %eax,%edx
    3161:	e9 07 00 00 00       	jmpq   316d <guest_func_8+0x1c7d>
    3166:	89 c2                	mov    %eax,%edx
    3168:	41 8b 54 17 08       	mov    0x8(%r15,%rdx,1),%edx
    316d:	89 d3                	mov    %edx,%ebx
    316f:	4c 8b bc 24 38 00 00 	mov    0x38(%rsp),%r15
    3176:	00 
    3177:	41 89 7c 1f 0c       	mov    %edi,0xc(%r15,%rbx,1)
    317c:	89 c3                	mov    %eax,%ebx
    317e:	41 89 7c 1f 08       	mov    %edi,0x8(%r15,%rbx,1)
    3183:	41 89 44 0f 0c       	mov    %eax,0xc(%r15,%rcx,1)
    3188:	41 89 54 0f 08       	mov    %edx,0x8(%r15,%rcx,1)
    318d:	e9 02 06 00 00       	jmpq   3794 <guest_func_8+0x22a4>
    3192:	89 d8                	mov    %ebx,%eax
    3194:	c1 e8 08             	shr    $0x8,%eax
    3197:	85 c0                	test   %eax,%eax
    3199:	0f 84 9c 00 00 00    	je     323b <guest_func_8+0x1d4b>
    319f:	ba 1f 00 00 00       	mov    $0x1f,%edx
    31a4:	81 fb ff ff ff 00    	cmp    $0xffffff,%ebx
    31aa:	0f 87 98 00 00 00    	ja     3248 <guest_func_8+0x1d58>
    31b0:	89 c2                	mov    %eax,%edx
    31b2:	81 c2 00 ff 0f 00    	add    $0xfff00,%edx
    31b8:	c1 ea 10             	shr    $0x10,%edx
    31bb:	83 e2 08             	and    $0x8,%edx
    31be:	49 89 c8             	mov    %rcx,%r8
    31c1:	40 89 d1             	rex mov %edx,%ecx
    31c4:	4c 89 c2             	mov    %r8,%rdx
    31c7:	d3 e0                	shl    %cl,%eax
    31c9:	41 89 c0             	mov    %eax,%r8d
    31cc:	41 81 c0 00 f0 07 00 	add    $0x7f000,%r8d
    31d3:	41 c1 e8 10          	shr    $0x10,%r8d
    31d7:	41 83 e0 04          	and    $0x4,%r8d
    31db:	41 89 c9             	mov    %ecx,%r9d
    31de:	44 89 c1             	mov    %r8d,%ecx
    31e1:	45 89 c8             	mov    %r9d,%r8d
    31e4:	d3 e0                	shl    %cl,%eax
    31e6:	41 89 c1             	mov    %eax,%r9d
    31e9:	41 81 c1 00 c0 03 00 	add    $0x3c000,%r9d
    31f0:	41 c1 e9 10          	shr    $0x10,%r9d
    31f4:	41 83 e1 02          	and    $0x2,%r9d
    31f8:	41 89 cb             	mov    %ecx,%r11d
    31fb:	44 89 c9             	mov    %r9d,%ecx
    31fe:	45 89 d9             	mov    %r11d,%r9d
    3201:	d3 e0                	shl    %cl,%eax
    3203:	c1 e8 0f             	shr    $0xf,%eax
    3206:	45 09 c8             	or     %r9d,%r8d
    3209:	41 09 c8             	or     %ecx,%r8d
    320c:	44 29 c0             	sub    %r8d,%eax
    320f:	89 c1                	mov    %eax,%ecx
    3211:	c1 e1 01             	shl    $0x1,%ecx
    3214:	83 c0 15             	add    $0x15,%eax
    3217:	41 89 d8             	mov    %ebx,%r8d
    321a:	41 89 c9             	mov    %ecx,%r9d
    321d:	40 89 c1             	rex mov %eax,%ecx
    3220:	44 89 c8             	mov    %r9d,%eax
    3223:	41 d3 e8             	shr    %cl,%r8d
    3226:	41 83 e0 01          	and    $0x1,%r8d
    322a:	44 09 c0             	or     %r8d,%eax
    322d:	83 c0 1c             	add    $0x1c,%eax
    3230:	48 89 d1             	mov    %rdx,%rcx
    3233:	41 89 c7             	mov    %eax,%r15d
    3236:	e9 10 00 00 00       	jmpq   324b <guest_func_8+0x1d5b>
    323b:	44 8b bc 24 70 00 00 	mov    0x70(%rsp),%r15d
    3242:	00 
    3243:	e9 03 00 00 00       	jmpq   324b <guest_func_8+0x1d5b>
    3248:	41 89 d7             	mov    %edx,%r15d
    324b:	4c 8b b4 24 38 00 00 	mov    0x38(%rsp),%r14
    3252:	00 
    3253:	45 89 7c 0e 1c       	mov    %r15d,0x1c(%r14,%rcx,1)
    3258:	31 c0                	xor    %eax,%eax
    325a:	49 89 44 0e 10       	mov    %rax,0x10(%r14,%rcx,1)
    325f:	44 89 f8             	mov    %r15d,%eax
    3262:	c1 e0 02             	shl    $0x2,%eax
    3265:	81 c0 30 06 00 00    	add    $0x630,%eax
    326b:	ba 04 05 00 00       	mov    $0x504,%edx
    3270:	89 d2                	mov    %edx,%edx
    3272:	45 8b 04 16          	mov    (%r14,%rdx,1),%r8d
    3276:	49 89 c9             	mov    %rcx,%r9
    3279:	44 89 f9             	mov    %r15d,%ecx
    327c:	41 d3 e2             	shl    %cl,%r10d
    327f:	45 89 c3             	mov    %r8d,%r11d
    3282:	45 21 d3             	and    %r10d,%r11d
    3285:	41 89 cf             	mov    %ecx,%r15d
    3288:	4c 89 c9             	mov    %r9,%rcx
    328b:	45 85 db             	test   %r11d,%r11d
    328e:	0f 85 24 00 00 00    	jne    32b8 <guest_func_8+0x1dc8>
    3294:	89 c3                	mov    %eax,%ebx
    3296:	4d 89 f7             	mov    %r14,%r15
    3299:	41 89 3c 1f          	mov    %edi,(%r15,%rbx,1)
    329d:	45 09 c2             	or     %r8d,%r10d
    32a0:	45 89 14 17          	mov    %r10d,(%r15,%rdx,1)
    32a4:	41 89 44 0f 18       	mov    %eax,0x18(%r15,%rcx,1)
    32a9:	41 89 7c 0f 08       	mov    %edi,0x8(%r15,%rcx,1)
    32ae:	41 89 7c 0f 0c       	mov    %edi,0xc(%r15,%rcx,1)
    32b3:	e9 dc 04 00 00       	jmpq   3794 <guest_func_8+0x22a4>
    32b8:	ba 19 00 00 00       	mov    $0x19,%edx
    32bd:	45 89 f8             	mov    %r15d,%r8d
    32c0:	41 c1 e8 01          	shr    $0x1,%r8d
    32c4:	44 29 c2             	sub    %r8d,%edx
    32c7:	41 83 ff 1f          	cmp    $0x1f,%r15d
    32cb:	0f 84 08 00 00 00    	je     32d9 <guest_func_8+0x1de9>
    32d1:	41 89 d7             	mov    %edx,%r15d
    32d4:	e9 08 00 00 00       	jmpq   32e1 <guest_func_8+0x1df1>
    32d9:	44 8b bc 24 70 00 00 	mov    0x70(%rsp),%r15d
    32e0:	00 
    32e1:	89 da                	mov    %ebx,%edx
    32e3:	49 89 c8             	mov    %rcx,%r8
    32e6:	44 89 f9             	mov    %r15d,%ecx
    32e9:	d3 e2                	shl    %cl,%edx
    32eb:	89 c0                	mov    %eax,%eax
    32ed:	4c 8b bc 24 38 00 00 	mov    0x38(%rsp),%r15
    32f4:	00 
    32f5:	41 8b 04 07          	mov    (%r15,%rax,1),%eax
    32f9:	4c 89 c1             	mov    %r8,%rcx
    32fc:	e9 03 00 00 00       	jmpq   3304 <guest_func_8+0x1e14>
    3301:	44 89 c8             	mov    %r9d,%eax
    3304:	41 89 c0             	mov    %eax,%r8d
    3307:	4c 8b bc 24 38 00 00 	mov    0x38(%rsp),%r15
    330e:	00 
    330f:	47 8b 4c 07 04       	mov    0x4(%r15,%r8,1),%r9d
    3314:	41 83 e1 f8          	and    $0xfffffff8,%r9d
    3318:	41 39 d9             	cmp    %ebx,%r9d
    331b:	0f 84 40 04 00 00    	je     3761 <guest_func_8+0x2271>
    3321:	41 89 d0             	mov    %edx,%r8d
    3324:	41 c1 e8 1d          	shr    $0x1d,%r8d
    3328:	c1 e2 01             	shl    $0x1,%edx
    332b:	41 83 e0 04          	and    $0x4,%r8d
    332f:	41 01 c0             	add    %eax,%r8d
    3332:	41 83 c0 10          	add    $0x10,%r8d
    3336:	45 89 c0             	mov    %r8d,%r8d
    3339:	47 8b 0c 07          	mov    (%r15,%r8,1),%r9d
    333d:	45 85 c9             	test   %r9d,%r9d
    3340:	75 bf                	jne    3301 <guest_func_8+0x1e11>
    3342:	43 89 3c 07          	mov    %edi,(%r15,%r8,1)
    3346:	41 89 44 0f 18       	mov    %eax,0x18(%r15,%rcx,1)
    334b:	41 89 7c 0f 0c       	mov    %edi,0xc(%r15,%rcx,1)
    3350:	41 89 7c 0f 08       	mov    %edi,0x8(%r15,%rcx,1)
    3355:	e9 3a 04 00 00       	jmpq   3794 <guest_func_8+0x22a4>
    335a:	ba f8 ff ff ff       	mov    $0xfffffff8,%edx
    335f:	44 8b bc 24 48 00 00 	mov    0x48(%rsp),%r15d
    3366:	00 
    3367:	44 29 fa             	sub    %r15d,%edx
    336a:	83 e2 0f             	and    $0xf,%edx
    336d:	41 83 c7 08          	add    $0x8,%r15d
    3371:	41 83 e7 0f          	and    $0xf,%r15d
    3375:	45 85 ff             	test   %r15d,%r15d
    3378:	0f 85 0b 00 00 00    	jne    3389 <guest_func_8+0x1e99>
    337e:	44 8b bc 24 70 00 00 	mov    0x70(%rsp),%r15d
    3385:	00 
    3386:	44 89 fa             	mov    %r15d,%edx
    3389:	89 d3                	mov    %edx,%ebx
    338b:	44 8b bc 24 48 00 00 	mov    0x48(%rsp),%r15d
    3392:	00 
    3393:	44 01 fb             	add    %r15d,%ebx
    3396:	44 8b bc 24 4c 00 00 	mov    0x4c(%rsp),%r15d
    339d:	00 
    339e:	41 83 c7 c8          	add    $0xffffffc8,%r15d
    33a2:	44 89 ff             	mov    %r15d,%edi
    33a5:	29 d7                	sub    %edx,%edi
    33a7:	89 fa                	mov    %edi,%edx
    33a9:	83 ca 01             	or     $0x1,%edx
    33ac:	41 89 d8             	mov    %ebx,%r8d
    33af:	4c 8b b4 24 38 00 00 	mov    0x38(%rsp),%r14
    33b6:	00 
    33b7:	43 89 54 06 04       	mov    %edx,0x4(%r14,%r8,1)
    33bc:	44 8b b4 24 48 00 00 	mov    0x48(%rsp),%r14d
    33c3:	00 
    33c4:	45 01 f7             	add    %r14d,%r15d
    33c7:	ba 38 00 00 00       	mov    $0x38,%edx
    33cc:	45 89 f8             	mov    %r15d,%r8d
    33cf:	4c 8b bc 24 38 00 00 	mov    0x38(%rsp),%r15
    33d6:	00 
    33d7:	43 89 54 07 04       	mov    %edx,0x4(%r15,%r8,1)
    33dc:	ba 37 00 00 00       	mov    $0x37,%edx
    33e1:	29 f2                	sub    %esi,%edx
    33e3:	83 e2 0f             	and    $0xf,%edx
    33e6:	41 89 f0             	mov    %esi,%r8d
    33e9:	41 83 c0 c9          	add    $0xffffffc9,%r8d
    33ed:	41 83 e0 0f          	and    $0xf,%r8d
    33f1:	45 85 c0             	test   %r8d,%r8d
    33f4:	0f 85 0b 00 00 00    	jne    3405 <guest_func_8+0x1f15>
    33fa:	44 8b bc 24 70 00 00 	mov    0x70(%rsp),%r15d
    3401:	00 
    3402:	44 89 fa             	mov    %r15d,%edx
    3405:	01 f2                	add    %esi,%edx
    3407:	83 c2 c1             	add    $0xffffffc1,%edx
    340a:	41 89 c0             	mov    %eax,%r8d
    340d:	41 83 c0 10          	add    $0x10,%r8d
    3411:	44 39 c2             	cmp    %r8d,%edx
    3414:	0f 82 05 00 00 00    	jb     341f <guest_func_8+0x1f2f>
    341a:	e9 02 00 00 00       	jmpq   3421 <guest_func_8+0x1f31>
    341f:	89 c2                	mov    %eax,%edx
    3421:	41 b8 23 00 00 00    	mov    $0x23,%r8d
    3427:	41 89 d1             	mov    %edx,%r9d
    342a:	4c 8b bc 24 38 00 00 	mov    0x38(%rsp),%r15
    3431:	00 
    3432:	47 89 44 0f 04       	mov    %r8d,0x4(%r15,%r9,1)
    3437:	41 b8 1c 05 00 00    	mov    $0x51c,%r8d
    343d:	41 ba e8 06 00 00    	mov    $0x6e8,%r10d
    3443:	45 89 d2             	mov    %r10d,%r10d
    3446:	47 8b 14 17          	mov    (%r15,%r10,1),%r10d
    344a:	45 89 c0             	mov    %r8d,%r8d
    344d:	47 89 14 07          	mov    %r10d,(%r15,%r8,1)
    3451:	4c 8b b4 24 20 00 00 	mov    0x20(%rsp),%r14
    3458:	00 
    3459:	43 89 3c 37          	mov    %edi,(%r15,%r14,1)
    345d:	4c 8b b4 24 30 00 00 	mov    0x30(%rsp),%r14
    3464:	00 
    3465:	43 89 1c 37          	mov    %ebx,(%r15,%r14,1)
    3469:	89 d3                	mov    %edx,%ebx
    346b:	83 c3 10             	add    $0x10,%ebx
    346e:	bf c8 06 00 00       	mov    $0x6c8,%edi
    3473:	89 ff                	mov    %edi,%edi
    3475:	4d 8b 04 3f          	mov    (%r15,%rdi,1),%r8
    3479:	89 db                	mov    %ebx,%ebx
    347b:	4d 89 04 1f          	mov    %r8,(%r15,%rbx,1)
    347f:	89 c9                	mov    %ecx,%ecx
    3481:	49 8b 1c 0f          	mov    (%r15,%rcx,1),%rbx
    3485:	4b 89 5c 0f 08       	mov    %rbx,0x8(%r15,%r9,1)
    348a:	89 d3                	mov    %edx,%ebx
    348c:	83 c3 08             	add    $0x8,%ebx
    348f:	41 89 1c 3f          	mov    %ebx,(%r15,%rdi,1)
    3493:	bb c4 06 00 00       	mov    $0x6c4,%ebx
    3498:	89 db                	mov    %ebx,%ebx
    349a:	44 8b bc 24 4c 00 00 	mov    0x4c(%rsp),%r15d
    34a1:	00 
    34a2:	4c 8b b4 24 38 00 00 	mov    0x38(%rsp),%r14
    34a9:	00 
    34aa:	45 89 3c 1e          	mov    %r15d,(%r14,%rbx,1)
    34ae:	44 8b bc 24 48 00 00 	mov    0x48(%rsp),%r15d
    34b5:	00 
    34b6:	45 89 3c 0e          	mov    %r15d,(%r14,%rcx,1)
    34ba:	b9 cc 06 00 00       	mov    $0x6cc,%ecx
    34bf:	89 c9                	mov    %ecx,%ecx
    34c1:	44 8b bc 24 70 00 00 	mov    0x70(%rsp),%r15d
    34c8:	00 
    34c9:	45 89 3c 0e          	mov    %r15d,(%r14,%rcx,1)
    34cd:	89 d1                	mov    %edx,%ecx
    34cf:	83 c1 24             	add    $0x24,%ecx
    34d2:	bb 07 00 00 00       	mov    $0x7,%ebx
    34d7:	89 cf                	mov    %ecx,%edi
    34d9:	4c 8b bc 24 38 00 00 	mov    0x38(%rsp),%r15
    34e0:	00 
    34e1:	41 89 1c 3f          	mov    %ebx,(%r15,%rdi,1)
    34e5:	83 c1 04             	add    $0x4,%ecx
    34e8:	39 ce                	cmp    %ecx,%esi
    34ea:	77 eb                	ja     34d7 <guest_func_8+0x1fe7>
    34ec:	39 c2                	cmp    %eax,%edx
    34ee:	0f 84 e6 02 00 00    	je     37da <guest_func_8+0x22ea>
    34f4:	89 d1                	mov    %edx,%ecx
    34f6:	41 8b 5c 0f 04       	mov    0x4(%r15,%rcx,1),%ebx
    34fb:	83 e3 fe             	and    $0xfffffffe,%ebx
    34fe:	41 89 5c 0f 04       	mov    %ebx,0x4(%r15,%rcx,1)
    3503:	29 c2                	sub    %eax,%edx
    3505:	41 89 14 0f          	mov    %edx,(%r15,%rcx,1)
    3509:	b9 01 00 00 00       	mov    $0x1,%ecx
    350e:	89 d3                	mov    %edx,%ebx
    3510:	83 cb 01             	or     $0x1,%ebx
    3513:	89 c6                	mov    %eax,%esi
    3515:	41 89 5c 37 04       	mov    %ebx,0x4(%r15,%rsi,1)
    351a:	81 fa ff 00 00 00    	cmp    $0xff,%edx
    3520:	0f 87 6b 00 00 00    	ja     3591 <guest_func_8+0x20a1>
    3526:	c1 ea 03             	shr    $0x3,%edx
    3529:	89 d3                	mov    %edx,%ebx
    352b:	c1 e3 03             	shl    $0x3,%ebx
    352e:	81 c3 28 05 00 00    	add    $0x528,%ebx
    3534:	bf 00 05 00 00       	mov    $0x500,%edi
    3539:	89 ff                	mov    %edi,%edi
    353b:	45 8b 04 3f          	mov    (%r15,%rdi,1),%r8d
    353f:	41 89 c9             	mov    %ecx,%r9d
    3542:	40 89 d1             	rex mov %edx,%ecx
    3545:	44 89 ca             	mov    %r9d,%edx
    3548:	d3 e2                	shl    %cl,%edx
    354a:	44 89 c1             	mov    %r8d,%ecx
    354d:	21 d1                	and    %edx,%ecx
    354f:	85 c9                	test   %ecx,%ecx
    3551:	0f 85 0e 00 00 00    	jne    3565 <guest_func_8+0x2075>
    3557:	44 09 c2             	or     %r8d,%edx
    355a:	41 89 14 3f          	mov    %edx,(%r15,%rdi,1)
    355e:	89 d9                	mov    %ebx,%ecx
    3560:	e9 07 00 00 00       	jmpq   356c <guest_func_8+0x207c>
    3565:	89 d9                	mov    %ebx,%ecx
    3567:	41 8b 4c 0f 08       	mov    0x8(%r15,%rcx,1),%ecx
    356c:	89 ca                	mov    %ecx,%edx
    356e:	4c 8b bc 24 38 00 00 	mov    0x38(%rsp),%r15
    3575:	00 
    3576:	41 89 44 17 0c       	mov    %eax,0xc(%r15,%rdx,1)
    357b:	89 da                	mov    %ebx,%edx
    357d:	41 89 44 17 08       	mov    %eax,0x8(%r15,%rdx,1)
    3582:	41 89 5c 37 0c       	mov    %ebx,0xc(%r15,%rsi,1)
    3587:	41 89 4c 37 08       	mov    %ecx,0x8(%r15,%rsi,1)
    358c:	e9 49 02 00 00       	jmpq   37da <guest_func_8+0x22ea>
    3591:	31 db                	xor    %ebx,%ebx
    3593:	49 89 5c 37 10       	mov    %rbx,0x10(%r15,%rsi,1)
    3598:	89 c3                	mov    %eax,%ebx
    359a:	83 c3 1c             	add    $0x1c,%ebx
    359d:	89 d7                	mov    %edx,%edi
    359f:	c1 ef 08             	shr    $0x8,%edi
    35a2:	85 ff                	test   %edi,%edi
    35a4:	0f 84 a1 00 00 00    	je     364b <guest_func_8+0x215b>
    35aa:	41 b8 1f 00 00 00    	mov    $0x1f,%r8d
    35b0:	81 fa ff ff ff 00    	cmp    $0xffffff,%edx
    35b6:	0f 87 9c 00 00 00    	ja     3658 <guest_func_8+0x2168>
    35bc:	41 89 f8             	mov    %edi,%r8d
    35bf:	41 81 c0 00 ff 0f 00 	add    $0xfff00,%r8d
    35c6:	41 c1 e8 10          	shr    $0x10,%r8d
    35ca:	41 83 e0 08          	and    $0x8,%r8d
    35ce:	41 89 c9             	mov    %ecx,%r9d
    35d1:	44 89 c1             	mov    %r8d,%ecx
    35d4:	45 89 c8             	mov    %r9d,%r8d
    35d7:	d3 e7                	shl    %cl,%edi
    35d9:	41 89 f9             	mov    %edi,%r9d
    35dc:	41 81 c1 00 f0 07 00 	add    $0x7f000,%r9d
    35e3:	41 c1 e9 10          	shr    $0x10,%r9d
    35e7:	41 83 e1 04          	and    $0x4,%r9d
    35eb:	41 89 ca             	mov    %ecx,%r10d
    35ee:	44 89 c9             	mov    %r9d,%ecx
    35f1:	45 89 d1             	mov    %r10d,%r9d
    35f4:	d3 e7                	shl    %cl,%edi
    35f6:	41 89 fa             	mov    %edi,%r10d
    35f9:	41 81 c2 00 c0 03 00 	add    $0x3c000,%r10d
    3600:	41 c1 ea 10          	shr    $0x10,%r10d
    3604:	41 83 e2 02          	and    $0x2,%r10d
    3608:	41 89 cb             	mov    %ecx,%r11d
    360b:	44 89 d1             	mov    %r10d,%ecx
    360e:	45 89 da             	mov    %r11d,%r10d
    3611:	d3 e7                	shl    %cl,%edi
    3613:	c1 ef 0f             	shr    $0xf,%edi
    3616:	45 09 d1             	or     %r10d,%r9d
    3619:	41 09 c9             	or     %ecx,%r9d
    361c:	44 29 cf             	sub    %r9d,%edi
    361f:	89 f9                	mov    %edi,%ecx
    3621:	c1 e1 01             	shl    $0x1,%ecx
    3624:	83 c7 15             	add    $0x15,%edi
    3627:	41 89 d1             	mov    %edx,%r9d
    362a:	41 89 ca             	mov    %ecx,%r10d
    362d:	40 89 f9             	rex mov %edi,%ecx
    3630:	44 89 d7             	mov    %r10d,%edi
    3633:	41 d3 e9             	shr    %cl,%r9d
    3636:	41 83 e1 01          	and    $0x1,%r9d
    363a:	44 09 cf             	or     %r9d,%edi
    363d:	83 c7 1c             	add    $0x1c,%edi
    3640:	44 89 c1             	mov    %r8d,%ecx
    3643:	41 89 ff             	mov    %edi,%r15d
    3646:	e9 10 00 00 00       	jmpq   365b <guest_func_8+0x216b>
    364b:	44 8b bc 24 70 00 00 	mov    0x70(%rsp),%r15d
    3652:	00 
    3653:	e9 03 00 00 00       	jmpq   365b <guest_func_8+0x216b>
    3658:	45 89 c7             	mov    %r8d,%r15d
    365b:	89 db                	mov    %ebx,%ebx
    365d:	4c 8b b4 24 38 00 00 	mov    0x38(%rsp),%r14
    3664:	00 
    3665:	45 89 3c 1e          	mov    %r15d,(%r14,%rbx,1)
    3669:	44 89 fb             	mov    %r15d,%ebx
    366c:	c1 e3 02             	shl    $0x2,%ebx
    366f:	81 c3 30 06 00 00    	add    $0x630,%ebx
    3675:	bf 04 05 00 00       	mov    $0x504,%edi
    367a:	89 ff                	mov    %edi,%edi
    367c:	45 8b 04 3e          	mov    (%r14,%rdi,1),%r8d
    3680:	41 89 c9             	mov    %ecx,%r9d
    3683:	44 89 f9             	mov    %r15d,%ecx
    3686:	41 d3 e1             	shl    %cl,%r9d
    3689:	45 89 c2             	mov    %r8d,%r10d
    368c:	45 21 ca             	and    %r9d,%r10d
    368f:	41 89 cf             	mov    %ecx,%r15d
    3692:	45 85 d2             	test   %r10d,%r10d
    3695:	0f 85 2a 00 00 00    	jne    36c5 <guest_func_8+0x21d5>
    369b:	89 d9                	mov    %ebx,%ecx
    369d:	4d 89 f7             	mov    %r14,%r15
    36a0:	41 89 04 0f          	mov    %eax,(%r15,%rcx,1)
    36a4:	45 09 c1             	or     %r8d,%r9d
    36a7:	45 89 0c 3f          	mov    %r9d,(%r15,%rdi,1)
    36ab:	89 c1                	mov    %eax,%ecx
    36ad:	83 c1 18             	add    $0x18,%ecx
    36b0:	89 c9                	mov    %ecx,%ecx
    36b2:	41 89 1c 0f          	mov    %ebx,(%r15,%rcx,1)
    36b6:	41 89 44 37 08       	mov    %eax,0x8(%r15,%rsi,1)
    36bb:	41 89 44 37 0c       	mov    %eax,0xc(%r15,%rsi,1)
    36c0:	e9 15 01 00 00       	jmpq   37da <guest_func_8+0x22ea>
    36c5:	b9 19 00 00 00       	mov    $0x19,%ecx
    36ca:	44 89 ff             	mov    %r15d,%edi
    36cd:	c1 ef 01             	shr    $0x1,%edi
    36d0:	29 f9                	sub    %edi,%ecx
    36d2:	41 83 ff 1f          	cmp    $0x1f,%r15d
    36d6:	0f 84 08 00 00 00    	je     36e4 <guest_func_8+0x21f4>
    36dc:	41 89 cf             	mov    %ecx,%r15d
    36df:	e9 08 00 00 00       	jmpq   36ec <guest_func_8+0x21fc>
    36e4:	44 8b bc 24 70 00 00 	mov    0x70(%rsp),%r15d
    36eb:	00 
    36ec:	89 d1                	mov    %edx,%ecx
    36ee:	40 89 cf             	rex mov %ecx,%edi
    36f1:	44 89 f9             	mov    %r15d,%ecx
    36f4:	d3 e7                	shl    %cl,%edi
    36f6:	89 d9                	mov    %ebx,%ecx
    36f8:	4c 8b bc 24 38 00 00 	mov    0x38(%rsp),%r15
    36ff:	00 
    3700:	41 8b 0c 0f          	mov    (%r15,%rcx,1),%ecx
    3704:	e9 03 00 00 00       	jmpq   370c <guest_func_8+0x221c>
    3709:	44 89 c1             	mov    %r8d,%ecx
    370c:	89 cb                	mov    %ecx,%ebx
    370e:	4c 8b bc 24 38 00 00 	mov    0x38(%rsp),%r15
    3715:	00 
    3716:	45 8b 44 1f 04       	mov    0x4(%r15,%rbx,1),%r8d
    371b:	41 83 e0 f8          	and    $0xfffffff8,%r8d
    371f:	41 39 d0             	cmp    %edx,%r8d
    3722:	0f 84 7b 00 00 00    	je     37a3 <guest_func_8+0x22b3>
    3728:	89 fb                	mov    %edi,%ebx
    372a:	c1 eb 1d             	shr    $0x1d,%ebx
    372d:	c1 e7 01             	shl    $0x1,%edi
    3730:	83 e3 04             	and    $0x4,%ebx
    3733:	01 cb                	add    %ecx,%ebx
    3735:	83 c3 10             	add    $0x10,%ebx
    3738:	89 db                	mov    %ebx,%ebx
    373a:	45 8b 04 1f          	mov    (%r15,%rbx,1),%r8d
    373e:	45 85 c0             	test   %r8d,%r8d
    3741:	75 c6                	jne    3709 <guest_func_8+0x2219>
    3743:	41 89 04 1f          	mov    %eax,(%r15,%rbx,1)
    3747:	89 c2                	mov    %eax,%edx
    3749:	83 c2 18             	add    $0x18,%edx
    374c:	89 d2                	mov    %edx,%edx
    374e:	41 89 0c 17          	mov    %ecx,(%r15,%rdx,1)
    3752:	41 89 44 37 0c       	mov    %eax,0xc(%r15,%rsi,1)
    3757:	41 89 44 37 08       	mov    %eax,0x8(%r15,%rsi,1)
    375c:	e9 79 00 00 00       	jmpq   37da <guest_func_8+0x22ea>
    3761:	43 8b 54 07 08       	mov    0x8(%r15,%r8,1),%edx
    3766:	43 89 7c 07 08       	mov    %edi,0x8(%r15,%r8,1)
    376b:	89 d3                	mov    %edx,%ebx
    376d:	41 89 7c 1f 0c       	mov    %edi,0xc(%r15,%rbx,1)
    3772:	44 8b bc 24 70 00 00 	mov    0x70(%rsp),%r15d
    3779:	00 
    377a:	4c 8b b4 24 38 00 00 	mov    0x38(%rsp),%r14
    3781:	00 
    3782:	45 89 7c 0e 18       	mov    %r15d,0x18(%r14,%rcx,1)
    3787:	4d 89 f7             	mov    %r14,%r15
    378a:	41 89 54 0f 08       	mov    %edx,0x8(%r15,%rcx,1)
    378f:	41 89 44 0f 0c       	mov    %eax,0xc(%r15,%rcx,1)
    3794:	83 c6 08             	add    $0x8,%esi
    3797:	89 b4 24 70 00 00 00 	mov    %esi,0x70(%rsp)
    379e:	e9 7a 07 00 00       	jmpq   3f1d <guest_func_8+0x2a2d>
    37a3:	41 8b 54 1f 08       	mov    0x8(%r15,%rbx,1),%edx
    37a8:	41 89 44 1f 08       	mov    %eax,0x8(%r15,%rbx,1)
    37ad:	89 d3                	mov    %edx,%ebx
    37af:	41 89 44 1f 0c       	mov    %eax,0xc(%r15,%rbx,1)
    37b4:	83 c0 18             	add    $0x18,%eax
    37b7:	89 c0                	mov    %eax,%eax
    37b9:	44 8b bc 24 70 00 00 	mov    0x70(%rsp),%r15d
    37c0:	00 
    37c1:	4c 8b b4 24 38 00 00 	mov    0x38(%rsp),%r14
    37c8:	00 
    37c9:	45 89 3c 06          	mov    %r15d,(%r14,%rax,1)
    37cd:	4d 89 f7             	mov    %r14,%r15
    37d0:	41 89 54 37 08       	mov    %edx,0x8(%r15,%rsi,1)
    37d5:	41 89 4c 37 0c       	mov    %ecx,0xc(%r15,%rsi,1)
    37da:	4c 8b bc 24 38 00 00 	mov    0x38(%rsp),%r15
    37e1:	00 
    37e2:	4c 8b b4 24 20 00 00 	mov    0x20(%rsp),%r14
    37e9:	00 
    37ea:	43 8b 04 37          	mov    (%r15,%r14,1),%eax
    37ee:	44 8b bc 24 54 00 00 	mov    0x54(%rsp),%r15d
    37f5:	00 
    37f6:	44 39 f8             	cmp    %r15d,%eax
    37f9:	0f 86 7a 00 00 00    	jbe    3879 <guest_func_8+0x2389>
    37ff:	4c 8b bc 24 38 00 00 	mov    0x38(%rsp),%r15
    3806:	00 
    3807:	4c 8b b4 24 30 00 00 	mov    0x30(%rsp),%r14
    380e:	00 
    380f:	43 8b 0c 37          	mov    (%r15,%r14,1),%ecx
    3813:	89 ca                	mov    %ecx,%edx
    3815:	44 8b bc 24 54 00 00 	mov    0x54(%rsp),%r15d
    381c:	00 
    381d:	44 01 fa             	add    %r15d,%edx
    3820:	44 29 f8             	sub    %r15d,%eax
    3823:	89 c3                	mov    %eax,%ebx
    3825:	83 cb 01             	or     $0x1,%ebx
    3828:	89 d6                	mov    %edx,%esi
    382a:	4c 8b bc 24 38 00 00 	mov    0x38(%rsp),%r15
    3831:	00 
    3832:	41 89 5c 37 04       	mov    %ebx,0x4(%r15,%rsi,1)
    3837:	4c 8b b4 24 20 00 00 	mov    0x20(%rsp),%r14
    383e:	00 
    383f:	43 89 04 37          	mov    %eax,(%r15,%r14,1)
    3843:	4c 8b b4 24 30 00 00 	mov    0x30(%rsp),%r14
    384a:	00 
    384b:	43 89 14 37          	mov    %edx,(%r15,%r14,1)
    384f:	44 8b bc 24 54 00 00 	mov    0x54(%rsp),%r15d
    3856:	00 
    3857:	41 83 cf 03          	or     $0x3,%r15d
    385b:	89 c8                	mov    %ecx,%eax
    385d:	4c 8b b4 24 38 00 00 	mov    0x38(%rsp),%r14
    3864:	00 
    3865:	45 89 7c 06 04       	mov    %r15d,0x4(%r14,%rax,1)
    386a:	83 c1 08             	add    $0x8,%ecx
    386d:	89 8c 24 70 00 00 00 	mov    %ecx,0x70(%rsp)
    3874:	e9 a4 06 00 00       	jmpq   3f1d <guest_func_8+0x2a2d>
    3879:	b8 f0 06 00 00       	mov    $0x6f0,%eax
    387e:	b9 30 00 00 00       	mov    $0x30,%ecx
    3883:	89 c0                	mov    %eax,%eax
    3885:	4c 8b bc 24 38 00 00 	mov    0x38(%rsp),%r15
    388c:	00 
    388d:	41 89 0c 07          	mov    %ecx,(%r15,%rax,1)
    3891:	e9 87 06 00 00       	jmpq   3f1d <guest_func_8+0x2a2d>
    3896:	85 db                	test   %ebx,%ebx
    3898:	0f 84 f0 00 00 00    	je     398e <guest_func_8+0x249e>
    389e:	4c 8b b4 24 38 00 00 	mov    0x38(%rsp),%r14
    38a5:	00 
    38a6:	41 8b 7c 16 1c       	mov    0x1c(%r14,%rdx,1),%edi
    38ab:	41 89 f9             	mov    %edi,%r9d
    38ae:	41 c1 e1 02          	shl    $0x2,%r9d
    38b2:	41 81 c1 30 06 00 00 	add    $0x630,%r9d
    38b9:	45 89 c9             	mov    %r9d,%r9d
    38bc:	47 8b 14 0e          	mov    (%r14,%r9,1),%r10d
    38c0:	44 39 d6             	cmp    %r10d,%esi
    38c3:	0f 85 2e 00 00 00    	jne    38f7 <guest_func_8+0x2407>
    38c9:	47 89 3c 0e          	mov    %r15d,(%r14,%r9,1)
    38cd:	45 85 ff             	test   %r15d,%r15d
    38d0:	0f 85 61 00 00 00    	jne    3937 <guest_func_8+0x2447>
    38d6:	ba fe ff ff ff       	mov    $0xfffffffe,%edx
    38db:	48 89 cb             	mov    %rcx,%rbx
    38de:	40 89 f9             	rex mov %edi,%ecx
    38e1:	d3 c2                	rol    %cl,%edx
    38e3:	21 c2                	and    %eax,%edx
    38e5:	4d 89 f7             	mov    %r14,%r15
    38e8:	41 89 14 1f          	mov    %edx,(%r15,%rbx,1)
    38ec:	48 89 d9             	mov    %rbx,%rcx
    38ef:	40 89 d0             	rex mov %edx,%eax
    38f2:	e9 97 00 00 00       	jmpq   398e <guest_func_8+0x249e>
    38f7:	bf 14 00 00 00       	mov    $0x14,%edi
    38fc:	41 89 d9             	mov    %ebx,%r9d
    38ff:	47 8b 4c 0e 10       	mov    0x10(%r14,%r9,1),%r9d
    3904:	41 39 f1             	cmp    %esi,%r9d
    3907:	0f 84 07 00 00 00    	je     3914 <guest_func_8+0x2424>
    390d:	89 bc 24 68 00 00 00 	mov    %edi,0x68(%rsp)
    3914:	44 8b b4 24 68 00 00 	mov    0x68(%rsp),%r14d
    391b:	00 
    391c:	41 01 de             	add    %ebx,%r14d
    391f:	44 89 f7             	mov    %r14d,%edi
    3922:	4c 8b b4 24 38 00 00 	mov    0x38(%rsp),%r14
    3929:	00 
    392a:	45 89 3c 3e          	mov    %r15d,(%r14,%rdi,1)
    392e:	45 85 ff             	test   %r15d,%r15d
    3931:	0f 84 57 00 00 00    	je     398e <guest_func_8+0x249e>
    3937:	44 89 ff             	mov    %r15d,%edi
    393a:	4c 8b b4 24 38 00 00 	mov    0x38(%rsp),%r14
    3941:	00 
    3942:	41 89 5c 3e 18       	mov    %ebx,0x18(%r14,%rdi,1)
    3947:	41 8b 54 16 10       	mov    0x10(%r14,%rdx,1),%edx
    394c:	85 d2                	test   %edx,%edx
    394e:	0f 84 0c 00 00 00    	je     3960 <guest_func_8+0x2470>
    3954:	41 89 54 3e 10       	mov    %edx,0x10(%r14,%rdi,1)
    3959:	89 d2                	mov    %edx,%edx
    395b:	45 89 7c 16 18       	mov    %r15d,0x18(%r14,%rdx,1)
    3960:	89 f2                	mov    %esi,%edx
    3962:	83 c2 14             	add    $0x14,%edx
    3965:	89 d2                	mov    %edx,%edx
    3967:	4c 8b b4 24 38 00 00 	mov    0x38(%rsp),%r14
    396e:	00 
    396f:	41 8b 14 16          	mov    (%r14,%rdx,1),%edx
    3973:	85 d2                	test   %edx,%edx
    3975:	0f 84 13 00 00 00    	je     398e <guest_func_8+0x249e>
    397b:	44 89 fb             	mov    %r15d,%ebx
    397e:	83 c3 14             	add    $0x14,%ebx
    3981:	89 db                	mov    %ebx,%ebx
    3983:	41 89 14 1e          	mov    %edx,(%r14,%rbx,1)
    3987:	89 d2                	mov    %edx,%edx
    3989:	45 89 7c 16 18       	mov    %r15d,0x18(%r14,%rdx,1)
    398e:	41 83 f8 0f          	cmp    $0xf,%r8d
    3992:	0f 87 38 00 00 00    	ja     39d0 <guest_func_8+0x24e0>
    3998:	44 8b bc 24 54 00 00 	mov    0x54(%rsp),%r15d
    399f:	00 
    39a0:	45 01 f8             	add    %r15d,%r8d
    39a3:	44 89 c0             	mov    %r8d,%eax
    39a6:	83 c8 03             	or     $0x3,%eax
    39a9:	89 f1                	mov    %esi,%ecx
    39ab:	4c 8b bc 24 38 00 00 	mov    0x38(%rsp),%r15
    39b2:	00 
    39b3:	41 89 44 0f 04       	mov    %eax,0x4(%r15,%rcx,1)
    39b8:	41 01 f0             	add    %esi,%r8d
    39bb:	44 89 c0             	mov    %r8d,%eax
    39be:	41 8b 4c 07 04       	mov    0x4(%r15,%rax,1),%ecx
    39c3:	83 c9 01             	or     $0x1,%ecx
    39c6:	41 89 4c 07 04       	mov    %ecx,0x4(%r15,%rax,1)
    39cb:	e9 b5 02 00 00       	jmpq   3c85 <guest_func_8+0x2795>
    39d0:	89 f2                	mov    %esi,%edx
    39d2:	44 8b bc 24 54 00 00 	mov    0x54(%rsp),%r15d
    39d9:	00 
    39da:	44 01 fa             	add    %r15d,%edx
    39dd:	bb 01 00 00 00       	mov    $0x1,%ebx
    39e2:	44 89 c7             	mov    %r8d,%edi
    39e5:	83 cf 01             	or     $0x1,%edi
    39e8:	41 89 d1             	mov    %edx,%r9d
    39eb:	4c 8b bc 24 38 00 00 	mov    0x38(%rsp),%r15
    39f2:	00 
    39f3:	43 89 7c 0f 04       	mov    %edi,0x4(%r15,%r9,1)
    39f8:	44 8b bc 24 54 00 00 	mov    0x54(%rsp),%r15d
    39ff:	00 
    3a00:	41 83 cf 03          	or     $0x3,%r15d
    3a04:	89 f7                	mov    %esi,%edi
    3a06:	4c 8b b4 24 38 00 00 	mov    0x38(%rsp),%r14
    3a0d:	00 
    3a0e:	45 89 7c 3e 04       	mov    %r15d,0x4(%r14,%rdi,1)
    3a13:	44 89 c7             	mov    %r8d,%edi
    3a16:	01 d7                	add    %edx,%edi
    3a18:	89 ff                	mov    %edi,%edi
    3a1a:	4d 89 f7             	mov    %r14,%r15
    3a1d:	45 89 04 3f          	mov    %r8d,(%r15,%rdi,1)
    3a21:	41 81 f8 ff 00 00 00 	cmp    $0xff,%r8d
    3a28:	0f 87 71 00 00 00    	ja     3a9f <guest_func_8+0x25af>
    3a2e:	41 c1 e8 03          	shr    $0x3,%r8d
    3a32:	44 89 c0             	mov    %r8d,%eax
    3a35:	c1 e0 03             	shl    $0x3,%eax
    3a38:	81 c0 28 05 00 00    	add    $0x528,%eax
    3a3e:	b9 00 05 00 00       	mov    $0x500,%ecx
    3a43:	89 c9                	mov    %ecx,%ecx
    3a45:	41 8b 3c 0f          	mov    (%r15,%rcx,1),%edi
    3a49:	49 89 ca             	mov    %rcx,%r10
    3a4c:	44 89 c1             	mov    %r8d,%ecx
    3a4f:	41 89 d8             	mov    %ebx,%r8d
    3a52:	4c 89 d3             	mov    %r10,%rbx
    3a55:	41 d3 e0             	shl    %cl,%r8d
    3a58:	89 f9                	mov    %edi,%ecx
    3a5a:	44 21 c1             	and    %r8d,%ecx
    3a5d:	85 c9                	test   %ecx,%ecx
    3a5f:	0f 85 0e 00 00 00    	jne    3a73 <guest_func_8+0x2583>
    3a65:	41 09 f8             	or     %edi,%r8d
    3a68:	45 89 04 1f          	mov    %r8d,(%r15,%rbx,1)
    3a6c:	89 c1                	mov    %eax,%ecx
    3a6e:	e9 07 00 00 00       	jmpq   3a7a <guest_func_8+0x258a>
    3a73:	89 c1                	mov    %eax,%ecx
    3a75:	41 8b 4c 0f 08       	mov    0x8(%r15,%rcx,1),%ecx
    3a7a:	89 cb                	mov    %ecx,%ebx
    3a7c:	4c 8b bc 24 38 00 00 	mov    0x38(%rsp),%r15
    3a83:	00 
    3a84:	41 89 54 1f 0c       	mov    %edx,0xc(%r15,%rbx,1)
    3a89:	89 c3                	mov    %eax,%ebx
    3a8b:	41 89 54 1f 08       	mov    %edx,0x8(%r15,%rbx,1)
    3a90:	43 89 44 0f 0c       	mov    %eax,0xc(%r15,%r9,1)
    3a95:	43 89 4c 0f 08       	mov    %ecx,0x8(%r15,%r9,1)
    3a9a:	e9 e6 01 00 00       	jmpq   3c85 <guest_func_8+0x2795>
    3a9f:	44 89 c7             	mov    %r8d,%edi
    3aa2:	c1 ef 08             	shr    $0x8,%edi
    3aa5:	85 ff                	test   %edi,%edi
    3aa7:	0f 84 a2 00 00 00    	je     3b4f <guest_func_8+0x265f>
    3aad:	41 ba 1f 00 00 00    	mov    $0x1f,%r10d
    3ab3:	41 81 f8 ff ff ff 00 	cmp    $0xffffff,%r8d
    3aba:	0f 87 9c 00 00 00    	ja     3b5c <guest_func_8+0x266c>
    3ac0:	41 89 fa             	mov    %edi,%r10d
    3ac3:	41 81 c2 00 ff 0f 00 	add    $0xfff00,%r10d
    3aca:	41 c1 ea 10          	shr    $0x10,%r10d
    3ace:	41 83 e2 08          	and    $0x8,%r10d
    3ad2:	49 89 cb             	mov    %rcx,%r11
    3ad5:	44 89 d1             	mov    %r10d,%ecx
    3ad8:	4d 89 da             	mov    %r11,%r10
    3adb:	d3 e7                	shl    %cl,%edi
    3add:	41 89 fb             	mov    %edi,%r11d
    3ae0:	41 81 c3 00 f0 07 00 	add    $0x7f000,%r11d
    3ae7:	41 c1 eb 10          	shr    $0x10,%r11d
    3aeb:	41 83 e3 04          	and    $0x4,%r11d
    3aef:	41 89 cc             	mov    %ecx,%r12d
    3af2:	44 89 d9             	mov    %r11d,%ecx
    3af5:	45 89 e3             	mov    %r12d,%r11d
    3af8:	d3 e7                	shl    %cl,%edi
    3afa:	41 89 fc             	mov    %edi,%r12d
    3afd:	41 81 c4 00 c0 03 00 	add    $0x3c000,%r12d
    3b04:	41 c1 ec 10          	shr    $0x10,%r12d
    3b08:	41 83 e4 02          	and    $0x2,%r12d
    3b0c:	41 89 cd             	mov    %ecx,%r13d
    3b0f:	44 89 e1             	mov    %r12d,%ecx
    3b12:	45 89 ec             	mov    %r13d,%r12d
    3b15:	d3 e7                	shl    %cl,%edi
    3b17:	c1 ef 0f             	shr    $0xf,%edi
    3b1a:	45 09 e3             	or     %r12d,%r11d
    3b1d:	41 09 cb             	or     %ecx,%r11d
    3b20:	44 29 df             	sub    %r11d,%edi
    3b23:	89 f9                	mov    %edi,%ecx
    3b25:	c1 e1 01             	shl    $0x1,%ecx
    3b28:	83 c7 15             	add    $0x15,%edi
    3b2b:	45 89 c3             	mov    %r8d,%r11d
    3b2e:	41 89 cc             	mov    %ecx,%r12d
    3b31:	40 89 f9             	rex mov %edi,%ecx
    3b34:	44 89 e7             	mov    %r12d,%edi
    3b37:	41 d3 eb             	shr    %cl,%r11d
    3b3a:	41 83 e3 01          	and    $0x1,%r11d
    3b3e:	44 09 df             	or     %r11d,%edi
    3b41:	83 c7 1c             	add    $0x1c,%edi
    3b44:	4c 89 d1             	mov    %r10,%rcx
    3b47:	41 89 ff             	mov    %edi,%r15d
    3b4a:	e9 10 00 00 00       	jmpq   3b5f <guest_func_8+0x266f>
    3b4f:	44 8b bc 24 70 00 00 	mov    0x70(%rsp),%r15d
    3b56:	00 
    3b57:	e9 03 00 00 00       	jmpq   3b5f <guest_func_8+0x266f>
    3b5c:	45 89 d7             	mov    %r10d,%r15d
    3b5f:	4c 8b b4 24 38 00 00 	mov    0x38(%rsp),%r14
    3b66:	00 
    3b67:	47 89 7c 0e 1c       	mov    %r15d,0x1c(%r14,%r9,1)
    3b6c:	31 ff                	xor    %edi,%edi
    3b6e:	4b 89 7c 0e 10       	mov    %rdi,0x10(%r14,%r9,1)
    3b73:	44 89 ff             	mov    %r15d,%edi
    3b76:	c1 e7 02             	shl    $0x2,%edi
    3b79:	81 c7 30 06 00 00    	add    $0x630,%edi
    3b7f:	41 89 da             	mov    %ebx,%r10d
    3b82:	48 89 cb             	mov    %rcx,%rbx
    3b85:	44 89 f9             	mov    %r15d,%ecx
    3b88:	41 d3 e2             	shl    %cl,%r10d
    3b8b:	45 89 d3             	mov    %r10d,%r11d
    3b8e:	41 21 c3             	and    %eax,%r11d
    3b91:	41 89 cf             	mov    %ecx,%r15d
    3b94:	45 85 db             	test   %r11d,%r11d
    3b97:	0f 85 24 00 00 00    	jne    3bc1 <guest_func_8+0x26d1>
    3b9d:	89 f9                	mov    %edi,%ecx
    3b9f:	4d 89 f7             	mov    %r14,%r15
    3ba2:	41 89 14 0f          	mov    %edx,(%r15,%rcx,1)
    3ba6:	41 09 c2             	or     %eax,%r10d
    3ba9:	45 89 14 1f          	mov    %r10d,(%r15,%rbx,1)
    3bad:	43 89 7c 0f 18       	mov    %edi,0x18(%r15,%r9,1)
    3bb2:	43 89 54 0f 08       	mov    %edx,0x8(%r15,%r9,1)
    3bb7:	43 89 54 0f 0c       	mov    %edx,0xc(%r15,%r9,1)
    3bbc:	e9 c4 00 00 00       	jmpq   3c85 <guest_func_8+0x2795>
    3bc1:	b8 19 00 00 00       	mov    $0x19,%eax
    3bc6:	44 89 f9             	mov    %r15d,%ecx
    3bc9:	c1 e9 01             	shr    $0x1,%ecx
    3bcc:	29 c8                	sub    %ecx,%eax
    3bce:	41 83 ff 1f          	cmp    $0x1f,%r15d
    3bd2:	0f 84 08 00 00 00    	je     3be0 <guest_func_8+0x26f0>
    3bd8:	41 89 c7             	mov    %eax,%r15d
    3bdb:	e9 08 00 00 00       	jmpq   3be8 <guest_func_8+0x26f8>
    3be0:	44 8b bc 24 70 00 00 	mov    0x70(%rsp),%r15d
    3be7:	00 
    3be8:	44 89 c0             	mov    %r8d,%eax
    3beb:	44 89 f9             	mov    %r15d,%ecx
    3bee:	d3 e0                	shl    %cl,%eax
    3bf0:	89 f9                	mov    %edi,%ecx
    3bf2:	4c 8b bc 24 38 00 00 	mov    0x38(%rsp),%r15
    3bf9:	00 
    3bfa:	41 8b 0c 0f          	mov    (%r15,%rcx,1),%ecx
    3bfe:	e9 02 00 00 00       	jmpq   3c05 <guest_func_8+0x2715>
    3c03:	89 f9                	mov    %edi,%ecx
    3c05:	89 cb                	mov    %ecx,%ebx
    3c07:	4c 8b bc 24 38 00 00 	mov    0x38(%rsp),%r15
    3c0e:	00 
    3c0f:	41 8b 7c 1f 04       	mov    0x4(%r15,%rbx,1),%edi
    3c14:	83 e7 f8             	and    $0xfffffff8,%edi
    3c17:	44 39 c7             	cmp    %r8d,%edi
    3c1a:	0f 84 32 00 00 00    	je     3c52 <guest_func_8+0x2762>
    3c20:	89 c3                	mov    %eax,%ebx
    3c22:	c1 eb 1d             	shr    $0x1d,%ebx
    3c25:	c1 e0 01             	shl    $0x1,%eax
    3c28:	83 e3 04             	and    $0x4,%ebx
    3c2b:	01 cb                	add    %ecx,%ebx
    3c2d:	83 c3 10             	add    $0x10,%ebx
    3c30:	89 db                	mov    %ebx,%ebx
    3c32:	41 8b 3c 1f          	mov    (%r15,%rbx,1),%edi
    3c36:	85 ff                	test   %edi,%edi
    3c38:	75 c9                	jne    3c03 <guest_func_8+0x2713>
    3c3a:	41 89 14 1f          	mov    %edx,(%r15,%rbx,1)
    3c3e:	43 89 4c 0f 18       	mov    %ecx,0x18(%r15,%r9,1)
    3c43:	43 89 54 0f 0c       	mov    %edx,0xc(%r15,%r9,1)
    3c48:	43 89 54 0f 08       	mov    %edx,0x8(%r15,%r9,1)
    3c4d:	e9 33 00 00 00       	jmpq   3c85 <guest_func_8+0x2795>
    3c52:	41 8b 44 1f 08       	mov    0x8(%r15,%rbx,1),%eax
    3c57:	41 89 54 1f 08       	mov    %edx,0x8(%r15,%rbx,1)
    3c5c:	89 c3                	mov    %eax,%ebx
    3c5e:	41 89 54 1f 0c       	mov    %edx,0xc(%r15,%rbx,1)
    3c63:	44 8b bc 24 70 00 00 	mov    0x70(%rsp),%r15d
    3c6a:	00 
    3c6b:	4c 8b b4 24 38 00 00 	mov    0x38(%rsp),%r14
    3c72:	00 
    3c73:	47 89 7c 0e 18       	mov    %r15d,0x18(%r14,%r9,1)
    3c78:	4d 89 f7             	mov    %r14,%r15
    3c7b:	43 89 44 0f 08       	mov    %eax,0x8(%r15,%r9,1)
    3c80:	43 89 4c 0f 0c       	mov    %ecx,0xc(%r15,%r9,1)
    3c85:	83 c6 08             	add    $0x8,%esi
    3c88:	89 b4 24 70 00 00 00 	mov    %esi,0x70(%rsp)
    3c8f:	e9 89 02 00 00       	jmpq   3f1d <guest_func_8+0x2a2d>
    3c94:	45 85 c9             	test   %r9d,%r9d
    3c97:	0f 84 34 01 00 00    	je     3dd1 <guest_func_8+0x28e1>
    3c9d:	4c 8b bc 24 38 00 00 	mov    0x38(%rsp),%r15
    3ca4:	00 
    3ca5:	47 8b 54 07 1c       	mov    0x1c(%r15,%r8,1),%r10d
    3caa:	45 89 d3             	mov    %r10d,%r11d
    3cad:	41 c1 e3 02          	shl    $0x2,%r11d
    3cb1:	41 81 c3 30 06 00 00 	add    $0x630,%r11d
    3cb8:	45 89 db             	mov    %r11d,%r11d
    3cbb:	47 8b 24 1f          	mov    (%r15,%r11,1),%r12d
    3cbf:	44 39 e2             	cmp    %r12d,%edx
    3cc2:	0f 85 39 00 00 00    	jne    3d01 <guest_func_8+0x2811>
    3cc8:	44 8b bc 24 70 00 00 	mov    0x70(%rsp),%r15d
    3ccf:	00 
    3cd0:	4c 8b b4 24 38 00 00 	mov    0x38(%rsp),%r14
    3cd7:	00 
    3cd8:	47 89 3c 1e          	mov    %r15d,(%r14,%r11,1)
    3cdc:	45 85 ff             	test   %r15d,%r15d
    3cdf:	0f 85 5e 00 00 00    	jne    3d43 <guest_func_8+0x2853>
    3ce5:	be fe ff ff ff       	mov    $0xfffffffe,%esi
    3cea:	41 89 c8             	mov    %ecx,%r8d
    3ced:	44 89 d1             	mov    %r10d,%ecx
    3cf0:	d3 c6                	rol    %cl,%esi
    3cf2:	44 21 c6             	and    %r8d,%esi
    3cf5:	4d 89 f7             	mov    %r14,%r15
    3cf8:	41 89 34 07          	mov    %esi,(%r15,%rax,1)
    3cfc:	e9 d0 00 00 00       	jmpq   3dd1 <guest_func_8+0x28e1>
    3d01:	44 89 c8             	mov    %r9d,%eax
    3d04:	41 8b 44 07 10       	mov    0x10(%r15,%rax,1),%eax
    3d09:	39 d0                	cmp    %edx,%eax
    3d0b:	0f 84 07 00 00 00    	je     3d18 <guest_func_8+0x2828>
    3d11:	89 b4 24 68 00 00 00 	mov    %esi,0x68(%rsp)
    3d18:	44 8b bc 24 68 00 00 	mov    0x68(%rsp),%r15d
    3d1f:	00 
    3d20:	45 01 cf             	add    %r9d,%r15d
    3d23:	44 89 f8             	mov    %r15d,%eax
    3d26:	44 8b bc 24 70 00 00 	mov    0x70(%rsp),%r15d
    3d2d:	00 
    3d2e:	4c 8b b4 24 38 00 00 	mov    0x38(%rsp),%r14
    3d35:	00 
    3d36:	45 89 3c 06          	mov    %r15d,(%r14,%rax,1)
    3d3a:	45 85 ff             	test   %r15d,%r15d
    3d3d:	0f 84 8e 00 00 00    	je     3dd1 <guest_func_8+0x28e1>
    3d43:	44 8b bc 24 70 00 00 	mov    0x70(%rsp),%r15d
    3d4a:	00 
    3d4b:	44 89 f8             	mov    %r15d,%eax
    3d4e:	4c 8b bc 24 38 00 00 	mov    0x38(%rsp),%r15
    3d55:	00 
    3d56:	45 89 4c 07 18       	mov    %r9d,0x18(%r15,%rax,1)
    3d5b:	43 8b 4c 07 10       	mov    0x10(%r15,%r8,1),%ecx
    3d60:	85 c9                	test   %ecx,%ecx
    3d62:	0f 84 1c 00 00 00    	je     3d84 <guest_func_8+0x2894>
    3d68:	41 89 4c 07 10       	mov    %ecx,0x10(%r15,%rax,1)
    3d6d:	89 c8                	mov    %ecx,%eax
    3d6f:	44 8b bc 24 70 00 00 	mov    0x70(%rsp),%r15d
    3d76:	00 
    3d77:	4c 8b b4 24 38 00 00 	mov    0x38(%rsp),%r14
    3d7e:	00 
    3d7f:	45 89 7c 06 18       	mov    %r15d,0x18(%r14,%rax,1)
    3d84:	89 d0                	mov    %edx,%eax
    3d86:	83 c0 14             	add    $0x14,%eax
    3d89:	89 c0                	mov    %eax,%eax
    3d8b:	4c 8b bc 24 38 00 00 	mov    0x38(%rsp),%r15
    3d92:	00 
    3d93:	41 8b 04 07          	mov    (%r15,%rax,1),%eax
    3d97:	85 c0                	test   %eax,%eax
    3d99:	0f 84 32 00 00 00    	je     3dd1 <guest_func_8+0x28e1>
    3d9f:	44 8b bc 24 70 00 00 	mov    0x70(%rsp),%r15d
    3da6:	00 
    3da7:	41 83 c7 14          	add    $0x14,%r15d
    3dab:	44 89 f9             	mov    %r15d,%ecx
    3dae:	4c 8b bc 24 38 00 00 	mov    0x38(%rsp),%r15
    3db5:	00 
    3db6:	41 89 04 0f          	mov    %eax,(%r15,%rcx,1)
    3dba:	89 c0                	mov    %eax,%eax
    3dbc:	44 8b bc 24 70 00 00 	mov    0x70(%rsp),%r15d
    3dc3:	00 
    3dc4:	4c 8b b4 24 38 00 00 	mov    0x38(%rsp),%r14
    3dcb:	00 
    3dcc:	45 89 7c 06 18       	mov    %r15d,0x18(%r14,%rax,1)
    3dd1:	83 fb 0f             	cmp    $0xf,%ebx
    3dd4:	0f 87 35 00 00 00    	ja     3e0f <guest_func_8+0x291f>
    3dda:	44 8b bc 24 54 00 00 	mov    0x54(%rsp),%r15d
    3de1:	00 
    3de2:	44 01 fb             	add    %r15d,%ebx
    3de5:	89 d8                	mov    %ebx,%eax
    3de7:	83 c8 03             	or     $0x3,%eax
    3dea:	89 d1                	mov    %edx,%ecx
    3dec:	4c 8b bc 24 38 00 00 	mov    0x38(%rsp),%r15
    3df3:	00 
    3df4:	41 89 44 0f 04       	mov    %eax,0x4(%r15,%rcx,1)
    3df9:	01 d3                	add    %edx,%ebx
    3dfb:	89 d8                	mov    %ebx,%eax
    3dfd:	41 8b 4c 07 04       	mov    0x4(%r15,%rax,1),%ecx
    3e02:	83 c9 01             	or     $0x1,%ecx
    3e05:	41 89 4c 07 04       	mov    %ecx,0x4(%r15,%rax,1)
    3e0a:	e9 04 01 00 00       	jmpq   3f13 <guest_func_8+0x2a23>
    3e0f:	89 d0                	mov    %edx,%eax
    3e11:	44 8b bc 24 54 00 00 	mov    0x54(%rsp),%r15d
    3e18:	00 
    3e19:	44 01 f8             	add    %r15d,%eax
    3e1c:	89 d9                	mov    %ebx,%ecx
    3e1e:	83 c9 01             	or     $0x1,%ecx
    3e21:	89 c6                	mov    %eax,%esi
    3e23:	4c 8b bc 24 38 00 00 	mov    0x38(%rsp),%r15
    3e2a:	00 
    3e2b:	41 89 4c 37 04       	mov    %ecx,0x4(%r15,%rsi,1)
    3e30:	44 8b bc 24 54 00 00 	mov    0x54(%rsp),%r15d
    3e37:	00 
    3e38:	41 83 cf 03          	or     $0x3,%r15d
    3e3c:	89 d1                	mov    %edx,%ecx
    3e3e:	4c 8b b4 24 38 00 00 	mov    0x38(%rsp),%r14
    3e45:	00 
    3e46:	45 89 7c 0e 04       	mov    %r15d,0x4(%r14,%rcx,1)
    3e4b:	89 d9                	mov    %ebx,%ecx
    3e4d:	01 c1                	add    %eax,%ecx
    3e4f:	89 c9                	mov    %ecx,%ecx
    3e51:	4d 89 f7             	mov    %r14,%r15
    3e54:	41 89 1c 0f          	mov    %ebx,(%r15,%rcx,1)
    3e58:	44 8b bc 24 5c 00 00 	mov    0x5c(%rsp),%r15d
    3e5f:	00 
    3e60:	45 85 ff             	test   %r15d,%r15d
    3e63:	0f 84 8c 00 00 00    	je     3ef5 <guest_func_8+0x2a05>
    3e69:	41 c1 ef 03          	shr    $0x3,%r15d
    3e6d:	44 89 f9             	mov    %r15d,%ecx
    3e70:	c1 e1 03             	shl    $0x3,%ecx
    3e73:	81 c1 28 05 00 00    	add    $0x528,%ecx
    3e79:	be 14 05 00 00       	mov    $0x514,%esi
    3e7e:	89 f6                	mov    %esi,%esi
    3e80:	41 8b 34 36          	mov    (%r14,%rsi,1),%esi
    3e84:	41 89 f8             	mov    %edi,%r8d
    3e87:	40 89 cf             	rex mov %ecx,%edi
    3e8a:	44 89 f9             	mov    %r15d,%ecx
    3e8d:	41 d3 e0             	shl    %cl,%r8d
    3e90:	44 89 c1             	mov    %r8d,%ecx
    3e93:	44 8b bc 24 60 00 00 	mov    0x60(%rsp),%r15d
    3e9a:	00 
    3e9b:	44 21 f9             	and    %r15d,%ecx
    3e9e:	41 89 c9             	mov    %ecx,%r9d
    3ea1:	40 89 f9             	rex mov %edi,%ecx
    3ea4:	44 89 cf             	mov    %r9d,%edi
    3ea7:	85 ff                	test   %edi,%edi
    3ea9:	0f 85 18 00 00 00    	jne    3ec7 <guest_func_8+0x29d7>
    3eaf:	bf 00 05 00 00       	mov    $0x500,%edi
    3eb4:	45 09 f8             	or     %r15d,%r8d
    3eb7:	89 ff                	mov    %edi,%edi
    3eb9:	4d 89 f7             	mov    %r14,%r15
    3ebc:	45 89 04 3f          	mov    %r8d,(%r15,%rdi,1)
    3ec0:	89 cf                	mov    %ecx,%edi
    3ec2:	e9 0a 00 00 00       	jmpq   3ed1 <guest_func_8+0x29e1>
    3ec7:	89 cf                	mov    %ecx,%edi
    3ec9:	4d 89 f7             	mov    %r14,%r15
    3ecc:	41 8b 7c 3f 08       	mov    0x8(%r15,%rdi,1),%edi
    3ed1:	41 89 f8             	mov    %edi,%r8d
    3ed4:	4c 8b bc 24 38 00 00 	mov    0x38(%rsp),%r15
    3edb:	00 
    3edc:	43 89 74 07 0c       	mov    %esi,0xc(%r15,%r8,1)
    3ee1:	41 89 c8             	mov    %ecx,%r8d
    3ee4:	43 89 74 07 08       	mov    %esi,0x8(%r15,%r8,1)
    3ee9:	89 f6                	mov    %esi,%esi
    3eeb:	41 89 4c 37 0c       	mov    %ecx,0xc(%r15,%rsi,1)
    3ef0:	41 89 7c 37 08       	mov    %edi,0x8(%r15,%rsi,1)
    3ef5:	b9 14 05 00 00       	mov    $0x514,%ecx
    3efa:	89 c9                	mov    %ecx,%ecx
    3efc:	4c 8b bc 24 38 00 00 	mov    0x38(%rsp),%r15
    3f03:	00 
    3f04:	41 89 04 0f          	mov    %eax,(%r15,%rcx,1)
    3f08:	b8 08 05 00 00       	mov    $0x508,%eax
    3f0d:	89 c0                	mov    %eax,%eax
    3f0f:	41 89 1c 07          	mov    %ebx,(%r15,%rax,1)
    3f13:	83 c2 08             	add    $0x8,%edx
    3f16:	89 94 24 70 00 00 00 	mov    %edx,0x70(%rsp)
    3f1d:	44 8b bc 24 64 00 00 	mov    0x64(%rsp),%r15d
    3f24:	00 
    3f25:	41 83 c7 10          	add    $0x10,%r15d
    3f29:	4c 8b b4 24 38 00 00 	mov    0x38(%rsp),%r14
    3f30:	00 
    3f31:	49 8b 46 f0          	mov    -0x10(%r14),%rax
    3f35:	44 89 38             	mov    %r15d,(%rax)
    3f38:	44 8b bc 24 70 00 00 	mov    0x70(%rsp),%r15d
    3f3f:	00 
    3f40:	44 89 f8             	mov    %r15d,%eax
    3f43:	48 83 c4 78          	add    $0x78,%rsp
    3f47:	41 5f                	pop    %r15
    3f49:	41 5e                	pop    %r14
    3f4b:	41 5d                	pop    %r13
    3f4d:	41 5c                	pop    %r12
    3f4f:	5b                   	pop    %rbx
    3f50:	5d                   	pop    %rbp
    3f51:	c3                   	retq   
	...

0000000000003f60 <guest_func___main_argc_argv>:
    3f60:	55                   	push   %rbp
    3f61:	48 89 e5             	mov    %rsp,%rbp
    3f64:	41 54                	push   %r12
    3f66:	41 55                	push   %r13
    3f68:	41 56                	push   %r14
    3f6a:	41 57                	push   %r15
    3f6c:	48 83 ec 40          	sub    $0x40,%rsp
    3f70:	48 89 bc 24 10 00 00 	mov    %rdi,0x10(%rsp)
    3f77:	00 
    3f78:	89 94 24 3c 00 00 00 	mov    %edx,0x3c(%rsp)
    3f7f:	31 c0                	xor    %eax,%eax
    3f81:	89 84 24 38 00 00 00 	mov    %eax,0x38(%rsp)
    3f88:	49 89 ff             	mov    %rdi,%r15
    3f8b:	49 8b 47 f0          	mov    -0x10(%r15),%rax
    3f8f:	8b 00                	mov    (%rax),%eax
    3f91:	89 84 24 34 00 00 00 	mov    %eax,0x34(%rsp)
    3f98:	41 89 c7             	mov    %eax,%r15d
    3f9b:	41 81 c7 10 fa ff ff 	add    $0xfffffa10,%r15d
    3fa2:	44 89 bc 24 30 00 00 	mov    %r15d,0x30(%rsp)
    3fa9:	00 
    3faa:	49 89 ff             	mov    %rdi,%r15
    3fad:	49 8b 47 f0          	mov    -0x10(%r15),%rax
    3fb1:	44 8b bc 24 30 00 00 	mov    0x30(%rsp),%r15d
    3fb8:	00 
    3fb9:	44 89 38             	mov    %r15d,(%rax)
    3fbc:	b8 20 00 00 00       	mov    $0x20,%eax
    3fc1:	89 84 24 2c 00 00 00 	mov    %eax,0x2c(%rsp)
    3fc8:	b8 01 00 00 00       	mov    $0x1,%eax
    3fcd:	49 89 ff             	mov    %rdi,%r15
    3fd0:	44 8b b4 24 2c 00 00 	mov    0x2c(%rsp),%r14d
    3fd7:	00 
    3fd8:	4c 89 ff             	mov    %r15,%rdi
    3fdb:	44 89 f6             	mov    %r14d,%esi
    3fde:	40 89 c2             	rex mov %eax,%edx
    3fe1:	e8 ba 24 00 00       	callq  64a0 <guest_func_calloc>
    3fe6:	89 84 24 24 00 00 00 	mov    %eax,0x24(%rsp)
    3fed:	b8 00 02 00 00       	mov    $0x200,%eax
    3ff2:	89 84 24 28 00 00 00 	mov    %eax,0x28(%rsp)
    3ff9:	44 8b bc 24 34 00 00 	mov    0x34(%rsp),%r15d
    4000:	00 
    4001:	41 81 c7 10 fc ff ff 	add    $0xfffffc10,%r15d
    4008:	44 8b b4 24 3c 00 00 	mov    0x3c(%rsp),%r14d
    400f:	00 
    4010:	44 89 f0             	mov    %r14d,%eax
    4013:	48 89 84 24 08 00 00 	mov    %rax,0x8(%rsp)
    401a:	00 
    401b:	4c 8b b4 24 10 00 00 	mov    0x10(%rsp),%r14
    4022:	00 
    4023:	49 89 c5             	mov    %rax,%r13
    4026:	43 8b 44 2e 04       	mov    0x4(%r14,%r13,1),%eax
    402b:	b9 e8 03 00 00       	mov    $0x3e8,%ecx
    4030:	4c 89 f7             	mov    %r14,%rdi
    4033:	44 89 fe             	mov    %r15d,%esi
    4036:	40 89 c2             	rex mov %eax,%edx
    4039:	e8 b2 2b 00 00       	callq  6bf0 <guest_func_memcpy>
    403e:	4c 8b bc 24 10 00 00 	mov    0x10(%rsp),%r15
    4045:	00 
    4046:	4c 8b b4 24 08 00 00 	mov    0x8(%rsp),%r14
    404d:	00 
    404e:	43 8b 44 37 08       	mov    0x8(%r15,%r14,1),%eax
    4053:	44 8b b4 24 30 00 00 	mov    0x30(%rsp),%r14d
    405a:	00 
    405b:	44 8b ac 24 28 00 00 	mov    0x28(%rsp),%r13d
    4062:	00 
    4063:	4c 89 ff             	mov    %r15,%rdi
    4066:	44 89 f6             	mov    %r14d,%esi
    4069:	40 89 c2             	rex mov %eax,%edx
    406c:	44 89 e9             	mov    %r13d,%ecx
    406f:	e8 7c 2b 00 00       	callq  6bf0 <guest_func_memcpy>
    4074:	89 84 24 20 00 00 00 	mov    %eax,0x20(%rsp)
    407b:	41 89 c7             	mov    %eax,%r15d
    407e:	41 81 c7 00 02 00 00 	add    $0x200,%r15d
    4085:	44 89 bc 24 1c 00 00 	mov    %r15d,0x1c(%rsp)
    408c:	00 
    408d:	4c 8b bc 24 10 00 00 	mov    0x10(%rsp),%r15
    4094:	00 
    4095:	41 89 c6             	mov    %eax,%r14d
    4098:	4c 89 ff             	mov    %r15,%rdi
    409b:	44 89 f6             	mov    %r14d,%esi
    409e:	e8 bd cb ff ff       	callq  c60 <guest_func_strlen>
    40a3:	89 84 24 18 00 00 00 	mov    %eax,0x18(%rsp)
    40aa:	4c 8b bc 24 10 00 00 	mov    0x10(%rsp),%r15
    40b1:	00 
    40b2:	44 8b b4 24 1c 00 00 	mov    0x1c(%rsp),%r14d
    40b9:	00 
    40ba:	4c 89 ff             	mov    %r15,%rdi
    40bd:	44 89 f6             	mov    %r14d,%esi
    40c0:	e8 9b cb ff ff       	callq  c60 <guest_func_strlen>
    40c5:	89 84 24 00 00 00 00 	mov    %eax,0x0(%rsp)
    40cc:	4c 8b bc 24 10 00 00 	mov    0x10(%rsp),%r15
    40d3:	00 
    40d4:	44 8b b4 24 24 00 00 	mov    0x24(%rsp),%r14d
    40db:	00 
    40dc:	44 8b ac 24 2c 00 00 	mov    0x2c(%rsp),%r13d
    40e3:	00 
    40e4:	44 8b a4 24 20 00 00 	mov    0x20(%rsp),%r12d
    40eb:	00 
    40ec:	44 8b 9c 24 18 00 00 	mov    0x18(%rsp),%r11d
    40f3:	00 
    40f4:	44 8b 94 24 1c 00 00 	mov    0x1c(%rsp),%r10d
    40fb:	00 
    40fc:	4c 89 ff             	mov    %r15,%rdi
    40ff:	44 89 f6             	mov    %r14d,%esi
    4102:	44 89 ea             	mov    %r13d,%edx
    4105:	44 89 e1             	mov    %r12d,%ecx
    4108:	45 89 d8             	mov    %r11d,%r8d
    410b:	45 89 d1             	mov    %r10d,%r9d
    410e:	e8 1d 15 00 00       	callq  5630 <guest_func_blake2b>
    4113:	44 8b bc 24 20 00 00 	mov    0x20(%rsp),%r15d
    411a:	00 
    411b:	41 81 c7 f0 05 00 00 	add    $0x5f0,%r15d
    4122:	4c 8b b4 24 10 00 00 	mov    0x10(%rsp),%r14
    4129:	00 
    412a:	49 8b 46 f0          	mov    -0x10(%r14),%rax
    412e:	44 89 38             	mov    %r15d,(%rax)
    4131:	44 8b bc 24 38 00 00 	mov    0x38(%rsp),%r15d
    4138:	00 
    4139:	44 89 f8             	mov    %r15d,%eax
    413c:	48 83 c4 40          	add    $0x40,%rsp
    4140:	41 5f                	pop    %r15
    4142:	41 5e                	pop    %r14
    4144:	41 5d                	pop    %r13
    4146:	41 5c                	pop    %r12
    4148:	5d                   	pop    %rbp
    4149:	c3                   	retq   
    414a:	00 00                	add    %al,(%rax)
    414c:	00 00                	add    %al,(%rax)
	...

0000000000004150 <guest_func___wasm_call_ctors>:
    4150:	55                   	push   %rbp
    4151:	48 89 e5             	mov    %rsp,%rbp
    4154:	5d                   	pop    %rbp
    4155:	c3                   	retq   
	...

0000000000004160 <guest_func_2>:
    4160:	55                   	push   %rbp
    4161:	48 89 e5             	mov    %rsp,%rbp
    4164:	53                   	push   %rbx
    4165:	41 54                	push   %r12
    4167:	41 55                	push   %r13
    4169:	41 56                	push   %r14
    416b:	41 57                	push   %r15
    416d:	48 81 ec 18 01 00 00 	sub    $0x118,%rsp
    4174:	48 89 bc 24 f8 00 00 	mov    %rdi,0xf8(%rsp)
    417b:	00 
    417c:	89 b4 24 14 01 00 00 	mov    %esi,0x114(%rsp)
    4183:	89 94 24 10 01 00 00 	mov    %edx,0x110(%rsp)
    418a:	31 c0                	xor    %eax,%eax
    418c:	89 84 24 0c 01 00 00 	mov    %eax,0x10c(%rsp)
    4193:	49 89 ff             	mov    %rdi,%r15
    4196:	49 8b 47 f0          	mov    -0x10(%r15),%rax
    419a:	8b 00                	mov    (%rax),%eax
    419c:	89 84 24 08 01 00 00 	mov    %eax,0x108(%rsp)
    41a3:	41 89 c7             	mov    %eax,%r15d
    41a6:	41 81 c7 00 ff ff ff 	add    $0xffffff00,%r15d
    41ad:	44 89 bc 24 04 01 00 	mov    %r15d,0x104(%rsp)
    41b4:	00 
    41b5:	49 89 ff             	mov    %rdi,%r15
    41b8:	49 8b 47 f0          	mov    -0x10(%r15),%rax
    41bc:	44 8b bc 24 04 01 00 	mov    0x104(%rsp),%r15d
    41c3:	00 
    41c4:	44 89 38             	mov    %r15d,(%rax)
    41c7:	44 8b bc 24 08 01 00 	mov    0x108(%rsp),%r15d
    41ce:	00 
    41cf:	41 83 c7 90          	add    $0xffffff90,%r15d
    41d3:	41 89 f6             	mov    %esi,%r14d
    41d6:	41 81 c6 90 00 00 00 	add    $0x90,%r14d
    41dd:	44 89 f0             	mov    %r14d,%eax
    41e0:	48 89 84 24 f0 00 00 	mov    %rax,0xf0(%rsp)
    41e7:	00 
    41e8:	49 89 fe             	mov    %rdi,%r14
    41eb:	49 89 c5             	mov    %rax,%r13
    41ee:	4b 8b 04 2e          	mov    (%r14,%r13,1),%rax
    41f2:	44 89 f9             	mov    %r15d,%ecx
    41f5:	49 89 ff             	mov    %rdi,%r15
    41f8:	49 89 04 0f          	mov    %rax,(%r15,%rcx,1)
    41fc:	44 8b bc 24 08 01 00 	mov    0x108(%rsp),%r15d
    4203:	00 
    4204:	41 83 c7 98          	add    $0xffffff98,%r15d
    4208:	41 89 f6             	mov    %esi,%r14d
    420b:	41 81 c6 98 00 00 00 	add    $0x98,%r14d
    4212:	44 89 f0             	mov    %r14d,%eax
    4215:	48 89 84 24 e8 00 00 	mov    %rax,0xe8(%rsp)
    421c:	00 
    421d:	49 89 fe             	mov    %rdi,%r14
    4220:	49 89 c5             	mov    %rax,%r13
    4223:	4b 8b 04 2e          	mov    (%r14,%r13,1),%rax
    4227:	44 89 f9             	mov    %r15d,%ecx
    422a:	49 89 ff             	mov    %rdi,%r15
    422d:	49 89 04 0f          	mov    %rax,(%r15,%rcx,1)
    4231:	44 8b bc 24 08 01 00 	mov    0x108(%rsp),%r15d
    4238:	00 
    4239:	41 83 c7 a0          	add    $0xffffffa0,%r15d
    423d:	41 89 f6             	mov    %esi,%r14d
    4240:	41 81 c6 a0 00 00 00 	add    $0xa0,%r14d
    4247:	44 89 f0             	mov    %r14d,%eax
    424a:	48 89 84 24 e0 00 00 	mov    %rax,0xe0(%rsp)
    4251:	00 
    4252:	49 89 fe             	mov    %rdi,%r14
    4255:	49 89 c5             	mov    %rax,%r13
    4258:	4b 8b 04 2e          	mov    (%r14,%r13,1),%rax
    425c:	44 89 f9             	mov    %r15d,%ecx
    425f:	49 89 ff             	mov    %rdi,%r15
    4262:	49 89 04 0f          	mov    %rax,(%r15,%rcx,1)
    4266:	44 8b bc 24 08 01 00 	mov    0x108(%rsp),%r15d
    426d:	00 
    426e:	41 83 c7 a8          	add    $0xffffffa8,%r15d
    4272:	41 89 f6             	mov    %esi,%r14d
    4275:	41 81 c6 a8 00 00 00 	add    $0xa8,%r14d
    427c:	44 89 f0             	mov    %r14d,%eax
    427f:	48 89 84 24 d8 00 00 	mov    %rax,0xd8(%rsp)
    4286:	00 
    4287:	49 89 fe             	mov    %rdi,%r14
    428a:	49 89 c5             	mov    %rax,%r13
    428d:	4b 8b 04 2e          	mov    (%r14,%r13,1),%rax
    4291:	44 89 f9             	mov    %r15d,%ecx
    4294:	49 89 ff             	mov    %rdi,%r15
    4297:	49 89 04 0f          	mov    %rax,(%r15,%rcx,1)
    429b:	44 8b bc 24 08 01 00 	mov    0x108(%rsp),%r15d
    42a2:	00 
    42a3:	41 83 c7 b0          	add    $0xffffffb0,%r15d
    42a7:	41 89 f6             	mov    %esi,%r14d
    42aa:	41 81 c6 b0 00 00 00 	add    $0xb0,%r14d
    42b1:	44 89 f0             	mov    %r14d,%eax
    42b4:	48 89 84 24 d0 00 00 	mov    %rax,0xd0(%rsp)
    42bb:	00 
    42bc:	49 89 fe             	mov    %rdi,%r14
    42bf:	49 89 c5             	mov    %rax,%r13
    42c2:	4b 8b 04 2e          	mov    (%r14,%r13,1),%rax
    42c6:	44 89 f9             	mov    %r15d,%ecx
    42c9:	49 89 ff             	mov    %rdi,%r15
    42cc:	49 89 04 0f          	mov    %rax,(%r15,%rcx,1)
    42d0:	44 8b bc 24 08 01 00 	mov    0x108(%rsp),%r15d
    42d7:	00 
    42d8:	41 83 c7 b8          	add    $0xffffffb8,%r15d
    42dc:	41 89 f6             	mov    %esi,%r14d
    42df:	41 81 c6 b8 00 00 00 	add    $0xb8,%r14d
    42e6:	44 89 f0             	mov    %r14d,%eax
    42e9:	48 89 84 24 c8 00 00 	mov    %rax,0xc8(%rsp)
    42f0:	00 
    42f1:	49 89 fe             	mov    %rdi,%r14
    42f4:	49 89 c5             	mov    %rax,%r13
    42f7:	4b 8b 04 2e          	mov    (%r14,%r13,1),%rax
    42fb:	44 89 f9             	mov    %r15d,%ecx
    42fe:	49 89 ff             	mov    %rdi,%r15
    4301:	49 89 04 0f          	mov    %rax,(%r15,%rcx,1)
    4305:	44 8b bc 24 08 01 00 	mov    0x108(%rsp),%r15d
    430c:	00 
    430d:	41 83 c7 c8          	add    $0xffffffc8,%r15d
    4311:	b8 08 04 00 00       	mov    $0x408,%eax
    4316:	89 c0                	mov    %eax,%eax
    4318:	49 8b 04 06          	mov    (%r14,%rax,1),%rax
    431c:	44 89 f9             	mov    %r15d,%ecx
    431f:	49 89 ff             	mov    %rdi,%r15
    4322:	49 89 04 0f          	mov    %rax,(%r15,%rcx,1)
    4326:	44 8b bc 24 08 01 00 	mov    0x108(%rsp),%r15d
    432d:	00 
    432e:	41 83 c7 d0          	add    $0xffffffd0,%r15d
    4332:	b8 10 04 00 00       	mov    $0x410,%eax
    4337:	89 c0                	mov    %eax,%eax
    4339:	49 8b 04 06          	mov    (%r14,%rax,1),%rax
    433d:	44 89 f9             	mov    %r15d,%ecx
    4340:	49 89 ff             	mov    %rdi,%r15
    4343:	49 89 04 0f          	mov    %rax,(%r15,%rcx,1)
    4347:	44 8b bc 24 08 01 00 	mov    0x108(%rsp),%r15d
    434e:	00 
    434f:	41 83 c7 d8          	add    $0xffffffd8,%r15d
    4353:	b8 18 04 00 00       	mov    $0x418,%eax
    4358:	89 c0                	mov    %eax,%eax
    435a:	49 8b 04 06          	mov    (%r14,%rax,1),%rax
    435e:	44 89 f9             	mov    %r15d,%ecx
    4361:	49 89 ff             	mov    %rdi,%r15
    4364:	49 89 04 0f          	mov    %rax,(%r15,%rcx,1)
    4368:	44 8b bc 24 08 01 00 	mov    0x108(%rsp),%r15d
    436f:	00 
    4370:	41 83 c7 f0          	add    $0xfffffff0,%r15d
    4374:	b8 30 04 00 00       	mov    $0x430,%eax
    4379:	89 c0                	mov    %eax,%eax
    437b:	49 8b 04 06          	mov    (%r14,%rax,1),%rax
    437f:	44 89 f9             	mov    %r15d,%ecx
    4382:	49 89 ff             	mov    %rdi,%r15
    4385:	49 89 04 0f          	mov    %rax,(%r15,%rcx,1)
    4389:	44 8b bc 24 08 01 00 	mov    0x108(%rsp),%r15d
    4390:	00 
    4391:	41 83 c7 f8          	add    $0xfffffff8,%r15d
    4395:	b8 38 04 00 00       	mov    $0x438,%eax
    439a:	89 c0                	mov    %eax,%eax
    439c:	49 8b 04 06          	mov    (%r14,%rax,1),%rax
    43a0:	44 89 f9             	mov    %r15d,%ecx
    43a3:	49 89 ff             	mov    %rdi,%r15
    43a6:	49 89 04 0f          	mov    %rax,(%r15,%rcx,1)
    43aa:	41 89 f7             	mov    %esi,%r15d
    43ad:	41 81 c7 80 00 00 00 	add    $0x80,%r15d
    43b4:	44 89 f8             	mov    %r15d,%eax
    43b7:	48 89 84 24 c0 00 00 	mov    %rax,0xc0(%rsp)
    43be:	00 
    43bf:	49 89 ff             	mov    %rdi,%r15
    43c2:	49 89 c6             	mov    %rax,%r14
    43c5:	4b 8b 04 37          	mov    (%r15,%r14,1),%rax
    43c9:	44 8b bc 24 04 01 00 	mov    0x104(%rsp),%r15d
    43d0:	00 
    43d1:	44 89 f9             	mov    %r15d,%ecx
    43d4:	49 89 ff             	mov    %rdi,%r15
    43d7:	49 89 84 0f 80 00 00 	mov    %rax,0x80(%r15,%rcx,1)
    43de:	00 
    43df:	41 89 f7             	mov    %esi,%r15d
    43e2:	41 81 c7 88 00 00 00 	add    $0x88,%r15d
    43e9:	44 89 f8             	mov    %r15d,%eax
    43ec:	48 89 84 24 b8 00 00 	mov    %rax,0xb8(%rsp)
    43f3:	00 
    43f4:	49 89 ff             	mov    %rdi,%r15
    43f7:	49 89 c6             	mov    %rax,%r14
    43fa:	4b 8b 04 37          	mov    (%r15,%r14,1),%rax
    43fe:	49 89 84 0f 88 00 00 	mov    %rax,0x88(%r15,%rcx,1)
    4405:	00 
    4406:	b8 00 04 00 00       	mov    $0x400,%eax
    440b:	89 c0                	mov    %eax,%eax
    440d:	49 8b 04 07          	mov    (%r15,%rax,1),%rax
    4411:	49 89 84 0f c0 00 00 	mov    %rax,0xc0(%r15,%rcx,1)
    4418:	00 
    4419:	b8 20 04 00 00       	mov    $0x420,%eax
    441e:	89 c0                	mov    %eax,%eax
    4420:	49 8b 04 07          	mov    (%r15,%rax,1),%rax
    4424:	49 89 84 0f e0 00 00 	mov    %rax,0xe0(%r15,%rcx,1)
    442b:	00 
    442c:	b8 28 04 00 00       	mov    $0x428,%eax
    4431:	89 c0                	mov    %eax,%eax
    4433:	49 8b 04 07          	mov    (%r15,%rax,1),%rax
    4437:	49 89 84 0f e8 00 00 	mov    %rax,0xe8(%r15,%rcx,1)
    443e:	00 
    443f:	41 89 f7             	mov    %esi,%r15d
    4442:	44 89 f8             	mov    %r15d,%eax
    4445:	49 89 ff             	mov    %rdi,%r15
    4448:	49 8b 84 07 c0 00 00 	mov    0xc0(%r15,%rax,1),%rax
    444f:	00 
    4450:	48 ba d1 82 e6 ad 7f 	movabs $0x510e527fade682d1,%rdx
    4457:	52 0e 51 
    445a:	48 31 d0             	xor    %rdx,%rax
    445d:	48 89 84 24 b0 00 00 	mov    %rax,0xb0(%rsp)
    4464:	00 
    4465:	49 89 c7             	mov    %rax,%r15
    4468:	49 89 fe             	mov    %rdi,%r14
    446b:	4d 89 bc 0e e0 00 00 	mov    %r15,0xe0(%r14,%rcx,1)
    4472:	00 
    4473:	41 89 f7             	mov    %esi,%r15d
    4476:	41 81 c7 c8 00 00 00 	add    $0xc8,%r15d
    447d:	44 89 f8             	mov    %r15d,%eax
    4480:	49 89 ff             	mov    %rdi,%r15
    4483:	49 8b 04 07          	mov    (%r15,%rax,1),%rax
    4487:	48 ba 1f 6c 3e 2b 8c 	movabs $0x9b05688c2b3e6c1f,%rdx
    448e:	68 05 9b 
    4491:	48 31 d0             	xor    %rdx,%rax
    4494:	48 89 84 24 a8 00 00 	mov    %rax,0xa8(%rsp)
    449b:	00 
    449c:	49 89 c7             	mov    %rax,%r15
    449f:	4d 89 bc 0e e8 00 00 	mov    %r15,0xe8(%r14,%rcx,1)
    44a6:	00 
    44a7:	44 8b bc 24 10 01 00 	mov    0x110(%rsp),%r15d
    44ae:	00 
    44af:	45 85 ff             	test   %r15d,%r15d
    44b2:	74 1f                	je     44d3 <guest_func_2+0x373>
    44b4:	48 b8 94 42 be 04 54 	movabs $0xe07c265404be4294,%rax
    44bb:	26 7c e0 
    44be:	48 89 84 24 a0 00 00 	mov    %rax,0xa0(%rsp)
    44c5:	00 
    44c6:	49 89 c7             	mov    %rax,%r15
    44c9:	4d 89 bc 0e f0 00 00 	mov    %r15,0xf0(%r14,%rcx,1)
    44d0:	00 
    44d1:	eb 12                	jmp    44e5 <guest_func_2+0x385>
    44d3:	48 b8 6b bd 41 fb ab 	movabs $0x1f83d9abfb41bd6b,%rax
    44da:	d9 83 1f 
    44dd:	48 89 84 24 a0 00 00 	mov    %rax,0xa0(%rsp)
    44e4:	00 
    44e5:	44 8b bc 24 0c 01 00 	mov    0x10c(%rsp),%r15d
    44ec:	00 
    44ed:	eb 03                	jmp    44f2 <guest_func_2+0x392>
    44ef:	41 89 c7             	mov    %eax,%r15d
    44f2:	44 8b b4 24 04 01 00 	mov    0x104(%rsp),%r14d
    44f9:	00 
    44fa:	45 01 fe             	add    %r15d,%r14d
    44fd:	44 8b ac 24 14 01 00 	mov    0x114(%rsp),%r13d
    4504:	00 
    4505:	45 01 fd             	add    %r15d,%r13d
    4508:	44 89 e8             	mov    %r13d,%eax
    450b:	4c 8b ac 24 f8 00 00 	mov    0xf8(%rsp),%r13
    4512:	00 
    4513:	49 8b 44 05 00       	mov    0x0(%r13,%rax,1),%rax
    4518:	44 89 f2             	mov    %r14d,%edx
    451b:	4d 89 ee             	mov    %r13,%r14
    451e:	49 89 04 16          	mov    %rax,(%r14,%rdx,1)
    4522:	44 89 f8             	mov    %r15d,%eax
    4525:	83 c0 08             	add    $0x8,%eax
    4528:	81 f8 80 00 00 00    	cmp    $0x80,%eax
    452e:	75 bf                	jne    44ef <guest_func_2+0x38f>
    4530:	48 b8 08 c9 bc f3 67 	movabs $0x6a09e667f3bcc908,%rax
    4537:	e6 09 6a 
    453a:	48 ba 3b a7 ca 84 85 	movabs $0xbb67ae8584caa73b,%rdx
    4541:	ae 67 bb 
    4544:	48 89 94 24 70 00 00 	mov    %rdx,0x70(%rsp)
    454b:	00 
    454c:	48 ba 2b f8 94 fe 72 	movabs $0x3c6ef372fe94f82b,%rdx
    4553:	f3 6e 3c 
    4556:	48 bb 79 21 7e 13 19 	movabs $0x5be0cd19137e2179,%rbx
    455d:	cd e0 5b 
    4560:	48 89 9c 24 58 00 00 	mov    %rbx,0x58(%rsp)
    4567:	00 
    4568:	48 bb f1 36 1d 5f 3a 	movabs $0xa54ff53a5f1d36f1,%rbx
    456f:	f5 4f a5 
    4572:	48 89 9c 24 90 00 00 	mov    %rbx,0x90(%rsp)
    4579:	00 
    457a:	4d 89 ef             	mov    %r13,%r15
    457d:	49 8b 9c 0f b8 00 00 	mov    0xb8(%r15,%rcx,1),%rbx
    4584:	00 
    4585:	48 89 9c 24 68 00 00 	mov    %rbx,0x68(%rsp)
    458c:	00 
    458d:	49 8b 9c 0f 98 00 00 	mov    0x98(%r15,%rcx,1),%rbx
    4594:	00 
    4595:	48 89 9c 24 60 00 00 	mov    %rbx,0x60(%rsp)
    459c:	00 
    459d:	49 8b 9c 0f b0 00 00 	mov    0xb0(%r15,%rcx,1),%rbx
    45a4:	00 
    45a5:	48 89 9c 24 88 00 00 	mov    %rbx,0x88(%rsp)
    45ac:	00 
    45ad:	49 8b 9c 0f 90 00 00 	mov    0x90(%r15,%rcx,1),%rbx
    45b4:	00 
    45b5:	49 8b b4 0f a8 00 00 	mov    0xa8(%r15,%rcx,1),%rsi
    45bc:	00 
    45bd:	48 89 b4 24 80 00 00 	mov    %rsi,0x80(%rsp)
    45c4:	00 
    45c5:	49 8b b4 0f 88 00 00 	mov    0x88(%r15,%rcx,1),%rsi
    45cc:	00 
    45cd:	48 89 b4 24 78 00 00 	mov    %rsi,0x78(%rsp)
    45d4:	00 
    45d5:	49 8b b4 0f a0 00 00 	mov    0xa0(%r15,%rcx,1),%rsi
    45dc:	00 
    45dd:	48 89 b4 24 98 00 00 	mov    %rsi,0x98(%rsp)
    45e4:	00 
    45e5:	49 8b 8c 0f 80 00 00 	mov    0x80(%r15,%rcx,1),%rcx
    45ec:	00 
    45ed:	eb 09                	jmp    45f8 <guest_func_2+0x498>
    45ef:	48 89 de             	mov    %rbx,%rsi
    45f2:	48 89 c3             	mov    %rax,%rbx
    45f5:	48 89 f0             	mov    %rsi,%rax
    45f8:	44 8b bc 24 0c 01 00 	mov    0x10c(%rsp),%r15d
    45ff:	00 
    4600:	41 81 c7 40 04 00 00 	add    $0x440,%r15d
    4607:	44 89 fe             	mov    %r15d,%esi
    460a:	4c 8b bc 24 f8 00 00 	mov    0xf8(%rsp),%r15
    4611:	00 
    4612:	41 0f b6 34 37       	movzbl (%r15,%rsi,1),%esi
    4617:	c1 e6 03             	shl    $0x3,%esi
    461a:	44 8b bc 24 04 01 00 	mov    0x104(%rsp),%r15d
    4621:	00 
    4622:	44 01 fe             	add    %r15d,%esi
    4625:	89 f6                	mov    %esi,%esi
    4627:	4c 8b bc 24 f8 00 00 	mov    0xf8(%rsp),%r15
    462e:	00 
    462f:	49 8b 34 37          	mov    (%r15,%rsi,1),%rsi
    4633:	4c 8b bc 24 98 00 00 	mov    0x98(%rsp),%r15
    463a:	00 
    463b:	49 01 cf             	add    %rcx,%r15
    463e:	4c 01 fe             	add    %r15,%rsi
    4641:	48 89 f1             	mov    %rsi,%rcx
    4644:	4c 8b bc 24 b0 00 00 	mov    0xb0(%rsp),%r15
    464b:	00 
    464c:	4c 31 f9             	xor    %r15,%rcx
    464f:	48 c1 c1 20          	rol    $0x20,%rcx
    4653:	48 89 8c 24 50 00 00 	mov    %rcx,0x50(%rsp)
    465a:	00 
    465b:	49 89 cf             	mov    %rcx,%r15
    465e:	49 01 c7             	add    %rax,%r15
    4661:	4c 89 bc 24 48 00 00 	mov    %r15,0x48(%rsp)
    4668:	00 
    4669:	4c 8b bc 24 98 00 00 	mov    0x98(%rsp),%r15
    4670:	00 
    4671:	4c 8b b4 24 48 00 00 	mov    0x48(%rsp),%r14
    4678:	00 
    4679:	4d 31 f7             	xor    %r14,%r15
    467c:	49 c1 c7 28          	rol    $0x28,%r15
    4680:	4c 89 bc 24 40 00 00 	mov    %r15,0x40(%rsp)
    4687:	00 
    4688:	44 8b bc 24 0c 01 00 	mov    0x10c(%rsp),%r15d
    468f:	00 
    4690:	41 81 c7 41 04 00 00 	add    $0x441,%r15d
    4697:	44 89 f8             	mov    %r15d,%eax
    469a:	4c 8b bc 24 f8 00 00 	mov    0xf8(%rsp),%r15
    46a1:	00 
    46a2:	41 0f b6 04 07       	movzbl (%r15,%rax,1),%eax
    46a7:	c1 e0 03             	shl    $0x3,%eax
    46aa:	44 8b bc 24 04 01 00 	mov    0x104(%rsp),%r15d
    46b1:	00 
    46b2:	44 01 f8             	add    %r15d,%eax
    46b5:	89 c0                	mov    %eax,%eax
    46b7:	4c 8b bc 24 f8 00 00 	mov    0xf8(%rsp),%r15
    46be:	00 
    46bf:	49 8b 04 07          	mov    (%r15,%rax,1),%rax
    46c3:	48 01 f0             	add    %rsi,%rax
    46c6:	4c 8b bc 24 40 00 00 	mov    0x40(%rsp),%r15
    46cd:	00 
    46ce:	49 01 c7             	add    %rax,%r15
    46d1:	4c 89 bc 24 38 00 00 	mov    %r15,0x38(%rsp)
    46d8:	00 
    46d9:	44 8b bc 24 0c 01 00 	mov    0x10c(%rsp),%r15d
    46e0:	00 
    46e1:	41 81 c7 44 04 00 00 	add    $0x444,%r15d
    46e8:	44 89 f8             	mov    %r15d,%eax
    46eb:	4c 8b bc 24 f8 00 00 	mov    0xf8(%rsp),%r15
    46f2:	00 
    46f3:	41 0f b6 04 07       	movzbl (%r15,%rax,1),%eax
    46f8:	c1 e0 03             	shl    $0x3,%eax
    46fb:	44 8b bc 24 04 01 00 	mov    0x104(%rsp),%r15d
    4702:	00 
    4703:	44 01 f8             	add    %r15d,%eax
    4706:	89 c0                	mov    %eax,%eax
    4708:	4c 8b bc 24 f8 00 00 	mov    0xf8(%rsp),%r15
    470f:	00 
    4710:	49 8b 04 07          	mov    (%r15,%rax,1),%rax
    4714:	4c 8b bc 24 88 00 00 	mov    0x88(%rsp),%r15
    471b:	00 
    471c:	49 01 df             	add    %rbx,%r15
    471f:	4c 01 f8             	add    %r15,%rax
    4722:	4c 8b bc 24 a0 00 00 	mov    0xa0(%rsp),%r15
    4729:	00 
    472a:	49 31 c7             	xor    %rax,%r15
    472d:	49 c1 c7 20          	rol    $0x20,%r15
    4731:	4c 89 f9             	mov    %r15,%rcx
    4734:	48 01 d1             	add    %rdx,%rcx
    4737:	48 89 8c 24 30 00 00 	mov    %rcx,0x30(%rsp)
    473e:	00 
    473f:	49 89 ce             	mov    %rcx,%r14
    4742:	4c 8b ac 24 88 00 00 	mov    0x88(%rsp),%r13
    4749:	00 
    474a:	4d 31 ee             	xor    %r13,%r14
    474d:	49 c1 c6 28          	rol    $0x28,%r14
    4751:	4c 89 b4 24 28 00 00 	mov    %r14,0x28(%rsp)
    4758:	00 
    4759:	44 8b b4 24 0c 01 00 	mov    0x10c(%rsp),%r14d
    4760:	00 
    4761:	41 81 c6 45 04 00 00 	add    $0x445,%r14d
    4768:	44 89 f1             	mov    %r14d,%ecx
    476b:	4c 8b b4 24 f8 00 00 	mov    0xf8(%rsp),%r14
    4772:	00 
    4773:	41 0f b6 0c 0e       	movzbl (%r14,%rcx,1),%ecx
    4778:	c1 e1 03             	shl    $0x3,%ecx
    477b:	44 8b b4 24 04 01 00 	mov    0x104(%rsp),%r14d
    4782:	00 
    4783:	44 01 f1             	add    %r14d,%ecx
    4786:	89 c9                	mov    %ecx,%ecx
    4788:	4c 8b b4 24 f8 00 00 	mov    0xf8(%rsp),%r14
    478f:	00 
    4790:	49 8b 0c 0e          	mov    (%r14,%rcx,1),%rcx
    4794:	48 01 c1             	add    %rax,%rcx
    4797:	4c 8b b4 24 28 00 00 	mov    0x28(%rsp),%r14
    479e:	00 
    479f:	49 01 ce             	add    %rcx,%r14
    47a2:	4c 89 b4 24 20 00 00 	mov    %r14,0x20(%rsp)
    47a9:	00 
    47aa:	44 8b b4 24 0c 01 00 	mov    0x10c(%rsp),%r14d
    47b1:	00 
    47b2:	41 81 c6 42 04 00 00 	add    $0x442,%r14d
    47b9:	44 89 f0             	mov    %r14d,%eax
    47bc:	4c 8b b4 24 f8 00 00 	mov    0xf8(%rsp),%r14
    47c3:	00 
    47c4:	41 0f b6 04 06       	movzbl (%r14,%rax,1),%eax
    47c9:	c1 e0 03             	shl    $0x3,%eax
    47cc:	44 8b b4 24 04 01 00 	mov    0x104(%rsp),%r14d
    47d3:	00 
    47d4:	44 01 f0             	add    %r14d,%eax
    47d7:	89 c0                	mov    %eax,%eax
    47d9:	4c 8b b4 24 f8 00 00 	mov    0xf8(%rsp),%r14
    47e0:	00 
    47e1:	49 8b 04 06          	mov    (%r14,%rax,1),%rax
    47e5:	4c 8b b4 24 80 00 00 	mov    0x80(%rsp),%r14
    47ec:	00 
    47ed:	4c 8b ac 24 78 00 00 	mov    0x78(%rsp),%r13
    47f4:	00 
    47f5:	4d 01 ee             	add    %r13,%r14
    47f8:	4c 01 f0             	add    %r14,%rax
    47fb:	48 89 c1             	mov    %rax,%rcx
    47fe:	4c 8b b4 24 a8 00 00 	mov    0xa8(%rsp),%r14
    4805:	00 
    4806:	4c 31 f1             	xor    %r14,%rcx
    4809:	48 c1 c1 20          	rol    $0x20,%rcx
    480d:	48 89 ca             	mov    %rcx,%rdx
    4810:	4c 8b b4 24 70 00 00 	mov    0x70(%rsp),%r14
    4817:	00 
    4818:	4c 01 f2             	add    %r14,%rdx
    481b:	48 89 d3             	mov    %rdx,%rbx
    481e:	4c 8b b4 24 80 00 00 	mov    0x80(%rsp),%r14
    4825:	00 
    4826:	4c 31 f3             	xor    %r14,%rbx
    4829:	48 c1 c3 28          	rol    $0x28,%rbx
    482d:	48 89 9c 24 18 00 00 	mov    %rbx,0x18(%rsp)
    4834:	00 
    4835:	44 8b b4 24 0c 01 00 	mov    0x10c(%rsp),%r14d
    483c:	00 
    483d:	41 81 c6 43 04 00 00 	add    $0x443,%r14d
    4844:	44 89 f3             	mov    %r14d,%ebx
    4847:	4c 8b b4 24 f8 00 00 	mov    0xf8(%rsp),%r14
    484e:	00 
    484f:	41 0f b6 1c 1e       	movzbl (%r14,%rbx,1),%ebx
    4854:	c1 e3 03             	shl    $0x3,%ebx
    4857:	44 8b b4 24 04 01 00 	mov    0x104(%rsp),%r14d
    485e:	00 
    485f:	44 01 f3             	add    %r14d,%ebx
    4862:	89 db                	mov    %ebx,%ebx
    4864:	4c 8b b4 24 f8 00 00 	mov    0xf8(%rsp),%r14
    486b:	00 
    486c:	49 8b 1c 1e          	mov    (%r14,%rbx,1),%rbx
    4870:	48 01 c3             	add    %rax,%rbx
    4873:	4c 8b b4 24 18 00 00 	mov    0x18(%rsp),%r14
    487a:	00 
    487b:	49 01 de             	add    %rbx,%r14
    487e:	4c 89 b4 24 10 00 00 	mov    %r14,0x10(%rsp)
    4885:	00 
    4886:	49 31 ce             	xor    %rcx,%r14
    4889:	49 c1 c6 30          	rol    $0x30,%r14
    488d:	4c 89 b4 24 08 00 00 	mov    %r14,0x8(%rsp)
    4894:	00 
    4895:	49 01 d6             	add    %rdx,%r14
    4898:	4c 8b ac 24 20 00 00 	mov    0x20(%rsp),%r13
    489f:	00 
    48a0:	4d 31 fd             	xor    %r15,%r13
    48a3:	49 c1 c5 30          	rol    $0x30,%r13
    48a7:	44 8b bc 24 0c 01 00 	mov    0x10c(%rsp),%r15d
    48ae:	00 
    48af:	41 81 c7 4e 04 00 00 	add    $0x44e,%r15d
    48b6:	44 89 f8             	mov    %r15d,%eax
    48b9:	4c 8b bc 24 f8 00 00 	mov    0xf8(%rsp),%r15
    48c0:	00 
    48c1:	41 0f b6 04 07       	movzbl (%r15,%rax,1),%eax
    48c6:	c1 e0 03             	shl    $0x3,%eax
    48c9:	44 8b bc 24 04 01 00 	mov    0x104(%rsp),%r15d
    48d0:	00 
    48d1:	44 01 f8             	add    %r15d,%eax
    48d4:	89 c0                	mov    %eax,%eax
    48d6:	4c 8b bc 24 f8 00 00 	mov    0xf8(%rsp),%r15
    48dd:	00 
    48de:	49 8b 04 07          	mov    (%r15,%rax,1),%rax
    48e2:	44 8b bc 24 0c 01 00 	mov    0x10c(%rsp),%r15d
    48e9:	00 
    48ea:	41 81 c7 46 04 00 00 	add    $0x446,%r15d
    48f1:	44 89 f9             	mov    %r15d,%ecx
    48f4:	4c 8b bc 24 f8 00 00 	mov    0xf8(%rsp),%r15
    48fb:	00 
    48fc:	41 0f b6 0c 0f       	movzbl (%r15,%rcx,1),%ecx
    4901:	c1 e1 03             	shl    $0x3,%ecx
    4904:	44 8b bc 24 04 01 00 	mov    0x104(%rsp),%r15d
    490b:	00 
    490c:	44 01 f9             	add    %r15d,%ecx
    490f:	89 c9                	mov    %ecx,%ecx
    4911:	4c 8b bc 24 f8 00 00 	mov    0xf8(%rsp),%r15
    4918:	00 
    4919:	49 8b 0c 0f          	mov    (%r15,%rcx,1),%rcx
    491d:	4c 8b bc 24 68 00 00 	mov    0x68(%rsp),%r15
    4924:	00 
    4925:	4c 8b a4 24 60 00 00 	mov    0x60(%rsp),%r12
    492c:	00 
    492d:	4d 01 e7             	add    %r12,%r15
    4930:	4c 01 f9             	add    %r15,%rcx
    4933:	48 89 ca             	mov    %rcx,%rdx
    4936:	4c 8b bc 24 58 00 00 	mov    0x58(%rsp),%r15
    493d:	00 
    493e:	4c 31 fa             	xor    %r15,%rdx
    4941:	48 c1 c2 20          	rol    $0x20,%rdx
    4945:	48 89 d3             	mov    %rdx,%rbx
    4948:	4c 8b bc 24 90 00 00 	mov    0x90(%rsp),%r15
    494f:	00 
    4950:	4c 01 fb             	add    %r15,%rbx
    4953:	48 89 de             	mov    %rbx,%rsi
    4956:	4c 8b bc 24 68 00 00 	mov    0x68(%rsp),%r15
    495d:	00 
    495e:	4c 31 fe             	xor    %r15,%rsi
    4961:	48 c1 c6 28          	rol    $0x28,%rsi
    4965:	44 8b bc 24 0c 01 00 	mov    0x10c(%rsp),%r15d
    496c:	00 
    496d:	41 81 c7 47 04 00 00 	add    $0x447,%r15d
    4974:	44 89 ff             	mov    %r15d,%edi
    4977:	4c 8b bc 24 f8 00 00 	mov    0xf8(%rsp),%r15
    497e:	00 
    497f:	41 0f b6 3c 3f       	movzbl (%r15,%rdi,1),%edi
    4984:	c1 e7 03             	shl    $0x3,%edi
    4987:	44 8b bc 24 04 01 00 	mov    0x104(%rsp),%r15d
    498e:	00 
    498f:	44 01 ff             	add    %r15d,%edi
    4992:	89 ff                	mov    %edi,%edi
    4994:	4c 8b bc 24 f8 00 00 	mov    0xf8(%rsp),%r15
    499b:	00 
    499c:	49 8b 3c 3f          	mov    (%r15,%rdi,1),%rdi
    49a0:	48 01 cf             	add    %rcx,%rdi
    49a3:	48 89 f1             	mov    %rsi,%rcx
    49a6:	48 01 f9             	add    %rdi,%rcx
    49a9:	4c 8b bc 24 50 00 00 	mov    0x50(%rsp),%r15
    49b0:	00 
    49b1:	4c 8b a4 24 38 00 00 	mov    0x38(%rsp),%r12
    49b8:	00 
    49b9:	4d 31 e7             	xor    %r12,%r15
    49bc:	49 c1 c7 30          	rol    $0x30,%r15
    49c0:	4c 89 ff             	mov    %r15,%rdi
    49c3:	4c 8b a4 24 48 00 00 	mov    0x48(%rsp),%r12
    49ca:	00 
    49cb:	4c 01 e7             	add    %r12,%rdi
    49ce:	49 89 f8             	mov    %rdi,%r8
    49d1:	4c 8b a4 24 40 00 00 	mov    0x40(%rsp),%r12
    49d8:	00 
    49d9:	4d 31 e0             	xor    %r12,%r8
    49dc:	49 c1 c0 01          	rol    $0x1,%r8
    49e0:	49 89 c9             	mov    %rcx,%r9
    49e3:	4d 01 c1             	add    %r8,%r9
    49e6:	4c 01 c8             	add    %r9,%rax
    49e9:	4d 89 e9             	mov    %r13,%r9
    49ec:	49 31 c1             	xor    %rax,%r9
    49ef:	49 c1 c1 20          	rol    $0x20,%r9
    49f3:	4d 89 f2             	mov    %r14,%r10
    49f6:	4d 01 ca             	add    %r9,%r10
    49f9:	4d 31 d0             	xor    %r10,%r8
    49fc:	49 c1 c0 28          	rol    $0x28,%r8
    4a00:	44 8b a4 24 0c 01 00 	mov    0x10c(%rsp),%r12d
    4a07:	00 
    4a08:	41 81 c4 4f 04 00 00 	add    $0x44f,%r12d
    4a0f:	45 89 e3             	mov    %r12d,%r11d
    4a12:	4c 8b a4 24 f8 00 00 	mov    0xf8(%rsp),%r12
    4a19:	00 
    4a1a:	47 0f b6 1c 1c       	movzbl (%r12,%r11,1),%r11d
    4a1f:	41 c1 e3 03          	shl    $0x3,%r11d
    4a23:	44 8b a4 24 04 01 00 	mov    0x104(%rsp),%r12d
    4a2a:	00 
    4a2b:	45 01 e3             	add    %r12d,%r11d
    4a2e:	45 89 db             	mov    %r11d,%r11d
    4a31:	4c 8b a4 24 f8 00 00 	mov    0xf8(%rsp),%r12
    4a38:	00 
    4a39:	4f 8b 1c 1c          	mov    (%r12,%r11,1),%r11
    4a3d:	49 01 c3             	add    %rax,%r11
    4a40:	4c 89 c0             	mov    %r8,%rax
    4a43:	4c 01 d8             	add    %r11,%rax
    4a46:	48 89 84 24 60 00 00 	mov    %rax,0x60(%rsp)
    4a4d:	00 
    4a4e:	49 89 c4             	mov    %rax,%r12
    4a51:	4d 31 e1             	xor    %r12,%r9
    4a54:	49 c1 c1 30          	rol    $0x30,%r9
    4a58:	4c 89 8c 24 a0 00 00 	mov    %r9,0xa0(%rsp)
    4a5f:	00 
    4a60:	4d 89 cc             	mov    %r9,%r12
    4a63:	4d 01 e2             	add    %r12,%r10
    4a66:	4c 89 94 24 70 00 00 	mov    %r10,0x70(%rsp)
    4a6d:	00 
    4a6e:	4d 89 d4             	mov    %r10,%r12
    4a71:	4d 31 c4             	xor    %r8,%r12
    4a74:	49 c1 c4 01          	rol    $0x1,%r12
    4a78:	4c 89 a4 24 98 00 00 	mov    %r12,0x98(%rsp)
    4a7f:	00 
    4a80:	44 8b a4 24 0c 01 00 	mov    0x10c(%rsp),%r12d
    4a87:	00 
    4a88:	41 81 c4 4c 04 00 00 	add    $0x44c,%r12d
    4a8f:	44 89 e0             	mov    %r12d,%eax
    4a92:	4c 8b a4 24 f8 00 00 	mov    0xf8(%rsp),%r12
    4a99:	00 
    4a9a:	41 0f b6 04 04       	movzbl (%r12,%rax,1),%eax
    4a9f:	c1 e0 03             	shl    $0x3,%eax
    4aa2:	44 8b a4 24 04 01 00 	mov    0x104(%rsp),%r12d
    4aa9:	00 
    4aaa:	44 01 e0             	add    %r12d,%eax
    4aad:	89 c0                	mov    %eax,%eax
    4aaf:	4c 8b a4 24 f8 00 00 	mov    0xf8(%rsp),%r12
    4ab6:	00 
    4ab7:	49 8b 04 04          	mov    (%r12,%rax,1),%rax
    4abb:	48 31 ca             	xor    %rcx,%rdx
    4abe:	48 c1 c2 30          	rol    $0x30,%rdx
    4ac2:	48 89 d1             	mov    %rdx,%rcx
    4ac5:	48 01 d9             	add    %rbx,%rcx
    4ac8:	48 89 cb             	mov    %rcx,%rbx
    4acb:	48 31 f3             	xor    %rsi,%rbx
    4ace:	48 c1 c3 01          	rol    $0x1,%rbx
    4ad2:	4c 8b a4 24 20 00 00 	mov    0x20(%rsp),%r12
    4ad9:	00 
    4ada:	49 01 dc             	add    %rbx,%r12
    4add:	4c 01 e0             	add    %r12,%rax
    4ae0:	4c 8b a4 24 08 00 00 	mov    0x8(%rsp),%r12
    4ae7:	00 
    4ae8:	49 31 c4             	xor    %rax,%r12
    4aeb:	49 c1 c4 20          	rol    $0x20,%r12
    4aef:	4c 01 e7             	add    %r12,%rdi
    4af2:	48 89 fe             	mov    %rdi,%rsi
    4af5:	48 31 de             	xor    %rbx,%rsi
    4af8:	48 c1 c6 28          	rol    $0x28,%rsi
    4afc:	44 8b 9c 24 0c 01 00 	mov    0x10c(%rsp),%r11d
    4b03:	00 
    4b04:	41 81 c3 4d 04 00 00 	add    $0x44d,%r11d
    4b0b:	44 89 db             	mov    %r11d,%ebx
    4b0e:	4c 8b 9c 24 f8 00 00 	mov    0xf8(%rsp),%r11
    4b15:	00 
    4b16:	41 0f b6 1c 1b       	movzbl (%r11,%rbx,1),%ebx
    4b1b:	c1 e3 03             	shl    $0x3,%ebx
    4b1e:	44 8b 9c 24 04 01 00 	mov    0x104(%rsp),%r11d
    4b25:	00 
    4b26:	44 01 db             	add    %r11d,%ebx
    4b29:	89 db                	mov    %ebx,%ebx
    4b2b:	4c 8b 9c 24 f8 00 00 	mov    0xf8(%rsp),%r11
    4b32:	00 
    4b33:	49 8b 1c 1b          	mov    (%r11,%rbx,1),%rbx
    4b37:	48 01 c3             	add    %rax,%rbx
    4b3a:	48 89 f0             	mov    %rsi,%rax
    4b3d:	48 01 d8             	add    %rbx,%rax
    4b40:	49 31 c4             	xor    %rax,%r12
    4b43:	49 c1 c4 30          	rol    $0x30,%r12
    4b47:	4c 89 a4 24 a8 00 00 	mov    %r12,0xa8(%rsp)
    4b4e:	00 
    4b4f:	48 89 fb             	mov    %rdi,%rbx
    4b52:	4c 01 e3             	add    %r12,%rbx
    4b55:	48 89 df             	mov    %rbx,%rdi
    4b58:	48 31 f7             	xor    %rsi,%rdi
    4b5b:	48 c1 c7 01          	rol    $0x1,%rdi
    4b5f:	48 89 bc 24 68 00 00 	mov    %rdi,0x68(%rsp)
    4b66:	00 
    4b67:	44 8b a4 24 0c 01 00 	mov    0x10c(%rsp),%r12d
    4b6e:	00 
    4b6f:	41 81 c4 4a 04 00 00 	add    $0x44a,%r12d
    4b76:	44 89 e6             	mov    %r12d,%esi
    4b79:	4d 89 dc             	mov    %r11,%r12
    4b7c:	41 0f b6 34 34       	movzbl (%r12,%rsi,1),%esi
    4b81:	c1 e6 03             	shl    $0x3,%esi
    4b84:	44 8b a4 24 04 01 00 	mov    0x104(%rsp),%r12d
    4b8b:	00 
    4b8c:	44 01 e6             	add    %r12d,%esi
    4b8f:	89 f6                	mov    %esi,%esi
    4b91:	4d 89 dc             	mov    %r11,%r12
    4b94:	49 8b 34 34          	mov    (%r12,%rsi,1),%rsi
    4b98:	4c 8b a4 24 30 00 00 	mov    0x30(%rsp),%r12
    4b9f:	00 
    4ba0:	4d 01 ec             	add    %r13,%r12
    4ba3:	4c 89 e7             	mov    %r12,%rdi
    4ba6:	4c 8b ac 24 28 00 00 	mov    0x28(%rsp),%r13
    4bad:	00 
    4bae:	4c 31 ef             	xor    %r13,%rdi
    4bb1:	48 c1 c7 01          	rol    $0x1,%rdi
    4bb5:	4c 8b ac 24 10 00 00 	mov    0x10(%rsp),%r13
    4bbc:	00 
    4bbd:	49 01 fd             	add    %rdi,%r13
    4bc0:	4c 01 ee             	add    %r13,%rsi
    4bc3:	49 31 f7             	xor    %rsi,%r15
    4bc6:	49 c1 c7 20          	rol    $0x20,%r15
    4bca:	4d 89 f8             	mov    %r15,%r8
    4bcd:	49 01 c8             	add    %rcx,%r8
    4bd0:	4c 89 c1             	mov    %r8,%rcx
    4bd3:	48 31 f9             	xor    %rdi,%rcx
    4bd6:	48 c1 c1 28          	rol    $0x28,%rcx
    4bda:	44 8b ac 24 0c 01 00 	mov    0x10c(%rsp),%r13d
    4be1:	00 
    4be2:	41 81 c5 4b 04 00 00 	add    $0x44b,%r13d
    4be9:	44 89 ef             	mov    %r13d,%edi
    4bec:	4d 89 dd             	mov    %r11,%r13
    4bef:	41 0f b6 7c 3d 00    	movzbl 0x0(%r13,%rdi,1),%edi
    4bf5:	c1 e7 03             	shl    $0x3,%edi
    4bf8:	44 8b ac 24 04 01 00 	mov    0x104(%rsp),%r13d
    4bff:	00 
    4c00:	44 01 ef             	add    %r13d,%edi
    4c03:	89 ff                	mov    %edi,%edi
    4c05:	4d 89 dd             	mov    %r11,%r13
    4c08:	49 8b 7c 3d 00       	mov    0x0(%r13,%rdi,1),%rdi
    4c0d:	48 01 f7             	add    %rsi,%rdi
    4c10:	48 89 ce             	mov    %rcx,%rsi
    4c13:	48 01 fe             	add    %rdi,%rsi
    4c16:	48 89 b4 24 78 00 00 	mov    %rsi,0x78(%rsp)
    4c1d:	00 
    4c1e:	49 89 f5             	mov    %rsi,%r13
    4c21:	4d 31 ef             	xor    %r13,%r15
    4c24:	49 c1 c7 30          	rol    $0x30,%r15
    4c28:	4c 89 bc 24 b0 00 00 	mov    %r15,0xb0(%rsp)
    4c2f:	00 
    4c30:	4d 01 f8             	add    %r15,%r8
    4c33:	4c 89 84 24 90 00 00 	mov    %r8,0x90(%rsp)
    4c3a:	00 
    4c3b:	4d 89 c7             	mov    %r8,%r15
    4c3e:	49 31 cf             	xor    %rcx,%r15
    4c41:	49 c1 c7 01          	rol    $0x1,%r15
    4c45:	4c 89 bc 24 88 00 00 	mov    %r15,0x88(%rsp)
    4c4c:	00 
    4c4d:	44 8b bc 24 0c 01 00 	mov    0x10c(%rsp),%r15d
    4c54:	00 
    4c55:	41 81 c7 48 04 00 00 	add    $0x448,%r15d
    4c5c:	44 89 f9             	mov    %r15d,%ecx
    4c5f:	4d 89 df             	mov    %r11,%r15
    4c62:	41 0f b6 0c 0f       	movzbl (%r15,%rcx,1),%ecx
    4c67:	c1 e1 03             	shl    $0x3,%ecx
    4c6a:	44 8b bc 24 04 01 00 	mov    0x104(%rsp),%r15d
    4c71:	00 
    4c72:	44 01 f9             	add    %r15d,%ecx
    4c75:	89 c9                	mov    %ecx,%ecx
    4c77:	4d 89 df             	mov    %r11,%r15
    4c7a:	49 8b 0c 0f          	mov    (%r15,%rcx,1),%rcx
    4c7e:	4c 8b bc 24 18 00 00 	mov    0x18(%rsp),%r15
    4c85:	00 
    4c86:	4d 31 f7             	xor    %r14,%r15
    4c89:	49 c1 c7 01          	rol    $0x1,%r15
    4c8d:	4c 89 fe             	mov    %r15,%rsi
    4c90:	4c 8b b4 24 38 00 00 	mov    0x38(%rsp),%r14
    4c97:	00 
    4c98:	4c 01 f6             	add    %r14,%rsi
    4c9b:	48 01 f1             	add    %rsi,%rcx
    4c9e:	48 31 ca             	xor    %rcx,%rdx
    4ca1:	48 c1 c2 20          	rol    $0x20,%rdx
    4ca5:	48 89 d6             	mov    %rdx,%rsi
    4ca8:	4c 01 e6             	add    %r12,%rsi
    4cab:	48 89 f7             	mov    %rsi,%rdi
    4cae:	4c 31 ff             	xor    %r15,%rdi
    4cb1:	48 c1 c7 28          	rol    $0x28,%rdi
    4cb5:	44 8b bc 24 0c 01 00 	mov    0x10c(%rsp),%r15d
    4cbc:	00 
    4cbd:	41 81 c7 49 04 00 00 	add    $0x449,%r15d
    4cc4:	45 89 f8             	mov    %r15d,%r8d
    4cc7:	4d 89 df             	mov    %r11,%r15
    4cca:	47 0f b6 04 07       	movzbl (%r15,%r8,1),%r8d
    4ccf:	41 c1 e0 03          	shl    $0x3,%r8d
    4cd3:	44 8b bc 24 04 01 00 	mov    0x104(%rsp),%r15d
    4cda:	00 
    4cdb:	45 01 f8             	add    %r15d,%r8d
    4cde:	45 89 c0             	mov    %r8d,%r8d
    4ce1:	4d 89 df             	mov    %r11,%r15
    4ce4:	4f 8b 04 07          	mov    (%r15,%r8,1),%r8
    4ce8:	49 01 c8             	add    %rcx,%r8
    4ceb:	48 89 f9             	mov    %rdi,%rcx
    4cee:	4c 01 c1             	add    %r8,%rcx
    4cf1:	48 31 ca             	xor    %rcx,%rdx
    4cf4:	48 c1 c2 30          	rol    $0x30,%rdx
    4cf8:	48 89 94 24 58 00 00 	mov    %rdx,0x58(%rsp)
    4cff:	00 
    4d00:	49 89 d7             	mov    %rdx,%r15
    4d03:	48 89 f2             	mov    %rsi,%rdx
    4d06:	4c 01 fa             	add    %r15,%rdx
    4d09:	48 89 d6             	mov    %rdx,%rsi
    4d0c:	48 31 fe             	xor    %rdi,%rsi
    4d0f:	48 c1 c6 01          	rol    $0x1,%rsi
    4d13:	48 89 b4 24 80 00 00 	mov    %rsi,0x80(%rsp)
    4d1a:	00 
    4d1b:	44 8b bc 24 0c 01 00 	mov    0x10c(%rsp),%r15d
    4d22:	00 
    4d23:	41 83 c7 10          	add    $0x10,%r15d
    4d27:	44 89 bc 24 0c 01 00 	mov    %r15d,0x10c(%rsp)
    4d2e:	00 
    4d2f:	41 81 ff c0 00 00 00 	cmp    $0xc0,%r15d
    4d36:	0f 85 b3 f8 ff ff    	jne    45ef <guest_func_2+0x48f>
    4d3c:	4d 89 df             	mov    %r11,%r15
    4d3f:	4c 8b b4 24 c0 00 00 	mov    0xc0(%rsp),%r14
    4d46:	00 
    4d47:	4b 8b 34 37          	mov    (%r15,%r14,1),%rsi
    4d4b:	48 31 cb             	xor    %rcx,%rbx
    4d4e:	48 31 de             	xor    %rbx,%rsi
    4d51:	4b 89 34 37          	mov    %rsi,(%r15,%r14,1)
    4d55:	4c 8b b4 24 b8 00 00 	mov    0xb8(%rsp),%r14
    4d5c:	00 
    4d5d:	4b 8b 0c 37          	mov    (%r15,%r14,1),%rcx
    4d61:	4d 89 d7             	mov    %r10,%r15
    4d64:	4d 89 ee             	mov    %r13,%r14
    4d67:	4d 31 f7             	xor    %r14,%r15
    4d6a:	4c 31 f9             	xor    %r15,%rcx
    4d6d:	4d 89 df             	mov    %r11,%r15
    4d70:	4c 8b b4 24 b8 00 00 	mov    0xb8(%rsp),%r14
    4d77:	00 
    4d78:	4b 89 0c 37          	mov    %rcx,(%r15,%r14,1)
    4d7c:	4c 8b b4 24 f0 00 00 	mov    0xf0(%rsp),%r14
    4d83:	00 
    4d84:	4b 8b 0c 37          	mov    (%r15,%r14,1),%rcx
    4d88:	48 31 c2             	xor    %rax,%rdx
    4d8b:	48 31 d1             	xor    %rdx,%rcx
    4d8e:	4b 89 0c 37          	mov    %rcx,(%r15,%r14,1)
    4d92:	4c 8b b4 24 e8 00 00 	mov    0xe8(%rsp),%r14
    4d99:	00 
    4d9a:	4b 8b 04 37          	mov    (%r15,%r14,1),%rax
    4d9e:	4c 8b bc 24 90 00 00 	mov    0x90(%rsp),%r15
    4da5:	00 
    4da6:	4c 8b b4 24 60 00 00 	mov    0x60(%rsp),%r14
    4dad:	00 
    4dae:	4d 31 f7             	xor    %r14,%r15
    4db1:	4c 31 f8             	xor    %r15,%rax
    4db4:	4d 89 df             	mov    %r11,%r15
    4db7:	4c 8b b4 24 e8 00 00 	mov    0xe8(%rsp),%r14
    4dbe:	00 
    4dbf:	4b 89 04 37          	mov    %rax,(%r15,%r14,1)
    4dc3:	4c 8b b4 24 e0 00 00 	mov    0xe0(%rsp),%r14
    4dca:	00 
    4dcb:	4b 8b 04 37          	mov    (%r15,%r14,1),%rax
    4dcf:	4c 8b bc 24 98 00 00 	mov    0x98(%rsp),%r15
    4dd6:	00 
    4dd7:	4c 8b b4 24 b0 00 00 	mov    0xb0(%rsp),%r14
    4dde:	00 
    4ddf:	4d 31 f7             	xor    %r14,%r15
    4de2:	4c 31 f8             	xor    %r15,%rax
    4de5:	4d 89 df             	mov    %r11,%r15
    4de8:	4c 8b b4 24 e0 00 00 	mov    0xe0(%rsp),%r14
    4def:	00 
    4df0:	4b 89 04 37          	mov    %rax,(%r15,%r14,1)
    4df4:	4c 8b b4 24 d8 00 00 	mov    0xd8(%rsp),%r14
    4dfb:	00 
    4dfc:	4b 8b 04 37          	mov    (%r15,%r14,1),%rax
    4e00:	4c 8b bc 24 80 00 00 	mov    0x80(%rsp),%r15
    4e07:	00 
    4e08:	4c 8b b4 24 a8 00 00 	mov    0xa8(%rsp),%r14
    4e0f:	00 
    4e10:	4d 31 f7             	xor    %r14,%r15
    4e13:	4c 31 f8             	xor    %r15,%rax
    4e16:	4d 89 df             	mov    %r11,%r15
    4e19:	4c 8b b4 24 d8 00 00 	mov    0xd8(%rsp),%r14
    4e20:	00 
    4e21:	4b 89 04 37          	mov    %rax,(%r15,%r14,1)
    4e25:	4c 8b b4 24 d0 00 00 	mov    0xd0(%rsp),%r14
    4e2c:	00 
    4e2d:	4b 8b 04 37          	mov    (%r15,%r14,1),%rax
    4e31:	4c 8b bc 24 88 00 00 	mov    0x88(%rsp),%r15
    4e38:	00 
    4e39:	4d 89 ce             	mov    %r9,%r14
    4e3c:	4d 31 f7             	xor    %r14,%r15
    4e3f:	4c 31 f8             	xor    %r15,%rax
    4e42:	4d 89 df             	mov    %r11,%r15
    4e45:	4c 8b b4 24 d0 00 00 	mov    0xd0(%rsp),%r14
    4e4c:	00 
    4e4d:	4b 89 04 37          	mov    %rax,(%r15,%r14,1)
    4e51:	4c 8b b4 24 c8 00 00 	mov    0xc8(%rsp),%r14
    4e58:	00 
    4e59:	4b 8b 04 37          	mov    (%r15,%r14,1),%rax
    4e5d:	4c 8b bc 24 68 00 00 	mov    0x68(%rsp),%r15
    4e64:	00 
    4e65:	4c 8b b4 24 58 00 00 	mov    0x58(%rsp),%r14
    4e6c:	00 
    4e6d:	4d 31 f7             	xor    %r14,%r15
    4e70:	4c 31 f8             	xor    %r15,%rax
    4e73:	4d 89 df             	mov    %r11,%r15
    4e76:	4c 8b b4 24 c8 00 00 	mov    0xc8(%rsp),%r14
    4e7d:	00 
    4e7e:	4b 89 04 37          	mov    %rax,(%r15,%r14,1)
    4e82:	49 8b 47 f0          	mov    -0x10(%r15),%rax
    4e86:	44 8b bc 24 08 01 00 	mov    0x108(%rsp),%r15d
    4e8d:	00 
    4e8e:	44 89 38             	mov    %r15d,(%rax)
    4e91:	48 81 c4 18 01 00 00 	add    $0x118,%rsp
    4e98:	41 5f                	pop    %r15
    4e9a:	41 5e                	pop    %r14
    4e9c:	41 5d                	pop    %r13
    4e9e:	41 5c                	pop    %r12
    4ea0:	5b                   	pop    %rbx
    4ea1:	5d                   	pop    %rbp
    4ea2:	c3                   	retq   
	...

0000000000004eb0 <guest_func_blake2b_init>:
    4eb0:	55                   	push   %rbp
    4eb1:	48 89 e5             	mov    %rsp,%rbp
    4eb4:	53                   	push   %rbx
    4eb5:	41 54                	push   %r12
    4eb7:	41 55                	push   %r13
    4eb9:	41 56                	push   %r14
    4ebb:	41 57                	push   %r15
    4ebd:	48 83 ec 38          	sub    $0x38,%rsp
    4ec1:	48 89 bc 24 18 00 00 	mov    %rdi,0x18(%rsp)
    4ec8:	00 
    4ec9:	89 b4 24 34 00 00 00 	mov    %esi,0x34(%rsp)
    4ed0:	89 8c 24 2c 00 00 00 	mov    %ecx,0x2c(%rsp)
    4ed7:	44 89 84 24 28 00 00 	mov    %r8d,0x28(%rsp)
    4ede:	00 
    4edf:	31 c0                	xor    %eax,%eax
    4ee1:	89 84 24 24 00 00 00 	mov    %eax,0x24(%rsp)
    4ee8:	31 c0                	xor    %eax,%eax
    4eea:	b9 ff ff ff ff       	mov    $0xffffffff,%ecx
    4eef:	89 d3                	mov    %edx,%ebx
    4ef1:	83 c3 ff             	add    $0xffffffff,%ebx
    4ef4:	83 fb 3f             	cmp    $0x3f,%ebx
    4ef7:	0f 87 86 03 00 00    	ja     5283 <guest_func_blake2b_init+0x3d3>
    4efd:	45 89 c7             	mov    %r8d,%r15d
    4f00:	41 83 ff 40          	cmp    $0x40,%r15d
    4f04:	0f 87 82 03 00 00    	ja     528c <guest_func_blake2b_init+0x3dc>
    4f0a:	b9 80 00 00 00       	mov    $0x80,%ecx
    4f0f:	89 8c 24 30 00 00 00 	mov    %ecx,0x30(%rsp)
    4f16:	41 89 f7             	mov    %esi,%r15d
    4f19:	41 81 c7 80 00 00 00 	add    $0x80,%r15d
    4f20:	b9 00 04 00 00       	mov    $0x400,%ecx
    4f25:	89 c9                	mov    %ecx,%ecx
    4f27:	49 89 fe             	mov    %rdi,%r14
    4f2a:	49 8b 0c 0e          	mov    (%r14,%rcx,1),%rcx
    4f2e:	44 89 fb             	mov    %r15d,%ebx
    4f31:	49 89 ff             	mov    %rdi,%r15
    4f34:	49 89 0c 1f          	mov    %rcx,(%r15,%rbx,1)
    4f38:	41 89 f7             	mov    %esi,%r15d
    4f3b:	44 89 f9             	mov    %r15d,%ecx
    4f3e:	49 89 ff             	mov    %rdi,%r15
    4f41:	49 89 84 0f c0 00 00 	mov    %rax,0xc0(%r15,%rcx,1)
    4f48:	00 
    4f49:	41 89 f7             	mov    %esi,%r15d
    4f4c:	41 81 c7 b8 00 00 00 	add    $0xb8,%r15d
    4f53:	be 38 04 00 00       	mov    $0x438,%esi
    4f58:	89 f6                	mov    %esi,%esi
    4f5a:	49 8b 34 36          	mov    (%r14,%rsi,1),%rsi
    4f5e:	44 89 ff             	mov    %r15d,%edi
    4f61:	4d 89 f7             	mov    %r14,%r15
    4f64:	49 89 34 3f          	mov    %rsi,(%r15,%rdi,1)
    4f68:	44 8b bc 24 34 00 00 	mov    0x34(%rsp),%r15d
    4f6f:	00 
    4f70:	41 81 c7 b0 00 00 00 	add    $0xb0,%r15d
    4f77:	be 30 04 00 00       	mov    $0x430,%esi
    4f7c:	89 f6                	mov    %esi,%esi
    4f7e:	49 8b 34 36          	mov    (%r14,%rsi,1),%rsi
    4f82:	44 89 ff             	mov    %r15d,%edi
    4f85:	4d 89 f7             	mov    %r14,%r15
    4f88:	49 89 34 3f          	mov    %rsi,(%r15,%rdi,1)
    4f8c:	44 8b bc 24 34 00 00 	mov    0x34(%rsp),%r15d
    4f93:	00 
    4f94:	41 81 c7 a8 00 00 00 	add    $0xa8,%r15d
    4f9b:	be 28 04 00 00       	mov    $0x428,%esi
    4fa0:	89 f6                	mov    %esi,%esi
    4fa2:	49 8b 34 36          	mov    (%r14,%rsi,1),%rsi
    4fa6:	44 89 ff             	mov    %r15d,%edi
    4fa9:	4d 89 f7             	mov    %r14,%r15
    4fac:	49 89 34 3f          	mov    %rsi,(%r15,%rdi,1)
    4fb0:	44 8b bc 24 34 00 00 	mov    0x34(%rsp),%r15d
    4fb7:	00 
    4fb8:	41 81 c7 a0 00 00 00 	add    $0xa0,%r15d
    4fbf:	be 20 04 00 00       	mov    $0x420,%esi
    4fc4:	89 f6                	mov    %esi,%esi
    4fc6:	49 8b 34 36          	mov    (%r14,%rsi,1),%rsi
    4fca:	44 89 ff             	mov    %r15d,%edi
    4fcd:	4d 89 f7             	mov    %r14,%r15
    4fd0:	49 89 34 3f          	mov    %rsi,(%r15,%rdi,1)
    4fd4:	44 8b bc 24 34 00 00 	mov    0x34(%rsp),%r15d
    4fdb:	00 
    4fdc:	41 81 c7 98 00 00 00 	add    $0x98,%r15d
    4fe3:	be 18 04 00 00       	mov    $0x418,%esi
    4fe8:	89 f6                	mov    %esi,%esi
    4fea:	49 8b 34 36          	mov    (%r14,%rsi,1),%rsi
    4fee:	44 89 ff             	mov    %r15d,%edi
    4ff1:	4d 89 f7             	mov    %r14,%r15
    4ff4:	49 89 34 3f          	mov    %rsi,(%r15,%rdi,1)
    4ff8:	44 8b bc 24 34 00 00 	mov    0x34(%rsp),%r15d
    4fff:	00 
    5000:	41 81 c7 90 00 00 00 	add    $0x90,%r15d
    5007:	be 10 04 00 00       	mov    $0x410,%esi
    500c:	89 f6                	mov    %esi,%esi
    500e:	49 8b 34 36          	mov    (%r14,%rsi,1),%rsi
    5012:	44 89 ff             	mov    %r15d,%edi
    5015:	4d 89 f7             	mov    %r14,%r15
    5018:	49 89 34 3f          	mov    %rsi,(%r15,%rdi,1)
    501c:	44 8b bc 24 34 00 00 	mov    0x34(%rsp),%r15d
    5023:	00 
    5024:	41 81 c7 88 00 00 00 	add    $0x88,%r15d
    502b:	be 08 04 00 00       	mov    $0x408,%esi
    5030:	89 f6                	mov    %esi,%esi
    5032:	49 8b 34 36          	mov    (%r14,%rsi,1),%rsi
    5036:	44 89 ff             	mov    %r15d,%edi
    5039:	4d 89 f7             	mov    %r14,%r15
    503c:	49 89 34 3f          	mov    %rsi,(%r15,%rdi,1)
    5040:	44 8b bc 24 34 00 00 	mov    0x34(%rsp),%r15d
    5047:	00 
    5048:	41 81 c7 c8 00 00 00 	add    $0xc8,%r15d
    504f:	44 89 fe             	mov    %r15d,%esi
    5052:	4d 89 f7             	mov    %r14,%r15
    5055:	49 89 04 37          	mov    %rax,(%r15,%rsi,1)
    5059:	44 8b bc 24 34 00 00 	mov    0x34(%rsp),%r15d
    5060:	00 
    5061:	41 81 c7 d0 00 00 00 	add    $0xd0,%r15d
    5068:	44 89 f8             	mov    %r15d,%eax
    506b:	44 8b bc 24 24 00 00 	mov    0x24(%rsp),%r15d
    5072:	00 
    5073:	45 89 3c 06          	mov    %r15d,(%r14,%rax,1)
    5077:	45 89 c7             	mov    %r8d,%r15d
    507a:	41 c1 e7 08          	shl    $0x8,%r15d
    507e:	41 31 d7             	xor    %edx,%r15d
    5081:	41 81 f7 00 00 01 01 	xor    $0x1010000,%r15d
    5088:	44 89 f8             	mov    %r15d,%eax
    508b:	48 be 08 c9 bc f3 67 	movabs $0x6a09e667f3bcc908,%rsi
    5092:	e6 09 6a 
    5095:	48 31 f0             	xor    %rsi,%rax
    5098:	4d 89 f7             	mov    %r14,%r15
    509b:	49 89 04 1f          	mov    %rax,(%r15,%rbx,1)
    509f:	41 89 94 0f d4 00 00 	mov    %edx,0xd4(%r15,%rcx,1)
    50a6:	00 
    50a7:	44 8b bc 24 34 00 00 	mov    0x34(%rsp),%r15d
    50ae:	00 
    50af:	45 89 c6             	mov    %r8d,%r14d
    50b2:	45 01 f7             	add    %r14d,%r15d
    50b5:	44 8b b4 24 30 00 00 	mov    0x30(%rsp),%r14d
    50bc:	00 
    50bd:	45 89 c5             	mov    %r8d,%r13d
    50c0:	45 29 ee             	sub    %r13d,%r14d
    50c3:	4c 8b ac 24 18 00 00 	mov    0x18(%rsp),%r13
    50ca:	00 
    50cb:	44 8b a4 24 24 00 00 	mov    0x24(%rsp),%r12d
    50d2:	00 
    50d3:	4c 89 ef             	mov    %r13,%rdi
    50d6:	44 89 fe             	mov    %r15d,%esi
    50d9:	44 89 e2             	mov    %r12d,%edx
    50dc:	44 89 f1             	mov    %r14d,%ecx
    50df:	e8 7c 19 00 00       	callq  6a60 <guest_func_memset>
    50e4:	44 8b bc 24 28 00 00 	mov    0x28(%rsp),%r15d
    50eb:	00 
    50ec:	45 85 ff             	test   %r15d,%r15d
    50ef:	0f 84 9e 01 00 00    	je     5293 <guest_func_blake2b_init+0x3e3>
    50f5:	44 8b bc 24 34 00 00 	mov    0x34(%rsp),%r15d
    50fc:	00 
    50fd:	41 81 c7 c0 00 00 00 	add    $0xc0,%r15d
    5104:	44 89 f8             	mov    %r15d,%eax
    5107:	48 89 84 24 10 00 00 	mov    %rax,0x10(%rsp)
    510e:	00 
    510f:	44 8b bc 24 24 00 00 	mov    0x24(%rsp),%r15d
    5116:	00 
    5117:	44 89 bc 24 20 00 00 	mov    %r15d,0x20(%rsp)
    511e:	00 
    511f:	44 8b bc 24 34 00 00 	mov    0x34(%rsp),%r15d
    5126:	00 
    5127:	44 89 f8             	mov    %r15d,%eax
    512a:	48 89 84 24 08 00 00 	mov    %rax,0x8(%rsp)
    5131:	00 
    5132:	4c 8b bc 24 18 00 00 	mov    0x18(%rsp),%r15
    5139:	00 
    513a:	49 89 c6             	mov    %rax,%r14
    513d:	43 8b 84 37 d0 00 00 	mov    0xd0(%r15,%r14,1),%eax
    5144:	00 
    5145:	81 f8 80 00 00 00    	cmp    $0x80,%eax
    514b:	0f 85 85 00 00 00    	jne    51d6 <guest_func_blake2b_init+0x326>
    5151:	4c 8b b4 24 10 00 00 	mov    0x10(%rsp),%r14
    5158:	00 
    5159:	4b 8b 04 37          	mov    (%r15,%r14,1),%rax
    515d:	48 89 c1             	mov    %rax,%rcx
    5160:	48 81 c1 80 00 00 00 	add    $0x80,%rcx
    5167:	4b 89 0c 37          	mov    %rcx,(%r15,%r14,1)
    516b:	48 83 f8 80          	cmp    $0xffffffffffffff80,%rax
    516f:	72 1c                	jb     518d <guest_func_blake2b_init+0x2dd>
    5171:	4c 8b b4 24 08 00 00 	mov    0x8(%rsp),%r14
    5178:	00 
    5179:	4b 8b 84 37 c8 00 00 	mov    0xc8(%r15,%r14,1),%rax
    5180:	00 
    5181:	48 83 c0 01          	add    $0x1,%rax
    5185:	4b 89 84 37 c8 00 00 	mov    %rax,0xc8(%r15,%r14,1)
    518c:	00 
    518d:	4c 8b bc 24 18 00 00 	mov    0x18(%rsp),%r15
    5194:	00 
    5195:	44 8b b4 24 34 00 00 	mov    0x34(%rsp),%r14d
    519c:	00 
    519d:	44 8b ac 24 24 00 00 	mov    0x24(%rsp),%r13d
    51a4:	00 
    51a5:	4c 89 ff             	mov    %r15,%rdi
    51a8:	44 89 f6             	mov    %r14d,%esi
    51ab:	44 89 ea             	mov    %r13d,%edx
    51ae:	e8 ad ef ff ff       	callq  4160 <guest_func_2>
    51b3:	44 8b bc 24 24 00 00 	mov    0x24(%rsp),%r15d
    51ba:	00 
    51bb:	4c 8b b4 24 18 00 00 	mov    0x18(%rsp),%r14
    51c2:	00 
    51c3:	4c 8b ac 24 08 00 00 	mov    0x8(%rsp),%r13
    51ca:	00 
    51cb:	47 89 bc 2e d0 00 00 	mov    %r15d,0xd0(%r14,%r13,1)
    51d2:	00 
    51d3:	44 89 f8             	mov    %r15d,%eax
    51d6:	44 8b bc 24 2c 00 00 	mov    0x2c(%rsp),%r15d
    51dd:	00 
    51de:	44 89 f9             	mov    %r15d,%ecx
    51e1:	4c 8b bc 24 18 00 00 	mov    0x18(%rsp),%r15
    51e8:	00 
    51e9:	41 0f b6 0c 0f       	movzbl (%r15,%rcx,1),%ecx
    51ee:	89 c2                	mov    %eax,%edx
    51f0:	83 c2 01             	add    $0x1,%edx
    51f3:	44 8b bc 24 34 00 00 	mov    0x34(%rsp),%r15d
    51fa:	00 
    51fb:	44 89 fb             	mov    %r15d,%ebx
    51fe:	4c 8b bc 24 18 00 00 	mov    0x18(%rsp),%r15
    5205:	00 
    5206:	41 89 94 1f d0 00 00 	mov    %edx,0xd0(%r15,%rbx,1)
    520d:	00 
    520e:	44 8b bc 24 34 00 00 	mov    0x34(%rsp),%r15d
    5215:	00 
    5216:	41 01 c7             	add    %eax,%r15d
    5219:	44 89 f8             	mov    %r15d,%eax
    521c:	4c 8b bc 24 18 00 00 	mov    0x18(%rsp),%r15
    5223:	00 
    5224:	41 88 0c 07          	mov    %cl,(%r15,%rax,1)
    5228:	44 8b bc 24 2c 00 00 	mov    0x2c(%rsp),%r15d
    522f:	00 
    5230:	41 83 c7 01          	add    $0x1,%r15d
    5234:	44 89 bc 24 2c 00 00 	mov    %r15d,0x2c(%rsp)
    523b:	00 
    523c:	44 8b bc 24 28 00 00 	mov    0x28(%rsp),%r15d
    5243:	00 
    5244:	41 83 c7 ff          	add    $0xffffffff,%r15d
    5248:	44 89 bc 24 28 00 00 	mov    %r15d,0x28(%rsp)
    524f:	00 
    5250:	45 85 ff             	test   %r15d,%r15d
    5253:	0f 85 c6 fe ff ff    	jne    511f <guest_func_blake2b_init+0x26f>
    5259:	44 8b bc 24 30 00 00 	mov    0x30(%rsp),%r15d
    5260:	00 
    5261:	4c 8b b4 24 18 00 00 	mov    0x18(%rsp),%r14
    5268:	00 
    5269:	45 89 bc 1e d0 00 00 	mov    %r15d,0xd0(%r14,%rbx,1)
    5270:	00 
    5271:	44 8b bc 24 20 00 00 	mov    0x20(%rsp),%r15d
    5278:	00 
    5279:	44 89 bc 24 24 00 00 	mov    %r15d,0x24(%rsp)
    5280:	00 
    5281:	eb 10                	jmp    5293 <guest_func_blake2b_init+0x3e3>
    5283:	89 8c 24 24 00 00 00 	mov    %ecx,0x24(%rsp)
    528a:	eb 07                	jmp    5293 <guest_func_blake2b_init+0x3e3>
    528c:	89 8c 24 24 00 00 00 	mov    %ecx,0x24(%rsp)
    5293:	44 8b bc 24 24 00 00 	mov    0x24(%rsp),%r15d
    529a:	00 
    529b:	44 89 f8             	mov    %r15d,%eax
    529e:	48 83 c4 38          	add    $0x38,%rsp
    52a2:	41 5f                	pop    %r15
    52a4:	41 5e                	pop    %r14
    52a6:	41 5d                	pop    %r13
    52a8:	41 5c                	pop    %r12
    52aa:	5b                   	pop    %rbx
    52ab:	5d                   	pop    %rbp
    52ac:	c3                   	retq   
    52ad:	00 00                	add    %al,(%rax)
	...

00000000000052b0 <guest_func_malloc_usable_size>:
    52b0:	55                   	push   %rbp
    52b1:	48 89 e5             	mov    %rsp,%rbp
    52b4:	53                   	push   %rbx
    52b5:	31 c0                	xor    %eax,%eax
    52b7:	85 f6                	test   %esi,%esi
    52b9:	74 2d                	je     52e8 <guest_func_malloc_usable_size+0x38>
    52bb:	b9 fc ff ff ff       	mov    $0xfffffffc,%ecx
    52c0:	83 c6 fc             	add    $0xfffffffc,%esi
    52c3:	89 f2                	mov    %esi,%edx
    52c5:	8b 14 17             	mov    (%rdi,%rdx,1),%edx
    52c8:	89 d3                	mov    %edx,%ebx
    52ca:	83 e3 03             	and    $0x3,%ebx
    52cd:	83 fb 01             	cmp    $0x1,%ebx
    52d0:	74 16                	je     52e8 <guest_func_malloc_usable_size+0x38>
    52d2:	b8 f8 ff ff ff       	mov    $0xfffffff8,%eax
    52d7:	83 e2 f8             	and    $0xfffffff8,%edx
    52da:	85 db                	test   %ebx,%ebx
    52dc:	75 02                	jne    52e0 <guest_func_malloc_usable_size+0x30>
    52de:	89 c1                	mov    %eax,%ecx
    52e0:	01 ca                	add    %ecx,%edx
    52e2:	40 89 d0             	rex mov %edx,%eax
    52e5:	5b                   	pop    %rbx
    52e6:	5d                   	pop    %rbp
    52e7:	c3                   	retq   
    52e8:	5b                   	pop    %rbx
    52e9:	5d                   	pop    %rbp
    52ea:	c3                   	retq   
    52eb:	00 00                	add    %al,(%rax)
    52ed:	00 00                	add    %al,(%rax)
	...

00000000000052f0 <guest_func_sbrk>:
    52f0:	55                   	push   %rbp
    52f1:	48 89 e5             	mov    %rsp,%rbp
    52f4:	41 57                	push   %r15
    52f6:	48 83 ec 18          	sub    $0x18,%rsp
    52fa:	48 89 bc 24 08 00 00 	mov    %rdi,0x8(%rsp)
    5301:	00 
    5302:	85 f6                	test   %esi,%esi
    5304:	75 16                	jne    531c <guest_func_sbrk+0x2c>
    5306:	49 89 ff             	mov    %rdi,%r15
    5309:	4c 89 ff             	mov    %r15,%rdi
    530c:	e8 3f b9 ff ff       	callq  c50 <lucet_vmctx_current_memory@plt>
    5311:	c1 e0 10             	shl    $0x10,%eax
    5314:	48 83 c4 18          	add    $0x18,%rsp
    5318:	41 5f                	pop    %r15
    531a:	5d                   	pop    %rbp
    531b:	c3                   	retq   
    531c:	89 f0                	mov    %esi,%eax
    531e:	81 e0 ff ff 00 00    	and    $0xffff,%eax
    5324:	85 c0                	test   %eax,%eax
    5326:	75 5a                	jne    5382 <guest_func_sbrk+0x92>
    5328:	b8 ff ff ff ff       	mov    $0xffffffff,%eax
    532d:	89 84 24 14 00 00 00 	mov    %eax,0x14(%rsp)
    5334:	83 fe ff             	cmp    $0xffffffff,%esi
    5337:	7e 49                	jle    5382 <guest_func_sbrk+0x92>
    5339:	c1 ee 10             	shr    $0x10,%esi
    533c:	49 89 ff             	mov    %rdi,%r15
    533f:	4c 89 ff             	mov    %r15,%rdi
    5342:	e8 f9 b8 ff ff       	callq  c40 <lucet_vmctx_grow_memory@plt>
    5347:	83 f8 ff             	cmp    $0xffffffff,%eax
    534a:	75 2b                	jne    5377 <guest_func_sbrk+0x87>
    534c:	b8 f0 06 00 00       	mov    $0x6f0,%eax
    5351:	b9 30 00 00 00       	mov    $0x30,%ecx
    5356:	89 c0                	mov    %eax,%eax
    5358:	4c 8b bc 24 08 00 00 	mov    0x8(%rsp),%r15
    535f:	00 
    5360:	41 89 0c 07          	mov    %ecx,(%r15,%rax,1)
    5364:	44 8b bc 24 14 00 00 	mov    0x14(%rsp),%r15d
    536b:	00 
    536c:	44 89 f8             	mov    %r15d,%eax
    536f:	48 83 c4 18          	add    $0x18,%rsp
    5373:	41 5f                	pop    %r15
    5375:	5d                   	pop    %rbp
    5376:	c3                   	retq   
    5377:	c1 e0 10             	shl    $0x10,%eax
    537a:	48 83 c4 18          	add    $0x18,%rsp
    537e:	41 5f                	pop    %r15
    5380:	5d                   	pop    %rbp
    5381:	c3                   	retq   
    5382:	0f 0b                	ud2    
	...

0000000000005390 <guest_func_free>:
    5390:	55                   	push   %rbp
    5391:	48 89 e5             	mov    %rsp,%rbp
    5394:	e8 e7 1e 00 00       	callq  7280 <guest_func_10>
    5399:	5d                   	pop    %rbp
    539a:	c3                   	retq   
    539b:	00 00                	add    %al,(%rax)
    539d:	00 00                	add    %al,(%rax)
	...

00000000000053a0 <guest_func_posix_memalign>:
    53a0:	55                   	push   %rbp
    53a1:	48 89 e5             	mov    %rsp,%rbp
    53a4:	53                   	push   %rbx
    53a5:	41 57                	push   %r15
    53a7:	48 83 ec 10          	sub    $0x10,%rsp
    53ab:	48 89 bc 24 00 00 00 	mov    %rdi,0x0(%rsp)
    53b2:	00 
    53b3:	89 b4 24 0c 00 00 00 	mov    %esi,0xc(%rsp)
    53ba:	31 c0                	xor    %eax,%eax
    53bc:	89 84 24 08 00 00 00 	mov    %eax,0x8(%rsp)
    53c3:	b8 10 00 00 00       	mov    $0x10,%eax
    53c8:	83 fa 10             	cmp    $0x10,%edx
    53cb:	75 10                	jne    53dd <guest_func_posix_memalign+0x3d>
    53cd:	49 89 ff             	mov    %rdi,%r15
    53d0:	4c 89 ff             	mov    %r15,%rdi
    53d3:	40 89 ce             	rex mov %ecx,%esi
    53d6:	e8 15 c1 ff ff       	callq  14f0 <guest_func_8>
    53db:	eb 49                	jmp    5426 <guest_func_posix_memalign+0x86>
    53dd:	bb 1c 00 00 00       	mov    $0x1c,%ebx
    53e2:	89 d6                	mov    %edx,%esi
    53e4:	83 e6 03             	and    $0x3,%esi
    53e7:	85 f6                	test   %esi,%esi
    53e9:	75 6f                	jne    545a <guest_func_posix_memalign+0xba>
    53eb:	89 d6                	mov    %edx,%esi
    53ed:	c1 ee 02             	shr    $0x2,%esi
    53f0:	f3 0f b8 f6          	popcnt %esi,%esi
    53f4:	83 fe 01             	cmp    $0x1,%esi
    53f7:	75 61                	jne    545a <guest_func_posix_memalign+0xba>
    53f9:	bb 30 00 00 00       	mov    $0x30,%ebx
    53fe:	be c0 ff ff ff       	mov    $0xffffffc0,%esi
    5403:	29 d6                	sub    %edx,%esi
    5405:	39 ce                	cmp    %ecx,%esi
    5407:	72 51                	jb     545a <guest_func_posix_memalign+0xba>
    5409:	83 fa 10             	cmp    $0x10,%edx
    540c:	77 02                	ja     5410 <guest_func_posix_memalign+0x70>
    540e:	89 c2                	mov    %eax,%edx
    5410:	4c 8b bc 24 00 00 00 	mov    0x0(%rsp),%r15
    5417:	00 
    5418:	4c 89 ff             	mov    %r15,%rdi
    541b:	40 89 d6             	rex mov %edx,%esi
    541e:	40 89 ca             	rex mov %ecx,%edx
    5421:	e8 6a 11 00 00       	callq  6590 <guest_func_15>
    5426:	85 c0                	test   %eax,%eax
    5428:	75 0e                	jne    5438 <guest_func_posix_memalign+0x98>
    542a:	b8 30 00 00 00       	mov    $0x30,%eax
    542f:	48 83 c4 10          	add    $0x10,%rsp
    5433:	41 5f                	pop    %r15
    5435:	5b                   	pop    %rbx
    5436:	5d                   	pop    %rbp
    5437:	c3                   	retq   
    5438:	44 8b bc 24 0c 00 00 	mov    0xc(%rsp),%r15d
    543f:	00 
    5440:	44 89 f9             	mov    %r15d,%ecx
    5443:	4c 8b bc 24 00 00 00 	mov    0x0(%rsp),%r15
    544a:	00 
    544b:	41 89 04 0f          	mov    %eax,(%r15,%rcx,1)
    544f:	44 8b bc 24 08 00 00 	mov    0x8(%rsp),%r15d
    5456:	00 
    5457:	44 89 fb             	mov    %r15d,%ebx
    545a:	40 89 d8             	rex mov %ebx,%eax
    545d:	48 83 c4 10          	add    $0x10,%rsp
    5461:	41 5f                	pop    %r15
    5463:	5b                   	pop    %rbx
    5464:	5d                   	pop    %rbp
    5465:	c3                   	retq   
	...

0000000000005470 <guest_func_abort>:
    5470:	55                   	push   %rbp
    5471:	48 89 e5             	mov    %rsp,%rbp
    5474:	0f 0b                	ud2    
	...

0000000000005480 <guest_func_blake2b_final>:
    5480:	55                   	push   %rbp
    5481:	48 89 e5             	mov    %rsp,%rbp
    5484:	53                   	push   %rbx
    5485:	41 54                	push   %r12
    5487:	41 55                	push   %r13
    5489:	41 56                	push   %r14
    548b:	41 57                	push   %r15
    548d:	48 83 ec 18          	sub    $0x18,%rsp
    5491:	48 89 bc 24 00 00 00 	mov    %rdi,0x0(%rsp)
    5498:	00 
    5499:	89 b4 24 0c 00 00 00 	mov    %esi,0xc(%rsp)
    54a0:	89 94 24 14 00 00 00 	mov    %edx,0x14(%rsp)
    54a7:	31 c0                	xor    %eax,%eax
    54a9:	89 84 24 10 00 00 00 	mov    %eax,0x10(%rsp)
    54b0:	41 89 f7             	mov    %esi,%r15d
    54b3:	44 89 f8             	mov    %r15d,%eax
    54b6:	49 89 ff             	mov    %rdi,%r15
    54b9:	49 8b 8c 07 c0 00 00 	mov    0xc0(%r15,%rax,1),%rcx
    54c0:	00 
    54c1:	41 8b 94 07 d0 00 00 	mov    0xd0(%r15,%rax,1),%edx
    54c8:	00 
    54c9:	89 d3                	mov    %edx,%ebx
    54cb:	48 89 ce             	mov    %rcx,%rsi
    54ce:	48 01 de             	add    %rbx,%rsi
    54d1:	49 89 b4 07 c0 00 00 	mov    %rsi,0xc0(%r15,%rax,1)
    54d8:	00 
    54d9:	48 39 ce             	cmp    %rcx,%rsi
    54dc:	73 21                	jae    54ff <guest_func_blake2b_final+0x7f>
    54de:	44 8b bc 24 0c 00 00 	mov    0xc(%rsp),%r15d
    54e5:	00 
    54e6:	41 81 c7 c8 00 00 00 	add    $0xc8,%r15d
    54ed:	44 89 f9             	mov    %r15d,%ecx
    54f0:	49 89 ff             	mov    %rdi,%r15
    54f3:	49 8b 1c 0f          	mov    (%r15,%rcx,1),%rbx
    54f7:	48 83 c3 01          	add    $0x1,%rbx
    54fb:	49 89 1c 0f          	mov    %rbx,(%r15,%rcx,1)
    54ff:	83 fa 7f             	cmp    $0x7f,%edx
    5502:	77 52                	ja     5556 <guest_func_blake2b_final+0xd6>
    5504:	eb 03                	jmp    5509 <guest_func_blake2b_final+0x89>
    5506:	40 89 ca             	rex mov %ecx,%edx
    5509:	89 d1                	mov    %edx,%ecx
    550b:	83 c1 01             	add    $0x1,%ecx
    550e:	4c 8b bc 24 00 00 00 	mov    0x0(%rsp),%r15
    5515:	00 
    5516:	41 89 8c 07 d0 00 00 	mov    %ecx,0xd0(%r15,%rax,1)
    551d:	00 
    551e:	44 8b bc 24 0c 00 00 	mov    0xc(%rsp),%r15d
    5525:	00 
    5526:	41 01 d7             	add    %edx,%r15d
    5529:	44 89 f9             	mov    %r15d,%ecx
    552c:	44 8b bc 24 10 00 00 	mov    0x10(%rsp),%r15d
    5533:	00 
    5534:	4c 8b b4 24 00 00 00 	mov    0x0(%rsp),%r14
    553b:	00 
    553c:	44 89 fa             	mov    %r15d,%edx
    553f:	41 88 14 0e          	mov    %dl,(%r14,%rcx,1)
    5543:	4d 89 f7             	mov    %r14,%r15
    5546:	41 8b 8c 07 d0 00 00 	mov    0xd0(%r15,%rax,1),%ecx
    554d:	00 
    554e:	81 f9 80 00 00 00    	cmp    $0x80,%ecx
    5554:	72 b0                	jb     5506 <guest_func_blake2b_final+0x86>
    5556:	b8 01 00 00 00       	mov    $0x1,%eax
    555b:	4c 8b bc 24 00 00 00 	mov    0x0(%rsp),%r15
    5562:	00 
    5563:	44 8b b4 24 0c 00 00 	mov    0xc(%rsp),%r14d
    556a:	00 
    556b:	4c 89 ff             	mov    %r15,%rdi
    556e:	44 89 f6             	mov    %r14d,%esi
    5571:	40 89 c2             	rex mov %eax,%edx
    5574:	e8 e7 eb ff ff       	callq  4160 <guest_func_2>
    5579:	44 8b bc 24 0c 00 00 	mov    0xc(%rsp),%r15d
    5580:	00 
    5581:	44 89 f8             	mov    %r15d,%eax
    5584:	4c 8b bc 24 00 00 00 	mov    0x0(%rsp),%r15
    558b:	00 
    558c:	41 8b 8c 07 d4 00 00 	mov    0xd4(%r15,%rax,1),%ecx
    5593:	00 
    5594:	85 c9                	test   %ecx,%ecx
    5596:	74 7d                	je     5615 <guest_func_blake2b_final+0x195>
    5598:	44 8b bc 24 10 00 00 	mov    0x10(%rsp),%r15d
    559f:	00 
    55a0:	45 89 fe             	mov    %r15d,%r14d
    55a3:	eb 06                	jmp    55ab <guest_func_blake2b_final+0x12b>
    55a5:	41 89 d7             	mov    %edx,%r15d
    55a8:	41 89 ce             	mov    %ecx,%r14d
    55ab:	44 8b ac 24 14 00 00 	mov    0x14(%rsp),%r13d
    55b2:	00 
    55b3:	45 01 fd             	add    %r15d,%r13d
    55b6:	44 89 f9             	mov    %r15d,%ecx
    55b9:	83 e1 f8             	and    $0xfffffff8,%ecx
    55bc:	44 8b a4 24 0c 00 00 	mov    0xc(%rsp),%r12d
    55c3:	00 
    55c4:	44 01 e1             	add    %r12d,%ecx
    55c7:	81 c1 80 00 00 00    	add    $0x80,%ecx
    55cd:	89 c9                	mov    %ecx,%ecx
    55cf:	4c 8b a4 24 00 00 00 	mov    0x0(%rsp),%r12
    55d6:	00 
    55d7:	49 8b 0c 0c          	mov    (%r12,%rcx,1),%rcx
    55db:	44 89 f2             	mov    %r14d,%edx
    55de:	83 e2 38             	and    $0x38,%edx
    55e1:	89 d2                	mov    %edx,%edx
    55e3:	48 89 cb             	mov    %rcx,%rbx
    55e6:	48 89 d1             	mov    %rdx,%rcx
    55e9:	48 89 da             	mov    %rbx,%rdx
    55ec:	48 d3 ea             	shr    %cl,%rdx
    55ef:	44 89 e9             	mov    %r13d,%ecx
    55f2:	4d 89 e5             	mov    %r12,%r13
    55f5:	41 88 54 0d 00       	mov    %dl,0x0(%r13,%rcx,1)
    55fa:	44 89 f1             	mov    %r14d,%ecx
    55fd:	83 c1 08             	add    $0x8,%ecx
    5600:	44 89 fa             	mov    %r15d,%edx
    5603:	83 c2 01             	add    $0x1,%edx
    5606:	4d 89 e7             	mov    %r12,%r15
    5609:	41 8b 9c 07 d4 00 00 	mov    0xd4(%r15,%rax,1),%ebx
    5610:	00 
    5611:	39 da                	cmp    %ebx,%edx
    5613:	72 90                	jb     55a5 <guest_func_blake2b_final+0x125>
    5615:	44 8b bc 24 10 00 00 	mov    0x10(%rsp),%r15d
    561c:	00 
    561d:	44 89 f8             	mov    %r15d,%eax
    5620:	48 83 c4 18          	add    $0x18,%rsp
    5624:	41 5f                	pop    %r15
    5626:	41 5e                	pop    %r14
    5628:	41 5d                	pop    %r13
    562a:	41 5c                	pop    %r12
    562c:	5b                   	pop    %rbx
    562d:	5d                   	pop    %rbp
    562e:	c3                   	retq   
	...

0000000000005630 <guest_func_blake2b>:
    5630:	55                   	push   %rbp
    5631:	48 89 e5             	mov    %rsp,%rbp
    5634:	53                   	push   %rbx
    5635:	41 54                	push   %r12
    5637:	41 55                	push   %r13
    5639:	41 56                	push   %r14
    563b:	41 57                	push   %r15
    563d:	48 83 ec 38          	sub    $0x38,%rsp
    5641:	48 89 bc 24 10 00 00 	mov    %rdi,0x10(%rsp)
    5648:	00 
    5649:	89 b4 24 34 00 00 00 	mov    %esi,0x34(%rsp)
    5650:	89 8c 24 2c 00 00 00 	mov    %ecx,0x2c(%rsp)
    5657:	44 89 84 24 28 00 00 	mov    %r8d,0x28(%rsp)
    565e:	00 
    565f:	44 89 8c 24 24 00 00 	mov    %r9d,0x24(%rsp)
    5666:	00 
    5667:	31 c0                	xor    %eax,%eax
    5669:	89 84 24 20 00 00 00 	mov    %eax,0x20(%rsp)
    5670:	31 c0                	xor    %eax,%eax
    5672:	49 89 ff             	mov    %rdi,%r15
    5675:	49 8b 4f f0          	mov    -0x10(%r15),%rcx
    5679:	8b 09                	mov    (%rcx),%ecx
    567b:	89 cb                	mov    %ecx,%ebx
    567d:	81 c3 20 ff ff ff    	add    $0xffffff20,%ebx
    5683:	89 9c 24 30 00 00 00 	mov    %ebx,0x30(%rsp)
    568a:	49 8b 5f f0          	mov    -0x10(%r15),%rbx
    568e:	44 8b bc 24 30 00 00 	mov    0x30(%rsp),%r15d
    5695:	00 
    5696:	44 89 3b             	mov    %r15d,(%rbx)
    5699:	bb ff ff ff ff       	mov    $0xffffffff,%ebx
    569e:	89 d6                	mov    %edx,%esi
    56a0:	83 c6 ff             	add    $0xffffffff,%esi
    56a3:	83 fe 3f             	cmp    $0x3f,%esi
    56a6:	0f 87 98 05 00 00    	ja     5c44 <guest_func_blake2b+0x614>
    56ac:	45 89 c7             	mov    %r8d,%r15d
    56af:	41 83 ff 40          	cmp    $0x40,%r15d
    56b3:	0f 87 8b 05 00 00    	ja     5c44 <guest_func_blake2b+0x614>
    56b9:	89 cb                	mov    %ecx,%ebx
    56bb:	83 c3 e0             	add    $0xffffffe0,%ebx
    56be:	be 38 04 00 00       	mov    $0x438,%esi
    56c3:	89 f6                	mov    %esi,%esi
    56c5:	49 89 ff             	mov    %rdi,%r15
    56c8:	49 8b 34 37          	mov    (%r15,%rsi,1),%rsi
    56cc:	89 db                	mov    %ebx,%ebx
    56ce:	49 89 34 1f          	mov    %rsi,(%r15,%rbx,1)
    56d2:	89 cb                	mov    %ecx,%ebx
    56d4:	83 c3 d8             	add    $0xffffffd8,%ebx
    56d7:	be 30 04 00 00       	mov    $0x430,%esi
    56dc:	89 f6                	mov    %esi,%esi
    56de:	49 8b 34 37          	mov    (%r15,%rsi,1),%rsi
    56e2:	89 db                	mov    %ebx,%ebx
    56e4:	49 89 34 1f          	mov    %rsi,(%r15,%rbx,1)
    56e8:	89 cb                	mov    %ecx,%ebx
    56ea:	83 c3 d0             	add    $0xffffffd0,%ebx
    56ed:	be 28 04 00 00       	mov    $0x428,%esi
    56f2:	89 f6                	mov    %esi,%esi
    56f4:	49 8b 34 37          	mov    (%r15,%rsi,1),%rsi
    56f8:	89 db                	mov    %ebx,%ebx
    56fa:	49 89 34 1f          	mov    %rsi,(%r15,%rbx,1)
    56fe:	89 cb                	mov    %ecx,%ebx
    5700:	83 c3 c8             	add    $0xffffffc8,%ebx
    5703:	be 20 04 00 00       	mov    $0x420,%esi
    5708:	89 f6                	mov    %esi,%esi
    570a:	49 8b 34 37          	mov    (%r15,%rsi,1),%rsi
    570e:	89 db                	mov    %ebx,%ebx
    5710:	49 89 34 1f          	mov    %rsi,(%r15,%rbx,1)
    5714:	89 cb                	mov    %ecx,%ebx
    5716:	83 c3 c0             	add    $0xffffffc0,%ebx
    5719:	be 18 04 00 00       	mov    $0x418,%esi
    571e:	89 f6                	mov    %esi,%esi
    5720:	49 8b 34 37          	mov    (%r15,%rsi,1),%rsi
    5724:	89 db                	mov    %ebx,%ebx
    5726:	49 89 34 1f          	mov    %rsi,(%r15,%rbx,1)
    572a:	89 cb                	mov    %ecx,%ebx
    572c:	83 c3 b8             	add    $0xffffffb8,%ebx
    572f:	be 10 04 00 00       	mov    $0x410,%esi
    5734:	89 f6                	mov    %esi,%esi
    5736:	49 8b 34 37          	mov    (%r15,%rsi,1),%rsi
    573a:	89 db                	mov    %ebx,%ebx
    573c:	49 89 34 1f          	mov    %rsi,(%r15,%rbx,1)
    5740:	89 cb                	mov    %ecx,%ebx
    5742:	83 c3 b0             	add    $0xffffffb0,%ebx
    5745:	be 08 04 00 00       	mov    $0x408,%esi
    574a:	89 f6                	mov    %esi,%esi
    574c:	49 8b 34 37          	mov    (%r15,%rsi,1),%rsi
    5750:	89 db                	mov    %ebx,%ebx
    5752:	49 89 34 1f          	mov    %rsi,(%r15,%rbx,1)
    5756:	89 cb                	mov    %ecx,%ebx
    5758:	83 c3 f0             	add    $0xfffffff0,%ebx
    575b:	89 db                	mov    %ebx,%ebx
    575d:	49 89 04 1f          	mov    %rax,(%r15,%rbx,1)
    5761:	89 cb                	mov    %ecx,%ebx
    5763:	83 c3 f8             	add    $0xfffffff8,%ebx
    5766:	89 db                	mov    %ebx,%ebx
    5768:	44 8b bc 24 20 00 00 	mov    0x20(%rsp),%r15d
    576f:	00 
    5770:	49 89 fe             	mov    %rdi,%r14
    5773:	45 89 3c 1e          	mov    %r15d,(%r14,%rbx,1)
    5777:	44 8b bc 24 30 00 00 	mov    0x30(%rsp),%r15d
    577e:	00 
    577f:	44 89 fb             	mov    %r15d,%ebx
    5782:	49 89 ff             	mov    %rdi,%r15
    5785:	49 89 84 1f c8 00 00 	mov    %rax,0xc8(%r15,%rbx,1)
    578c:	00 
    578d:	45 89 c7             	mov    %r8d,%r15d
    5790:	41 c1 e7 08          	shl    $0x8,%r15d
    5794:	41 31 d7             	xor    %edx,%r15d
    5797:	41 81 f7 00 00 01 01 	xor    $0x1010000,%r15d
    579e:	44 89 f8             	mov    %r15d,%eax
    57a1:	48 be 08 c9 bc f3 67 	movabs $0x6a09e667f3bcc908,%rsi
    57a8:	e6 09 6a 
    57ab:	48 31 f0             	xor    %rsi,%rax
    57ae:	49 89 ff             	mov    %rdi,%r15
    57b1:	49 89 84 1f 88 00 00 	mov    %rax,0x88(%r15,%rbx,1)
    57b8:	00 
    57b9:	41 89 94 1f dc 00 00 	mov    %edx,0xdc(%r15,%rbx,1)
    57c0:	00 
    57c1:	81 c1 28 ff ff ff    	add    $0xffffff28,%ecx
    57c7:	45 89 c7             	mov    %r8d,%r15d
    57ca:	44 01 f9             	add    %r15d,%ecx
    57cd:	b8 80 00 00 00       	mov    $0x80,%eax
    57d2:	89 84 24 1c 00 00 00 	mov    %eax,0x1c(%rsp)
    57d9:	41 89 c7             	mov    %eax,%r15d
    57dc:	45 89 c6             	mov    %r8d,%r14d
    57df:	45 29 f7             	sub    %r14d,%r15d
    57e2:	49 89 fe             	mov    %rdi,%r14
    57e5:	44 8b ac 24 20 00 00 	mov    0x20(%rsp),%r13d
    57ec:	00 
    57ed:	4c 89 f7             	mov    %r14,%rdi
    57f0:	40 89 ce             	rex mov %ecx,%esi
    57f3:	44 89 ea             	mov    %r13d,%edx
    57f6:	44 89 f9             	mov    %r15d,%ecx
    57f9:	e8 62 12 00 00       	callq  6a60 <guest_func_memset>
    57fe:	44 8b bc 24 28 00 00 	mov    0x28(%rsp),%r15d
    5805:	00 
    5806:	45 85 ff             	test   %r15d,%r15d
    5809:	0f 84 64 01 00 00    	je     5973 <guest_func_blake2b+0x343>
    580f:	44 8b bc 24 70 00 00 	mov    0x70(%rsp),%r15d
    5816:	00 
    5817:	44 89 bc 24 18 00 00 	mov    %r15d,0x18(%rsp)
    581e:	00 
    581f:	44 8b bc 24 30 00 00 	mov    0x30(%rsp),%r15d
    5826:	00 
    5827:	44 89 f8             	mov    %r15d,%eax
    582a:	48 89 84 24 08 00 00 	mov    %rax,0x8(%rsp)
    5831:	00 
    5832:	4c 8b bc 24 10 00 00 	mov    0x10(%rsp),%r15
    5839:	00 
    583a:	49 89 c6             	mov    %rax,%r14
    583d:	43 8b 84 37 d8 00 00 	mov    0xd8(%r15,%r14,1),%eax
    5844:	00 
    5845:	81 f8 80 00 00 00    	cmp    $0x80,%eax
    584b:	0f 85 81 00 00 00    	jne    58d2 <guest_func_blake2b+0x2a2>
    5851:	4b 8b 84 37 c8 00 00 	mov    0xc8(%r15,%r14,1),%rax
    5858:	00 
    5859:	48 89 c1             	mov    %rax,%rcx
    585c:	48 81 c1 80 00 00 00 	add    $0x80,%rcx
    5863:	4b 89 8c 37 c8 00 00 	mov    %rcx,0xc8(%r15,%r14,1)
    586a:	00 
    586b:	48 83 f8 80          	cmp    $0xffffffffffffff80,%rax
    586f:	72 14                	jb     5885 <guest_func_blake2b+0x255>
    5871:	4b 8b 84 37 d0 00 00 	mov    0xd0(%r15,%r14,1),%rax
    5878:	00 
    5879:	48 83 c0 01          	add    $0x1,%rax
    587d:	4b 89 84 37 d0 00 00 	mov    %rax,0xd0(%r15,%r14,1)
    5884:	00 
    5885:	44 8b bc 24 30 00 00 	mov    0x30(%rsp),%r15d
    588c:	00 
    588d:	41 83 c7 08          	add    $0x8,%r15d
    5891:	4c 8b b4 24 10 00 00 	mov    0x10(%rsp),%r14
    5898:	00 
    5899:	44 8b ac 24 20 00 00 	mov    0x20(%rsp),%r13d
    58a0:	00 
    58a1:	4c 89 f7             	mov    %r14,%rdi
    58a4:	44 89 fe             	mov    %r15d,%esi
    58a7:	44 89 ea             	mov    %r13d,%edx
    58aa:	e8 b1 e8 ff ff       	callq  4160 <guest_func_2>
    58af:	44 8b bc 24 20 00 00 	mov    0x20(%rsp),%r15d
    58b6:	00 
    58b7:	4c 8b b4 24 10 00 00 	mov    0x10(%rsp),%r14
    58be:	00 
    58bf:	4c 8b ac 24 08 00 00 	mov    0x8(%rsp),%r13
    58c6:	00 
    58c7:	47 89 bc 2e d8 00 00 	mov    %r15d,0xd8(%r14,%r13,1)
    58ce:	00 
    58cf:	44 89 f8             	mov    %r15d,%eax
    58d2:	44 8b bc 24 2c 00 00 	mov    0x2c(%rsp),%r15d
    58d9:	00 
    58da:	44 89 f9             	mov    %r15d,%ecx
    58dd:	4c 8b bc 24 10 00 00 	mov    0x10(%rsp),%r15
    58e4:	00 
    58e5:	41 0f b6 0c 0f       	movzbl (%r15,%rcx,1),%ecx
    58ea:	89 c2                	mov    %eax,%edx
    58ec:	83 c2 01             	add    $0x1,%edx
    58ef:	44 8b bc 24 30 00 00 	mov    0x30(%rsp),%r15d
    58f6:	00 
    58f7:	44 89 fb             	mov    %r15d,%ebx
    58fa:	4c 8b bc 24 10 00 00 	mov    0x10(%rsp),%r15
    5901:	00 
    5902:	41 89 94 1f d8 00 00 	mov    %edx,0xd8(%r15,%rbx,1)
    5909:	00 
    590a:	44 8b bc 24 30 00 00 	mov    0x30(%rsp),%r15d
    5911:	00 
    5912:	41 83 c7 08          	add    $0x8,%r15d
    5916:	41 01 c7             	add    %eax,%r15d
    5919:	44 89 f8             	mov    %r15d,%eax
    591c:	4c 8b bc 24 10 00 00 	mov    0x10(%rsp),%r15
    5923:	00 
    5924:	41 88 0c 07          	mov    %cl,(%r15,%rax,1)
    5928:	44 8b bc 24 2c 00 00 	mov    0x2c(%rsp),%r15d
    592f:	00 
    5930:	41 83 c7 01          	add    $0x1,%r15d
    5934:	44 89 bc 24 2c 00 00 	mov    %r15d,0x2c(%rsp)
    593b:	00 
    593c:	44 8b bc 24 28 00 00 	mov    0x28(%rsp),%r15d
    5943:	00 
    5944:	41 83 c7 ff          	add    $0xffffffff,%r15d
    5948:	44 89 bc 24 28 00 00 	mov    %r15d,0x28(%rsp)
    594f:	00 
    5950:	45 85 ff             	test   %r15d,%r15d
    5953:	0f 85 c6 fe ff ff    	jne    581f <guest_func_blake2b+0x1ef>
    5959:	44 8b bc 24 1c 00 00 	mov    0x1c(%rsp),%r15d
    5960:	00 
    5961:	4c 8b b4 24 10 00 00 	mov    0x10(%rsp),%r14
    5968:	00 
    5969:	45 89 bc 1e d8 00 00 	mov    %r15d,0xd8(%r14,%rbx,1)
    5970:	00 
    5971:	eb 10                	jmp    5983 <guest_func_blake2b+0x353>
    5973:	44 8b bc 24 70 00 00 	mov    0x70(%rsp),%r15d
    597a:	00 
    597b:	44 89 bc 24 18 00 00 	mov    %r15d,0x18(%rsp)
    5982:	00 
    5983:	44 8b bc 24 18 00 00 	mov    0x18(%rsp),%r15d
    598a:	00 
    598b:	45 85 ff             	test   %r15d,%r15d
    598e:	0f 84 3a 01 00 00    	je     5ace <guest_func_blake2b+0x49e>
    5994:	44 8b bc 24 30 00 00 	mov    0x30(%rsp),%r15d
    599b:	00 
    599c:	44 89 f8             	mov    %r15d,%eax
    599f:	48 89 84 24 00 00 00 	mov    %rax,0x0(%rsp)
    59a6:	00 
    59a7:	4c 8b bc 24 10 00 00 	mov    0x10(%rsp),%r15
    59ae:	00 
    59af:	49 89 c6             	mov    %rax,%r14
    59b2:	43 8b 84 37 d8 00 00 	mov    0xd8(%r15,%r14,1),%eax
    59b9:	00 
    59ba:	81 f8 80 00 00 00    	cmp    $0x80,%eax
    59c0:	0f 85 81 00 00 00    	jne    5a47 <guest_func_blake2b+0x417>
    59c6:	4b 8b 84 37 c8 00 00 	mov    0xc8(%r15,%r14,1),%rax
    59cd:	00 
    59ce:	48 89 c1             	mov    %rax,%rcx
    59d1:	48 81 c1 80 00 00 00 	add    $0x80,%rcx
    59d8:	4b 89 8c 37 c8 00 00 	mov    %rcx,0xc8(%r15,%r14,1)
    59df:	00 
    59e0:	48 83 f8 80          	cmp    $0xffffffffffffff80,%rax
    59e4:	72 14                	jb     59fa <guest_func_blake2b+0x3ca>
    59e6:	4b 8b 84 37 d0 00 00 	mov    0xd0(%r15,%r14,1),%rax
    59ed:	00 
    59ee:	48 83 c0 01          	add    $0x1,%rax
    59f2:	4b 89 84 37 d0 00 00 	mov    %rax,0xd0(%r15,%r14,1)
    59f9:	00 
    59fa:	44 8b bc 24 30 00 00 	mov    0x30(%rsp),%r15d
    5a01:	00 
    5a02:	41 83 c7 08          	add    $0x8,%r15d
    5a06:	4c 8b b4 24 10 00 00 	mov    0x10(%rsp),%r14
    5a0d:	00 
    5a0e:	44 8b ac 24 20 00 00 	mov    0x20(%rsp),%r13d
    5a15:	00 
    5a16:	4c 89 f7             	mov    %r14,%rdi
    5a19:	44 89 fe             	mov    %r15d,%esi
    5a1c:	44 89 ea             	mov    %r13d,%edx
    5a1f:	e8 3c e7 ff ff       	callq  4160 <guest_func_2>
    5a24:	44 8b bc 24 20 00 00 	mov    0x20(%rsp),%r15d
    5a2b:	00 
    5a2c:	4c 8b b4 24 10 00 00 	mov    0x10(%rsp),%r14
    5a33:	00 
    5a34:	4c 8b ac 24 00 00 00 	mov    0x0(%rsp),%r13
    5a3b:	00 
    5a3c:	47 89 bc 2e d8 00 00 	mov    %r15d,0xd8(%r14,%r13,1)
    5a43:	00 
    5a44:	44 89 f8             	mov    %r15d,%eax
    5a47:	44 8b bc 24 24 00 00 	mov    0x24(%rsp),%r15d
    5a4e:	00 
    5a4f:	44 89 f9             	mov    %r15d,%ecx
    5a52:	4c 8b bc 24 10 00 00 	mov    0x10(%rsp),%r15
    5a59:	00 
    5a5a:	41 0f b6 0c 0f       	movzbl (%r15,%rcx,1),%ecx
    5a5f:	89 c2                	mov    %eax,%edx
    5a61:	83 c2 01             	add    $0x1,%edx
    5a64:	44 8b bc 24 30 00 00 	mov    0x30(%rsp),%r15d
    5a6b:	00 
    5a6c:	44 89 fb             	mov    %r15d,%ebx
    5a6f:	4c 8b bc 24 10 00 00 	mov    0x10(%rsp),%r15
    5a76:	00 
    5a77:	41 89 94 1f d8 00 00 	mov    %edx,0xd8(%r15,%rbx,1)
    5a7e:	00 
    5a7f:	44 8b bc 24 30 00 00 	mov    0x30(%rsp),%r15d
    5a86:	00 
    5a87:	41 83 c7 08          	add    $0x8,%r15d
    5a8b:	41 01 c7             	add    %eax,%r15d
    5a8e:	44 89 f8             	mov    %r15d,%eax
    5a91:	4c 8b bc 24 10 00 00 	mov    0x10(%rsp),%r15
    5a98:	00 
    5a99:	41 88 0c 07          	mov    %cl,(%r15,%rax,1)
    5a9d:	44 8b bc 24 24 00 00 	mov    0x24(%rsp),%r15d
    5aa4:	00 
    5aa5:	41 83 c7 01          	add    $0x1,%r15d
    5aa9:	44 89 bc 24 24 00 00 	mov    %r15d,0x24(%rsp)
    5ab0:	00 
    5ab1:	44 8b bc 24 18 00 00 	mov    0x18(%rsp),%r15d
    5ab8:	00 
    5ab9:	41 83 c7 ff          	add    $0xffffffff,%r15d
    5abd:	44 89 bc 24 18 00 00 	mov    %r15d,0x18(%rsp)
    5ac4:	00 
    5ac5:	45 85 ff             	test   %r15d,%r15d
    5ac8:	0f 85 c6 fe ff ff    	jne    5994 <guest_func_blake2b+0x364>
    5ace:	44 8b bc 24 30 00 00 	mov    0x30(%rsp),%r15d
    5ad5:	00 
    5ad6:	44 89 f8             	mov    %r15d,%eax
    5ad9:	4c 8b bc 24 10 00 00 	mov    0x10(%rsp),%r15
    5ae0:	00 
    5ae1:	49 8b 8c 07 c8 00 00 	mov    0xc8(%r15,%rax,1),%rcx
    5ae8:	00 
    5ae9:	41 8b 94 07 d8 00 00 	mov    0xd8(%r15,%rax,1),%edx
    5af0:	00 
    5af1:	89 d3                	mov    %edx,%ebx
    5af3:	48 89 ce             	mov    %rcx,%rsi
    5af6:	48 01 de             	add    %rbx,%rsi
    5af9:	49 89 b4 07 c8 00 00 	mov    %rsi,0xc8(%r15,%rax,1)
    5b00:	00 
    5b01:	48 39 ce             	cmp    %rcx,%rsi
    5b04:	73 14                	jae    5b1a <guest_func_blake2b+0x4ea>
    5b06:	49 8b 8c 07 d0 00 00 	mov    0xd0(%r15,%rax,1),%rcx
    5b0d:	00 
    5b0e:	48 83 c1 01          	add    $0x1,%rcx
    5b12:	49 89 8c 07 d0 00 00 	mov    %rcx,0xd0(%r15,%rax,1)
    5b19:	00 
    5b1a:	83 fa 7f             	cmp    $0x7f,%edx
    5b1d:	77 53                	ja     5b72 <guest_func_blake2b+0x542>
    5b1f:	44 8b bc 24 30 00 00 	mov    0x30(%rsp),%r15d
    5b26:	00 
    5b27:	44 89 f9             	mov    %r15d,%ecx
    5b2a:	83 c1 08             	add    $0x8,%ecx
    5b2d:	89 d3                	mov    %edx,%ebx
    5b2f:	83 c3 01             	add    $0x1,%ebx
    5b32:	4c 8b bc 24 10 00 00 	mov    0x10(%rsp),%r15
    5b39:	00 
    5b3a:	41 89 9c 07 d8 00 00 	mov    %ebx,0xd8(%r15,%rax,1)
    5b41:	00 
    5b42:	89 cb                	mov    %ecx,%ebx
    5b44:	01 d3                	add    %edx,%ebx
    5b46:	89 da                	mov    %ebx,%edx
    5b48:	44 8b bc 24 20 00 00 	mov    0x20(%rsp),%r15d
    5b4f:	00 
    5b50:	4c 8b b4 24 10 00 00 	mov    0x10(%rsp),%r14
    5b57:	00 
    5b58:	44 89 fb             	mov    %r15d,%ebx
    5b5b:	41 88 1c 16          	mov    %bl,(%r14,%rdx,1)
    5b5f:	4d 89 f7             	mov    %r14,%r15
    5b62:	41 8b 94 07 d8 00 00 	mov    0xd8(%r15,%rax,1),%edx
    5b69:	00 
    5b6a:	81 fa 80 00 00 00    	cmp    $0x80,%edx
    5b70:	72 bb                	jb     5b2d <guest_func_blake2b+0x4fd>
    5b72:	44 8b bc 24 30 00 00 	mov    0x30(%rsp),%r15d
    5b79:	00 
    5b7a:	41 83 c7 08          	add    $0x8,%r15d
    5b7e:	b8 01 00 00 00       	mov    $0x1,%eax
    5b83:	4c 8b b4 24 10 00 00 	mov    0x10(%rsp),%r14
    5b8a:	00 
    5b8b:	4c 89 f7             	mov    %r14,%rdi
    5b8e:	44 89 fe             	mov    %r15d,%esi
    5b91:	40 89 c2             	rex mov %eax,%edx
    5b94:	e8 c7 e5 ff ff       	callq  4160 <guest_func_2>
    5b99:	44 8b bc 24 30 00 00 	mov    0x30(%rsp),%r15d
    5ba0:	00 
    5ba1:	44 89 f8             	mov    %r15d,%eax
    5ba4:	4c 8b bc 24 10 00 00 	mov    0x10(%rsp),%r15
    5bab:	00 
    5bac:	41 8b 84 07 dc 00 00 	mov    0xdc(%r15,%rax,1),%eax
    5bb3:	00 
    5bb4:	85 c0                	test   %eax,%eax
    5bb6:	75 0d                	jne    5bc5 <guest_func_blake2b+0x595>
    5bb8:	44 8b bc 24 20 00 00 	mov    0x20(%rsp),%r15d
    5bbf:	00 
    5bc0:	44 89 fb             	mov    %r15d,%ebx
    5bc3:	eb 7f                	jmp    5c44 <guest_func_blake2b+0x614>
    5bc5:	44 8b bc 24 20 00 00 	mov    0x20(%rsp),%r15d
    5bcc:	00 
    5bcd:	45 89 fe             	mov    %r15d,%r14d
    5bd0:	eb 06                	jmp    5bd8 <guest_func_blake2b+0x5a8>
    5bd2:	41 89 d7             	mov    %edx,%r15d
    5bd5:	41 89 ce             	mov    %ecx,%r14d
    5bd8:	44 8b ac 24 34 00 00 	mov    0x34(%rsp),%r13d
    5bdf:	00 
    5be0:	45 01 fd             	add    %r15d,%r13d
    5be3:	44 89 f9             	mov    %r15d,%ecx
    5be6:	83 e1 f8             	and    $0xfffffff8,%ecx
    5be9:	44 8b a4 24 30 00 00 	mov    0x30(%rsp),%r12d
    5bf0:	00 
    5bf1:	41 01 cc             	add    %ecx,%r12d
    5bf4:	41 81 c4 88 00 00 00 	add    $0x88,%r12d
    5bfb:	44 89 e1             	mov    %r12d,%ecx
    5bfe:	4c 8b a4 24 10 00 00 	mov    0x10(%rsp),%r12
    5c05:	00 
    5c06:	49 8b 0c 0c          	mov    (%r12,%rcx,1),%rcx
    5c0a:	44 89 f2             	mov    %r14d,%edx
    5c0d:	83 e2 38             	and    $0x38,%edx
    5c10:	89 d2                	mov    %edx,%edx
    5c12:	48 89 cb             	mov    %rcx,%rbx
    5c15:	48 89 d1             	mov    %rdx,%rcx
    5c18:	48 89 da             	mov    %rbx,%rdx
    5c1b:	48 d3 ea             	shr    %cl,%rdx
    5c1e:	44 89 e9             	mov    %r13d,%ecx
    5c21:	4d 89 e5             	mov    %r12,%r13
    5c24:	41 88 54 0d 00       	mov    %dl,0x0(%r13,%rcx,1)
    5c29:	44 89 f1             	mov    %r14d,%ecx
    5c2c:	83 c1 08             	add    $0x8,%ecx
    5c2f:	44 89 fa             	mov    %r15d,%edx
    5c32:	83 c2 01             	add    $0x1,%edx
    5c35:	39 d0                	cmp    %edx,%eax
    5c37:	75 99                	jne    5bd2 <guest_func_blake2b+0x5a2>
    5c39:	44 8b bc 24 20 00 00 	mov    0x20(%rsp),%r15d
    5c40:	00 
    5c41:	44 89 fb             	mov    %r15d,%ebx
    5c44:	44 8b bc 24 30 00 00 	mov    0x30(%rsp),%r15d
    5c4b:	00 
    5c4c:	41 81 c7 e0 00 00 00 	add    $0xe0,%r15d
    5c53:	4c 8b b4 24 10 00 00 	mov    0x10(%rsp),%r14
    5c5a:	00 
    5c5b:	49 8b 46 f0          	mov    -0x10(%r14),%rax
    5c5f:	44 89 38             	mov    %r15d,(%rax)
    5c62:	40 89 d8             	rex mov %ebx,%eax
    5c65:	48 83 c4 38          	add    $0x38,%rsp
    5c69:	41 5f                	pop    %r15
    5c6b:	41 5e                	pop    %r14
    5c6d:	41 5d                	pop    %r13
    5c6f:	41 5c                	pop    %r12
    5c71:	5b                   	pop    %rbx
    5c72:	5d                   	pop    %rbp
    5c73:	c3                   	retq   
	...

0000000000005c80 <guest_func_malloc>:
    5c80:	55                   	push   %rbp
    5c81:	48 89 e5             	mov    %rsp,%rbp
    5c84:	e8 67 b8 ff ff       	callq  14f0 <guest_func_8>
    5c89:	5d                   	pop    %rbp
    5c8a:	c3                   	retq   
    5c8b:	00 00                	add    %al,(%rax)
    5c8d:	00 00                	add    %al,(%rax)
	...

0000000000005c90 <guest_func_13>:
    5c90:	55                   	push   %rbp
    5c91:	48 89 e5             	mov    %rsp,%rbp
    5c94:	53                   	push   %rbx
    5c95:	41 54                	push   %r12
    5c97:	41 55                	push   %r13
    5c99:	41 56                	push   %r14
    5c9b:	41 57                	push   %r15
    5c9d:	31 c0                	xor    %eax,%eax
    5c9f:	89 f1                	mov    %esi,%ecx
    5ca1:	01 d1                	add    %edx,%ecx
    5ca3:	89 f3                	mov    %esi,%ebx
    5ca5:	44 8b 44 1f 04       	mov    0x4(%rdi,%rbx,1),%r8d
    5caa:	41 b9 01 00 00 00    	mov    $0x1,%r9d
    5cb0:	45 89 c2             	mov    %r8d,%r10d
    5cb3:	41 83 e2 01          	and    $0x1,%r10d
    5cb7:	45 85 d2             	test   %r10d,%r10d
    5cba:	0f 85 8d 02 00 00    	jne    5f4d <guest_func_13+0x2bd>
    5cc0:	41 83 e0 03          	and    $0x3,%r8d
    5cc4:	45 85 c0             	test   %r8d,%r8d
    5cc7:	0f 84 c5 07 00 00    	je     6492 <guest_func_13+0x802>
    5ccd:	8b 1c 1f             	mov    (%rdi,%rbx,1),%ebx
    5cd0:	41 89 d8             	mov    %ebx,%r8d
    5cd3:	41 01 d0             	add    %edx,%r8d
    5cd6:	40 89 f2             	rex mov %esi,%edx
    5cd9:	29 da                	sub    %ebx,%edx
    5cdb:	be 14 05 00 00       	mov    $0x514,%esi
    5ce0:	89 f6                	mov    %esi,%esi
    5ce2:	8b 34 37             	mov    (%rdi,%rsi,1),%esi
    5ce5:	39 f2                	cmp    %esi,%edx
    5ce7:	0f 84 03 02 00 00    	je     5ef0 <guest_func_13+0x260>
    5ced:	be 10 05 00 00       	mov    $0x510,%esi
    5cf2:	89 f6                	mov    %esi,%esi
    5cf4:	8b 34 37             	mov    (%rdi,%rsi,1),%esi
    5cf7:	81 fb ff 00 00 00    	cmp    $0xff,%ebx
    5cfd:	77 76                	ja     5d75 <guest_func_13+0xe5>
    5cff:	89 d6                	mov    %edx,%esi
    5d01:	44 8b 54 37 0c       	mov    0xc(%rdi,%rsi,1),%r10d
    5d06:	8b 74 37 08          	mov    0x8(%rdi,%rsi,1),%esi
    5d0a:	c1 eb 03             	shr    $0x3,%ebx
    5d0d:	41 89 db             	mov    %ebx,%r11d
    5d10:	41 c1 e3 03          	shl    $0x3,%r11d
    5d14:	41 81 c3 28 05 00 00 	add    $0x528,%r11d
    5d1b:	44 39 de             	cmp    %r11d,%esi
    5d1e:	74 00                	je     5d20 <guest_func_13+0x90>
    5d20:	41 39 f2             	cmp    %esi,%r10d
    5d23:	75 32                	jne    5d57 <guest_func_13+0xc7>
    5d25:	be 00 05 00 00       	mov    $0x500,%esi
    5d2a:	89 f6                	mov    %esi,%esi
    5d2c:	44 8b 14 37          	mov    (%rdi,%rsi,1),%r10d
    5d30:	41 bb fe ff ff ff    	mov    $0xfffffffe,%r11d
    5d36:	41 89 cc             	mov    %ecx,%r12d
    5d39:	40 89 d9             	rex mov %ebx,%ecx
    5d3c:	44 89 e3             	mov    %r12d,%ebx
    5d3f:	41 d3 c3             	rol    %cl,%r11d
    5d42:	45 21 da             	and    %r11d,%r10d
    5d45:	44 89 14 37          	mov    %r10d,(%rdi,%rsi,1)
    5d49:	40 89 d9             	rex mov %ebx,%ecx
    5d4c:	40 89 d6             	rex mov %edx,%esi
    5d4f:	44 89 c2             	mov    %r8d,%edx
    5d52:	e9 f6 01 00 00       	jmpq   5f4d <guest_func_13+0x2bd>
    5d57:	45 39 da             	cmp    %r11d,%r10d
    5d5a:	74 00                	je     5d5c <guest_func_13+0xcc>
    5d5c:	44 89 d3             	mov    %r10d,%ebx
    5d5f:	89 74 1f 08          	mov    %esi,0x8(%rdi,%rbx,1)
    5d63:	89 f3                	mov    %esi,%ebx
    5d65:	44 89 54 1f 0c       	mov    %r10d,0xc(%rdi,%rbx,1)
    5d6a:	40 89 d6             	rex mov %edx,%esi
    5d6d:	44 89 c2             	mov    %r8d,%edx
    5d70:	e9 d8 01 00 00       	jmpq   5f4d <guest_func_13+0x2bd>
    5d75:	89 d3                	mov    %edx,%ebx
    5d77:	44 8b 54 1f 18       	mov    0x18(%rdi,%rbx,1),%r10d
    5d7c:	44 8b 5c 1f 0c       	mov    0xc(%rdi,%rbx,1),%r11d
    5d81:	44 39 da             	cmp    %r11d,%edx
    5d84:	74 23                	je     5da9 <guest_func_13+0x119>
    5d86:	44 8b 64 1f 08       	mov    0x8(%rdi,%rbx,1),%r12d
    5d8b:	44 39 e6             	cmp    %r12d,%esi
    5d8e:	77 07                	ja     5d97 <guest_func_13+0x107>
    5d90:	44 89 e6             	mov    %r12d,%esi
    5d93:	8b 74 37 0c          	mov    0xc(%rdi,%rsi,1),%esi
    5d97:	44 89 de             	mov    %r11d,%esi
    5d9a:	44 89 64 37 08       	mov    %r12d,0x8(%rdi,%rsi,1)
    5d9f:	44 89 e6             	mov    %r12d,%esi
    5da2:	44 89 5c 37 0c       	mov    %r11d,0xc(%rdi,%rsi,1)
    5da7:	eb 77                	jmp    5e20 <guest_func_13+0x190>
    5da9:	89 d6                	mov    %edx,%esi
    5dab:	83 c6 14             	add    $0x14,%esi
    5dae:	41 89 f3             	mov    %esi,%r11d
    5db1:	46 8b 1c 1f          	mov    (%rdi,%r11,1),%r11d
    5db5:	45 85 db             	test   %r11d,%r11d
    5db8:	75 18                	jne    5dd2 <guest_func_13+0x142>
    5dba:	89 d6                	mov    %edx,%esi
    5dbc:	83 c6 10             	add    $0x10,%esi
    5dbf:	41 89 f3             	mov    %esi,%r11d
    5dc2:	46 8b 1c 1f          	mov    (%rdi,%r11,1),%r11d
    5dc6:	45 85 db             	test   %r11d,%r11d
    5dc9:	75 07                	jne    5dd2 <guest_func_13+0x142>
    5dcb:	89 c6                	mov    %eax,%esi
    5dcd:	41 89 f3             	mov    %esi,%r11d
    5dd0:	eb 4e                	jmp    5e20 <guest_func_13+0x190>
    5dd2:	eb 20                	jmp    5df4 <guest_func_13+0x164>
    5dd4:	44 89 ee             	mov    %r13d,%esi
    5dd7:	45 89 e3             	mov    %r12d,%r11d
    5dda:	45 89 de             	mov    %r11d,%r14d
    5ddd:	41 89 f3             	mov    %esi,%r11d
    5de0:	44 89 f6             	mov    %r14d,%esi
    5de3:	eb 0f                	jmp    5df4 <guest_func_13+0x164>
    5de5:	44 89 ee             	mov    %r13d,%esi
    5de8:	45 89 e3             	mov    %r12d,%r11d
    5deb:	45 89 de             	mov    %r11d,%r14d
    5dee:	41 89 f3             	mov    %esi,%r11d
    5df1:	44 89 f6             	mov    %r14d,%esi
    5df4:	45 89 dc             	mov    %r11d,%r12d
    5df7:	41 83 c4 14          	add    $0x14,%r12d
    5dfb:	45 89 e5             	mov    %r12d,%r13d
    5dfe:	46 8b 2c 2f          	mov    (%rdi,%r13,1),%r13d
    5e02:	45 85 ed             	test   %r13d,%r13d
    5e05:	75 cd                	jne    5dd4 <guest_func_13+0x144>
    5e07:	45 89 dc             	mov    %r11d,%r12d
    5e0a:	41 83 c4 10          	add    $0x10,%r12d
    5e0e:	45 89 dd             	mov    %r11d,%r13d
    5e11:	46 8b 6c 2f 10       	mov    0x10(%rdi,%r13,1),%r13d
    5e16:	45 85 ed             	test   %r13d,%r13d
    5e19:	75 ca                	jne    5de5 <guest_func_13+0x155>
    5e1b:	89 f6                	mov    %esi,%esi
    5e1d:	89 04 37             	mov    %eax,(%rdi,%rsi,1)
    5e20:	45 85 d2             	test   %r10d,%r10d
    5e23:	0f 84 06 01 00 00    	je     5f2f <guest_func_13+0x29f>
    5e29:	8b 74 1f 1c          	mov    0x1c(%rdi,%rbx,1),%esi
    5e2d:	41 89 f4             	mov    %esi,%r12d
    5e30:	41 c1 e4 02          	shl    $0x2,%r12d
    5e34:	41 81 c4 30 06 00 00 	add    $0x630,%r12d
    5e3b:	45 89 e4             	mov    %r12d,%r12d
    5e3e:	46 8b 2c 27          	mov    (%rdi,%r12,1),%r13d
    5e42:	44 39 ea             	cmp    %r13d,%edx
    5e45:	75 3b                	jne    5e82 <guest_func_13+0x1f2>
    5e47:	46 89 1c 27          	mov    %r11d,(%rdi,%r12,1)
    5e4b:	45 85 db             	test   %r11d,%r11d
    5e4e:	75 5f                	jne    5eaf <guest_func_13+0x21f>
    5e50:	bb 04 05 00 00       	mov    $0x504,%ebx
    5e55:	89 db                	mov    %ebx,%ebx
    5e57:	44 8b 14 1f          	mov    (%rdi,%rbx,1),%r10d
    5e5b:	41 bb fe ff ff ff    	mov    $0xfffffffe,%r11d
    5e61:	41 89 cc             	mov    %ecx,%r12d
    5e64:	40 89 f1             	rex mov %esi,%ecx
    5e67:	44 89 e6             	mov    %r12d,%esi
    5e6a:	41 d3 c3             	rol    %cl,%r11d
    5e6d:	45 21 da             	and    %r11d,%r10d
    5e70:	44 89 14 1f          	mov    %r10d,(%rdi,%rbx,1)
    5e74:	40 89 f1             	rex mov %esi,%ecx
    5e77:	40 89 d6             	rex mov %edx,%esi
    5e7a:	44 89 c2             	mov    %r8d,%edx
    5e7d:	e9 cb 00 00 00       	jmpq   5f4d <guest_func_13+0x2bd>
    5e82:	be 10 00 00 00       	mov    $0x10,%esi
    5e87:	41 bc 14 00 00 00    	mov    $0x14,%r12d
    5e8d:	45 89 d5             	mov    %r10d,%r13d
    5e90:	46 8b 6c 2f 10       	mov    0x10(%rdi,%r13,1),%r13d
    5e95:	41 39 d5             	cmp    %edx,%r13d
    5e98:	74 03                	je     5e9d <guest_func_13+0x20d>
    5e9a:	44 89 e6             	mov    %r12d,%esi
    5e9d:	44 01 d6             	add    %r10d,%esi
    5ea0:	89 f6                	mov    %esi,%esi
    5ea2:	44 89 1c 37          	mov    %r11d,(%rdi,%rsi,1)
    5ea6:	45 85 db             	test   %r11d,%r11d
    5ea9:	0f 84 88 00 00 00    	je     5f37 <guest_func_13+0x2a7>
    5eaf:	44 89 de             	mov    %r11d,%esi
    5eb2:	44 89 54 37 18       	mov    %r10d,0x18(%rdi,%rsi,1)
    5eb7:	44 8b 54 1f 10       	mov    0x10(%rdi,%rbx,1),%r10d
    5ebc:	45 85 d2             	test   %r10d,%r10d
    5ebf:	74 0d                	je     5ece <guest_func_13+0x23e>
    5ec1:	44 89 54 37 10       	mov    %r10d,0x10(%rdi,%rsi,1)
    5ec6:	44 89 d6             	mov    %r10d,%esi
    5ec9:	44 89 5c 37 18       	mov    %r11d,0x18(%rdi,%rsi,1)
    5ece:	8b 5c 1f 14          	mov    0x14(%rdi,%rbx,1),%ebx
    5ed2:	85 db                	test   %ebx,%ebx
    5ed4:	74 69                	je     5f3f <guest_func_13+0x2af>
    5ed6:	44 89 de             	mov    %r11d,%esi
    5ed9:	83 c6 14             	add    $0x14,%esi
    5edc:	89 f6                	mov    %esi,%esi
    5ede:	89 1c 37             	mov    %ebx,(%rdi,%rsi,1)
    5ee1:	89 db                	mov    %ebx,%ebx
    5ee3:	44 89 5c 1f 18       	mov    %r11d,0x18(%rdi,%rbx,1)
    5ee8:	40 89 d6             	rex mov %edx,%esi
    5eeb:	44 89 c2             	mov    %r8d,%edx
    5eee:	eb 5d                	jmp    5f4d <guest_func_13+0x2bd>
    5ef0:	89 cb                	mov    %ecx,%ebx
    5ef2:	8b 74 1f 04          	mov    0x4(%rdi,%rbx,1),%esi
    5ef6:	41 89 f2             	mov    %esi,%r10d
    5ef9:	41 83 e2 03          	and    $0x3,%r10d
    5efd:	41 83 fa 03          	cmp    $0x3,%r10d
    5f01:	75 44                	jne    5f47 <guest_func_13+0x2b7>
    5f03:	83 e6 fe             	and    $0xfffffffe,%esi
    5f06:	89 74 1f 04          	mov    %esi,0x4(%rdi,%rbx,1)
    5f0a:	b8 08 05 00 00       	mov    $0x508,%eax
    5f0f:	89 c0                	mov    %eax,%eax
    5f11:	44 89 04 07          	mov    %r8d,(%rdi,%rax,1)
    5f15:	44 89 04 1f          	mov    %r8d,(%rdi,%rbx,1)
    5f19:	41 83 c8 01          	or     $0x1,%r8d
    5f1d:	89 d0                	mov    %edx,%eax
    5f1f:	44 89 44 07 04       	mov    %r8d,0x4(%rdi,%rax,1)
    5f24:	41 5f                	pop    %r15
    5f26:	41 5e                	pop    %r14
    5f28:	41 5d                	pop    %r13
    5f2a:	41 5c                	pop    %r12
    5f2c:	5b                   	pop    %rbx
    5f2d:	5d                   	pop    %rbp
    5f2e:	c3                   	retq   
    5f2f:	40 89 d6             	rex mov %edx,%esi
    5f32:	44 89 c2             	mov    %r8d,%edx
    5f35:	eb 16                	jmp    5f4d <guest_func_13+0x2bd>
    5f37:	40 89 d6             	rex mov %edx,%esi
    5f3a:	44 89 c2             	mov    %r8d,%edx
    5f3d:	eb 0e                	jmp    5f4d <guest_func_13+0x2bd>
    5f3f:	40 89 d6             	rex mov %edx,%esi
    5f42:	44 89 c2             	mov    %r8d,%edx
    5f45:	eb 06                	jmp    5f4d <guest_func_13+0x2bd>
    5f47:	40 89 d6             	rex mov %edx,%esi
    5f4a:	44 89 c2             	mov    %r8d,%edx
    5f4d:	89 cb                	mov    %ecx,%ebx
    5f4f:	44 8b 44 1f 04       	mov    0x4(%rdi,%rbx,1),%r8d
    5f54:	45 89 c2             	mov    %r8d,%r10d
    5f57:	41 83 e2 02          	and    $0x2,%r10d
    5f5b:	45 85 d2             	test   %r10d,%r10d
    5f5e:	0f 85 c4 02 00 00    	jne    6228 <guest_func_13+0x598>
    5f64:	41 ba 18 05 00 00    	mov    $0x518,%r10d
    5f6a:	45 89 d2             	mov    %r10d,%r10d
    5f6d:	46 8b 14 17          	mov    (%rdi,%r10,1),%r10d
    5f71:	44 39 d1             	cmp    %r10d,%ecx
    5f74:	75 4c                	jne    5fc2 <guest_func_13+0x332>
    5f76:	b9 18 05 00 00       	mov    $0x518,%ecx
    5f7b:	89 c9                	mov    %ecx,%ecx
    5f7d:	89 34 0f             	mov    %esi,(%rdi,%rcx,1)
    5f80:	b9 0c 05 00 00       	mov    $0x50c,%ecx
    5f85:	89 c9                	mov    %ecx,%ecx
    5f87:	8b 1c 0f             	mov    (%rdi,%rcx,1),%ebx
    5f8a:	01 d3                	add    %edx,%ebx
    5f8c:	89 1c 0f             	mov    %ebx,(%rdi,%rcx,1)
    5f8f:	83 cb 01             	or     $0x1,%ebx
    5f92:	89 f1                	mov    %esi,%ecx
    5f94:	89 5c 0f 04          	mov    %ebx,0x4(%rdi,%rcx,1)
    5f98:	b9 14 05 00 00       	mov    $0x514,%ecx
    5f9d:	89 c9                	mov    %ecx,%ecx
    5f9f:	8b 14 0f             	mov    (%rdi,%rcx,1),%edx
    5fa2:	39 f2                	cmp    %esi,%edx
    5fa4:	0f 85 e8 04 00 00    	jne    6492 <guest_func_13+0x802>
    5faa:	ba 08 05 00 00       	mov    $0x508,%edx
    5faf:	89 d2                	mov    %edx,%edx
    5fb1:	89 04 17             	mov    %eax,(%rdi,%rdx,1)
    5fb4:	89 04 0f             	mov    %eax,(%rdi,%rcx,1)
    5fb7:	41 5f                	pop    %r15
    5fb9:	41 5e                	pop    %r14
    5fbb:	41 5d                	pop    %r13
    5fbd:	41 5c                	pop    %r12
    5fbf:	5b                   	pop    %rbx
    5fc0:	5d                   	pop    %rbp
    5fc1:	c3                   	retq   
    5fc2:	41 ba 14 05 00 00    	mov    $0x514,%r10d
    5fc8:	45 89 d2             	mov    %r10d,%r10d
    5fcb:	46 8b 1c 17          	mov    (%rdi,%r10,1),%r11d
    5fcf:	44 39 d9             	cmp    %r11d,%ecx
    5fd2:	75 36                	jne    600a <guest_func_13+0x37a>
    5fd4:	b8 14 05 00 00       	mov    $0x514,%eax
    5fd9:	89 c0                	mov    %eax,%eax
    5fdb:	89 34 07             	mov    %esi,(%rdi,%rax,1)
    5fde:	b8 08 05 00 00       	mov    $0x508,%eax
    5fe3:	89 c0                	mov    %eax,%eax
    5fe5:	8b 0c 07             	mov    (%rdi,%rax,1),%ecx
    5fe8:	01 d1                	add    %edx,%ecx
    5fea:	89 0c 07             	mov    %ecx,(%rdi,%rax,1)
    5fed:	89 c8                	mov    %ecx,%eax
    5fef:	83 c8 01             	or     $0x1,%eax
    5ff2:	89 f2                	mov    %esi,%edx
    5ff4:	89 44 17 04          	mov    %eax,0x4(%rdi,%rdx,1)
    5ff8:	01 ce                	add    %ecx,%esi
    5ffa:	89 f0                	mov    %esi,%eax
    5ffc:	89 0c 07             	mov    %ecx,(%rdi,%rax,1)
    5fff:	41 5f                	pop    %r15
    6001:	41 5e                	pop    %r14
    6003:	41 5d                	pop    %r13
    6005:	41 5c                	pop    %r12
    6007:	5b                   	pop    %rbx
    6008:	5d                   	pop    %rbp
    6009:	c3                   	retq   
    600a:	41 bb 10 05 00 00    	mov    $0x510,%r11d
    6010:	45 89 db             	mov    %r11d,%r11d
    6013:	46 8b 1c 1f          	mov    (%rdi,%r11,1),%r11d
    6017:	45 89 c4             	mov    %r8d,%r12d
    601a:	41 83 e4 f8          	and    $0xfffffff8,%r12d
    601e:	41 01 d4             	add    %edx,%r12d
    6021:	41 81 f8 ff 00 00 00 	cmp    $0xff,%r8d
    6028:	77 62                	ja     608c <guest_func_13+0x3fc>
    602a:	8b 4c 1f 0c          	mov    0xc(%rdi,%rbx,1),%ecx
    602e:	8b 54 1f 08          	mov    0x8(%rdi,%rbx,1),%edx
    6032:	44 89 c3             	mov    %r8d,%ebx
    6035:	c1 eb 03             	shr    $0x3,%ebx
    6038:	41 89 d8             	mov    %ebx,%r8d
    603b:	41 c1 e0 03          	shl    $0x3,%r8d
    603f:	41 81 c0 28 05 00 00 	add    $0x528,%r8d
    6046:	44 39 c2             	cmp    %r8d,%edx
    6049:	74 00                	je     604b <guest_func_13+0x3bb>
    604b:	39 d1                	cmp    %edx,%ecx
    604d:	75 27                	jne    6076 <guest_func_13+0x3e6>
    604f:	b9 00 05 00 00       	mov    $0x500,%ecx
    6054:	89 c9                	mov    %ecx,%ecx
    6056:	8b 14 0f             	mov    (%rdi,%rcx,1),%edx
    6059:	41 b8 fe ff ff ff    	mov    $0xfffffffe,%r8d
    605f:	49 89 cb             	mov    %rcx,%r11
    6062:	40 89 d9             	rex mov %ebx,%ecx
    6065:	4c 89 db             	mov    %r11,%rbx
    6068:	41 d3 c0             	rol    %cl,%r8d
    606b:	44 21 c2             	and    %r8d,%edx
    606e:	89 14 1f             	mov    %edx,(%rdi,%rbx,1)
    6071:	e9 7d 01 00 00       	jmpq   61f3 <guest_func_13+0x563>
    6076:	44 39 c1             	cmp    %r8d,%ecx
    6079:	74 00                	je     607b <guest_func_13+0x3eb>
    607b:	89 cb                	mov    %ecx,%ebx
    607d:	89 54 1f 08          	mov    %edx,0x8(%rdi,%rbx,1)
    6081:	89 d2                	mov    %edx,%edx
    6083:	89 4c 17 0c          	mov    %ecx,0xc(%rdi,%rdx,1)
    6087:	e9 67 01 00 00       	jmpq   61f3 <guest_func_13+0x563>
    608c:	8b 54 1f 18          	mov    0x18(%rdi,%rbx,1),%edx
    6090:	44 8b 44 1f 0c       	mov    0xc(%rdi,%rbx,1),%r8d
    6095:	41 39 c8             	cmp    %ecx,%r8d
    6098:	74 27                	je     60c1 <guest_func_13+0x431>
    609a:	44 8b 6c 1f 08       	mov    0x8(%rdi,%rbx,1),%r13d
    609f:	45 39 eb             	cmp    %r13d,%r11d
    60a2:	77 08                	ja     60ac <guest_func_13+0x41c>
    60a4:	45 89 eb             	mov    %r13d,%r11d
    60a7:	46 8b 5c 1f 0c       	mov    0xc(%rdi,%r11,1),%r11d
    60ac:	45 89 c3             	mov    %r8d,%r11d
    60af:	46 89 6c 1f 08       	mov    %r13d,0x8(%rdi,%r11,1)
    60b4:	45 89 eb             	mov    %r13d,%r11d
    60b7:	46 89 44 1f 0c       	mov    %r8d,0xc(%rdi,%r11,1)
    60bc:	45 89 c3             	mov    %r8d,%r11d
    60bf:	eb 7e                	jmp    613f <guest_func_13+0x4af>
    60c1:	41 89 c8             	mov    %ecx,%r8d
    60c4:	41 83 c0 14          	add    $0x14,%r8d
    60c8:	45 89 c3             	mov    %r8d,%r11d
    60cb:	46 8b 1c 1f          	mov    (%rdi,%r11,1),%r11d
    60cf:	45 85 db             	test   %r11d,%r11d
    60d2:	75 1b                	jne    60ef <guest_func_13+0x45f>
    60d4:	41 89 c8             	mov    %ecx,%r8d
    60d7:	41 83 c0 10          	add    $0x10,%r8d
    60db:	45 89 c3             	mov    %r8d,%r11d
    60de:	46 8b 1c 1f          	mov    (%rdi,%r11,1),%r11d
    60e2:	45 85 db             	test   %r11d,%r11d
    60e5:	75 08                	jne    60ef <guest_func_13+0x45f>
    60e7:	41 89 c0             	mov    %eax,%r8d
    60ea:	45 89 c3             	mov    %r8d,%r11d
    60ed:	eb 50                	jmp    613f <guest_func_13+0x4af>
    60ef:	eb 20                	jmp    6111 <guest_func_13+0x481>
    60f1:	45 89 f0             	mov    %r14d,%r8d
    60f4:	45 89 eb             	mov    %r13d,%r11d
    60f7:	45 89 df             	mov    %r11d,%r15d
    60fa:	45 89 c3             	mov    %r8d,%r11d
    60fd:	45 89 f8             	mov    %r15d,%r8d
    6100:	eb 0f                	jmp    6111 <guest_func_13+0x481>
    6102:	45 89 f0             	mov    %r14d,%r8d
    6105:	45 89 eb             	mov    %r13d,%r11d
    6108:	45 89 df             	mov    %r11d,%r15d
    610b:	45 89 c3             	mov    %r8d,%r11d
    610e:	45 89 f8             	mov    %r15d,%r8d
    6111:	45 89 dd             	mov    %r11d,%r13d
    6114:	41 83 c5 14          	add    $0x14,%r13d
    6118:	45 89 ee             	mov    %r13d,%r14d
    611b:	46 8b 34 37          	mov    (%rdi,%r14,1),%r14d
    611f:	45 85 f6             	test   %r14d,%r14d
    6122:	75 cd                	jne    60f1 <guest_func_13+0x461>
    6124:	45 89 dd             	mov    %r11d,%r13d
    6127:	41 83 c5 10          	add    $0x10,%r13d
    612b:	45 89 de             	mov    %r11d,%r14d
    612e:	46 8b 74 37 10       	mov    0x10(%rdi,%r14,1),%r14d
    6133:	45 85 f6             	test   %r14d,%r14d
    6136:	75 ca                	jne    6102 <guest_func_13+0x472>
    6138:	45 89 c0             	mov    %r8d,%r8d
    613b:	42 89 04 07          	mov    %eax,(%rdi,%r8,1)
    613f:	85 d2                	test   %edx,%edx
    6141:	0f 84 ac 00 00 00    	je     61f3 <guest_func_13+0x563>
    6147:	44 8b 44 1f 1c       	mov    0x1c(%rdi,%rbx,1),%r8d
    614c:	45 89 c5             	mov    %r8d,%r13d
    614f:	41 c1 e5 02          	shl    $0x2,%r13d
    6153:	41 81 c5 30 06 00 00 	add    $0x630,%r13d
    615a:	45 89 ed             	mov    %r13d,%r13d
    615d:	46 8b 34 2f          	mov    (%rdi,%r13,1),%r14d
    6161:	44 39 f1             	cmp    %r14d,%ecx
    6164:	75 2b                	jne    6191 <guest_func_13+0x501>
    6166:	46 89 1c 2f          	mov    %r11d,(%rdi,%r13,1)
    616a:	45 85 db             	test   %r11d,%r11d
    616d:	75 50                	jne    61bf <guest_func_13+0x52f>
    616f:	b9 04 05 00 00       	mov    $0x504,%ecx
    6174:	89 c9                	mov    %ecx,%ecx
    6176:	8b 14 0f             	mov    (%rdi,%rcx,1),%edx
    6179:	bb fe ff ff ff       	mov    $0xfffffffe,%ebx
    617e:	49 89 cb             	mov    %rcx,%r11
    6181:	44 89 c1             	mov    %r8d,%ecx
    6184:	4d 89 d8             	mov    %r11,%r8
    6187:	d3 c3                	rol    %cl,%ebx
    6189:	21 da                	and    %ebx,%edx
    618b:	42 89 14 07          	mov    %edx,(%rdi,%r8,1)
    618f:	eb 62                	jmp    61f3 <guest_func_13+0x563>
    6191:	41 b8 10 00 00 00    	mov    $0x10,%r8d
    6197:	41 bd 14 00 00 00    	mov    $0x14,%r13d
    619d:	41 89 d6             	mov    %edx,%r14d
    61a0:	46 8b 74 37 10       	mov    0x10(%rdi,%r14,1),%r14d
    61a5:	41 39 ce             	cmp    %ecx,%r14d
    61a8:	74 06                	je     61b0 <guest_func_13+0x520>
    61aa:	44 89 e9             	mov    %r13d,%ecx
    61ad:	41 89 c8             	mov    %ecx,%r8d
    61b0:	41 01 d0             	add    %edx,%r8d
    61b3:	44 89 c1             	mov    %r8d,%ecx
    61b6:	44 89 1c 0f          	mov    %r11d,(%rdi,%rcx,1)
    61ba:	45 85 db             	test   %r11d,%r11d
    61bd:	74 34                	je     61f3 <guest_func_13+0x563>
    61bf:	44 89 d9             	mov    %r11d,%ecx
    61c2:	89 54 0f 18          	mov    %edx,0x18(%rdi,%rcx,1)
    61c6:	8b 54 1f 10          	mov    0x10(%rdi,%rbx,1),%edx
    61ca:	85 d2                	test   %edx,%edx
    61cc:	74 0b                	je     61d9 <guest_func_13+0x549>
    61ce:	89 54 0f 10          	mov    %edx,0x10(%rdi,%rcx,1)
    61d2:	89 d1                	mov    %edx,%ecx
    61d4:	44 89 5c 0f 18       	mov    %r11d,0x18(%rdi,%rcx,1)
    61d9:	8b 4c 1f 14          	mov    0x14(%rdi,%rbx,1),%ecx
    61dd:	85 c9                	test   %ecx,%ecx
    61df:	74 12                	je     61f3 <guest_func_13+0x563>
    61e1:	44 89 da             	mov    %r11d,%edx
    61e4:	83 c2 14             	add    $0x14,%edx
    61e7:	89 d2                	mov    %edx,%edx
    61e9:	89 0c 17             	mov    %ecx,(%rdi,%rdx,1)
    61ec:	89 c9                	mov    %ecx,%ecx
    61ee:	44 89 5c 0f 18       	mov    %r11d,0x18(%rdi,%rcx,1)
    61f3:	89 f1                	mov    %esi,%ecx
    61f5:	44 01 e1             	add    %r12d,%ecx
    61f8:	89 c9                	mov    %ecx,%ecx
    61fa:	44 89 24 0f          	mov    %r12d,(%rdi,%rcx,1)
    61fe:	44 89 e1             	mov    %r12d,%ecx
    6201:	83 c9 01             	or     $0x1,%ecx
    6204:	89 f2                	mov    %esi,%edx
    6206:	89 4c 17 04          	mov    %ecx,0x4(%rdi,%rdx,1)
    620a:	42 8b 0c 17          	mov    (%rdi,%r10,1),%ecx
    620e:	39 f1                	cmp    %esi,%ecx
    6210:	75 35                	jne    6247 <guest_func_13+0x5b7>
    6212:	b8 08 05 00 00       	mov    $0x508,%eax
    6217:	89 c0                	mov    %eax,%eax
    6219:	44 89 24 07          	mov    %r12d,(%rdi,%rax,1)
    621d:	41 5f                	pop    %r15
    621f:	41 5e                	pop    %r14
    6221:	41 5d                	pop    %r13
    6223:	41 5c                	pop    %r12
    6225:	5b                   	pop    %rbx
    6226:	5d                   	pop    %rbp
    6227:	c3                   	retq   
    6228:	41 83 e0 fe          	and    $0xfffffffe,%r8d
    622c:	44 89 44 1f 04       	mov    %r8d,0x4(%rdi,%rbx,1)
    6231:	89 f1                	mov    %esi,%ecx
    6233:	01 d1                	add    %edx,%ecx
    6235:	89 c9                	mov    %ecx,%ecx
    6237:	89 14 0f             	mov    %edx,(%rdi,%rcx,1)
    623a:	89 d1                	mov    %edx,%ecx
    623c:	83 c9 01             	or     $0x1,%ecx
    623f:	89 f3                	mov    %esi,%ebx
    6241:	89 4c 1f 04          	mov    %ecx,0x4(%rdi,%rbx,1)
    6245:	eb 03                	jmp    624a <guest_func_13+0x5ba>
    6247:	44 89 e2             	mov    %r12d,%edx
    624a:	81 fa ff 00 00 00    	cmp    $0xff,%edx
    6250:	77 62                	ja     62b4 <guest_func_13+0x624>
    6252:	c1 ea 03             	shr    $0x3,%edx
    6255:	89 d0                	mov    %edx,%eax
    6257:	c1 e0 03             	shl    $0x3,%eax
    625a:	81 c0 28 05 00 00    	add    $0x528,%eax
    6260:	b9 00 05 00 00       	mov    $0x500,%ecx
    6265:	89 c9                	mov    %ecx,%ecx
    6267:	8b 1c 0f             	mov    (%rdi,%rcx,1),%ebx
    626a:	45 89 c8             	mov    %r9d,%r8d
    626d:	49 89 c9             	mov    %rcx,%r9
    6270:	40 89 d1             	rex mov %edx,%ecx
    6273:	4c 89 ca             	mov    %r9,%rdx
    6276:	41 d3 e0             	shl    %cl,%r8d
    6279:	89 d9                	mov    %ebx,%ecx
    627b:	44 21 c1             	and    %r8d,%ecx
    627e:	85 c9                	test   %ecx,%ecx
    6280:	75 0b                	jne    628d <guest_func_13+0x5fd>
    6282:	41 09 d8             	or     %ebx,%r8d
    6285:	44 89 04 17          	mov    %r8d,(%rdi,%rdx,1)
    6289:	89 c1                	mov    %eax,%ecx
    628b:	eb 06                	jmp    6293 <guest_func_13+0x603>
    628d:	89 c1                	mov    %eax,%ecx
    628f:	8b 4c 0f 08          	mov    0x8(%rdi,%rcx,1),%ecx
    6293:	89 ca                	mov    %ecx,%edx
    6295:	89 74 17 0c          	mov    %esi,0xc(%rdi,%rdx,1)
    6299:	89 c2                	mov    %eax,%edx
    629b:	89 74 17 08          	mov    %esi,0x8(%rdi,%rdx,1)
    629f:	89 f2                	mov    %esi,%edx
    62a1:	89 44 17 0c          	mov    %eax,0xc(%rdi,%rdx,1)
    62a5:	89 4c 17 08          	mov    %ecx,0x8(%rdi,%rdx,1)
    62a9:	41 5f                	pop    %r15
    62ab:	41 5e                	pop    %r14
    62ad:	41 5d                	pop    %r13
    62af:	41 5c                	pop    %r12
    62b1:	5b                   	pop    %rbx
    62b2:	5d                   	pop    %rbp
    62b3:	c3                   	retq   
    62b4:	31 c9                	xor    %ecx,%ecx
    62b6:	89 f3                	mov    %esi,%ebx
    62b8:	48 89 4c 1f 10       	mov    %rcx,0x10(%rdi,%rbx,1)
    62bd:	89 f1                	mov    %esi,%ecx
    62bf:	83 c1 1c             	add    $0x1c,%ecx
    62c2:	41 89 d0             	mov    %edx,%r8d
    62c5:	41 c1 e8 08          	shr    $0x8,%r8d
    62c9:	45 85 c0             	test   %r8d,%r8d
    62cc:	0f 84 a2 00 00 00    	je     6374 <guest_func_13+0x6e4>
    62d2:	41 ba 1f 00 00 00    	mov    $0x1f,%r10d
    62d8:	81 fa ff ff ff 00    	cmp    $0xffffff,%edx
    62de:	0f 87 95 00 00 00    	ja     6379 <guest_func_13+0x6e9>
    62e4:	45 89 c2             	mov    %r8d,%r10d
    62e7:	41 81 c2 00 ff 0f 00 	add    $0xfff00,%r10d
    62ee:	41 c1 ea 10          	shr    $0x10,%r10d
    62f2:	41 83 e2 08          	and    $0x8,%r10d
    62f6:	41 89 cb             	mov    %ecx,%r11d
    62f9:	44 89 d1             	mov    %r10d,%ecx
    62fc:	45 89 da             	mov    %r11d,%r10d
    62ff:	41 d3 e0             	shl    %cl,%r8d
    6302:	45 89 c3             	mov    %r8d,%r11d
    6305:	41 81 c3 00 f0 07 00 	add    $0x7f000,%r11d
    630c:	41 c1 eb 10          	shr    $0x10,%r11d
    6310:	41 83 e3 04          	and    $0x4,%r11d
    6314:	41 89 cc             	mov    %ecx,%r12d
    6317:	44 89 d9             	mov    %r11d,%ecx
    631a:	45 89 e3             	mov    %r12d,%r11d
    631d:	41 d3 e0             	shl    %cl,%r8d
    6320:	45 89 c4             	mov    %r8d,%r12d
    6323:	41 81 c4 00 c0 03 00 	add    $0x3c000,%r12d
    632a:	41 c1 ec 10          	shr    $0x10,%r12d
    632e:	41 83 e4 02          	and    $0x2,%r12d
    6332:	41 89 cd             	mov    %ecx,%r13d
    6335:	44 89 e1             	mov    %r12d,%ecx
    6338:	45 89 ec             	mov    %r13d,%r12d
    633b:	41 d3 e0             	shl    %cl,%r8d
    633e:	41 c1 e8 0f          	shr    $0xf,%r8d
    6342:	45 09 dc             	or     %r11d,%r12d
    6345:	41 09 cc             	or     %ecx,%r12d
    6348:	45 29 e0             	sub    %r12d,%r8d
    634b:	44 89 c1             	mov    %r8d,%ecx
    634e:	c1 e1 01             	shl    $0x1,%ecx
    6351:	41 83 c0 15          	add    $0x15,%r8d
    6355:	41 89 d3             	mov    %edx,%r11d
    6358:	41 89 cc             	mov    %ecx,%r12d
    635b:	44 89 c1             	mov    %r8d,%ecx
    635e:	45 89 e0             	mov    %r12d,%r8d
    6361:	41 d3 eb             	shr    %cl,%r11d
    6364:	41 83 e3 01          	and    $0x1,%r11d
    6368:	45 09 d8             	or     %r11d,%r8d
    636b:	41 83 c0 1c          	add    $0x1c,%r8d
    636f:	44 89 d1             	mov    %r10d,%ecx
    6372:	eb 08                	jmp    637c <guest_func_13+0x6ec>
    6374:	41 89 c0             	mov    %eax,%r8d
    6377:	eb 03                	jmp    637c <guest_func_13+0x6ec>
    6379:	45 89 d0             	mov    %r10d,%r8d
    637c:	89 c9                	mov    %ecx,%ecx
    637e:	44 89 04 0f          	mov    %r8d,(%rdi,%rcx,1)
    6382:	44 89 c1             	mov    %r8d,%ecx
    6385:	c1 e1 02             	shl    $0x2,%ecx
    6388:	81 c1 30 06 00 00    	add    $0x630,%ecx
    638e:	41 ba 04 05 00 00    	mov    $0x504,%r10d
    6394:	45 89 d2             	mov    %r10d,%r10d
    6397:	46 8b 1c 17          	mov    (%rdi,%r10,1),%r11d
    639b:	41 89 cc             	mov    %ecx,%r12d
    639e:	44 89 c1             	mov    %r8d,%ecx
    63a1:	45 89 e0             	mov    %r12d,%r8d
    63a4:	41 d3 e1             	shl    %cl,%r9d
    63a7:	45 89 dc             	mov    %r11d,%r12d
    63aa:	45 21 cc             	and    %r9d,%r12d
    63ad:	41 89 cd             	mov    %ecx,%r13d
    63b0:	44 89 c1             	mov    %r8d,%ecx
    63b3:	45 89 e8             	mov    %r13d,%r8d
    63b6:	45 85 e4             	test   %r12d,%r12d
    63b9:	75 29                	jne    63e4 <guest_func_13+0x754>
    63bb:	89 c8                	mov    %ecx,%eax
    63bd:	89 34 07             	mov    %esi,(%rdi,%rax,1)
    63c0:	45 09 cb             	or     %r9d,%r11d
    63c3:	46 89 1c 17          	mov    %r11d,(%rdi,%r10,1)
    63c7:	89 f0                	mov    %esi,%eax
    63c9:	83 c0 18             	add    $0x18,%eax
    63cc:	89 c0                	mov    %eax,%eax
    63ce:	89 0c 07             	mov    %ecx,(%rdi,%rax,1)
    63d1:	89 74 1f 08          	mov    %esi,0x8(%rdi,%rbx,1)
    63d5:	89 74 1f 0c          	mov    %esi,0xc(%rdi,%rbx,1)
    63d9:	41 5f                	pop    %r15
    63db:	41 5e                	pop    %r14
    63dd:	41 5d                	pop    %r13
    63df:	41 5c                	pop    %r12
    63e1:	5b                   	pop    %rbx
    63e2:	5d                   	pop    %rbp
    63e3:	c3                   	retq   
    63e4:	41 b9 19 00 00 00    	mov    $0x19,%r9d
    63ea:	45 89 c2             	mov    %r8d,%r10d
    63ed:	41 c1 ea 01          	shr    $0x1,%r10d
    63f1:	45 29 d1             	sub    %r10d,%r9d
    63f4:	41 83 f8 1f          	cmp    $0x1f,%r8d
    63f8:	74 05                	je     63ff <guest_func_13+0x76f>
    63fa:	45 89 c8             	mov    %r9d,%r8d
    63fd:	eb 03                	jmp    6402 <guest_func_13+0x772>
    63ff:	41 89 c0             	mov    %eax,%r8d
    6402:	41 89 d1             	mov    %edx,%r9d
    6405:	41 89 ca             	mov    %ecx,%r10d
    6408:	44 89 c1             	mov    %r8d,%ecx
    640b:	45 89 d0             	mov    %r10d,%r8d
    640e:	41 d3 e1             	shl    %cl,%r9d
    6411:	44 89 c1             	mov    %r8d,%ecx
    6414:	8b 0c 0f             	mov    (%rdi,%rcx,1),%ecx
    6417:	eb 03                	jmp    641c <guest_func_13+0x78c>
    6419:	44 89 d1             	mov    %r10d,%ecx
    641c:	41 89 c8             	mov    %ecx,%r8d
    641f:	46 8b 54 07 04       	mov    0x4(%rdi,%r8,1),%r10d
    6424:	41 83 e2 f8          	and    $0xfffffff8,%r10d
    6428:	41 39 d2             	cmp    %edx,%r10d
    642b:	74 43                	je     6470 <guest_func_13+0x7e0>
    642d:	45 89 c8             	mov    %r9d,%r8d
    6430:	41 c1 e8 1d          	shr    $0x1d,%r8d
    6434:	41 c1 e1 01          	shl    $0x1,%r9d
    6438:	41 83 e0 04          	and    $0x4,%r8d
    643c:	41 01 c8             	add    %ecx,%r8d
    643f:	41 83 c0 10          	add    $0x10,%r8d
    6443:	45 89 c0             	mov    %r8d,%r8d
    6446:	46 8b 14 07          	mov    (%rdi,%r8,1),%r10d
    644a:	45 85 d2             	test   %r10d,%r10d
    644d:	75 ca                	jne    6419 <guest_func_13+0x789>
    644f:	42 89 34 07          	mov    %esi,(%rdi,%r8,1)
    6453:	89 f0                	mov    %esi,%eax
    6455:	83 c0 18             	add    $0x18,%eax
    6458:	89 c0                	mov    %eax,%eax
    645a:	89 0c 07             	mov    %ecx,(%rdi,%rax,1)
    645d:	89 74 1f 0c          	mov    %esi,0xc(%rdi,%rbx,1)
    6461:	89 74 1f 08          	mov    %esi,0x8(%rdi,%rbx,1)
    6465:	41 5f                	pop    %r15
    6467:	41 5e                	pop    %r14
    6469:	41 5d                	pop    %r13
    646b:	41 5c                	pop    %r12
    646d:	5b                   	pop    %rbx
    646e:	5d                   	pop    %rbp
    646f:	c3                   	retq   
    6470:	42 8b 54 07 08       	mov    0x8(%rdi,%r8,1),%edx
    6475:	42 89 74 07 08       	mov    %esi,0x8(%rdi,%r8,1)
    647a:	41 89 d0             	mov    %edx,%r8d
    647d:	42 89 74 07 0c       	mov    %esi,0xc(%rdi,%r8,1)
    6482:	83 c6 18             	add    $0x18,%esi
    6485:	89 f6                	mov    %esi,%esi
    6487:	89 04 37             	mov    %eax,(%rdi,%rsi,1)
    648a:	89 54 1f 08          	mov    %edx,0x8(%rdi,%rbx,1)
    648e:	89 4c 1f 0c          	mov    %ecx,0xc(%rdi,%rbx,1)
    6492:	41 5f                	pop    %r15
    6494:	41 5e                	pop    %r14
    6496:	41 5d                	pop    %r13
    6498:	41 5c                	pop    %r12
    649a:	5b                   	pop    %rbx
    649b:	5d                   	pop    %rbp
    649c:	c3                   	retq   
    649d:	00 00                	add    %al,(%rax)
	...

00000000000064a0 <guest_func_calloc>:
    64a0:	55                   	push   %rbp
    64a1:	48 89 e5             	mov    %rsp,%rbp
    64a4:	41 54                	push   %r12
    64a6:	41 55                	push   %r13
    64a8:	41 56                	push   %r14
    64aa:	41 57                	push   %r15
    64ac:	48 83 ec 20          	sub    $0x20,%rsp
    64b0:	48 89 bc 24 08 00 00 	mov    %rdi,0x8(%rsp)
    64b7:	00 
    64b8:	31 c0                	xor    %eax,%eax
    64ba:	89 84 24 1c 00 00 00 	mov    %eax,0x1c(%rsp)
    64c1:	85 f6                	test   %esi,%esi
    64c3:	74 34                	je     64f9 <guest_func_calloc+0x59>
    64c5:	89 f0                	mov    %esi,%eax
    64c7:	89 d1                	mov    %edx,%ecx
    64c9:	48 0f af c1          	imul   %rcx,%rax
    64cd:	48 89 c1             	mov    %rax,%rcx
    64d0:	89 8c 24 18 00 00 00 	mov    %ecx,0x18(%rsp)
    64d7:	09 d6                	or     %edx,%esi
    64d9:	81 fe 00 00 01 00    	cmp    $0x10000,%esi
    64df:	72 23                	jb     6504 <guest_func_calloc+0x64>
    64e1:	b9 ff ff ff ff       	mov    $0xffffffff,%ecx
    64e6:	48 c1 e8 20          	shr    $0x20,%rax
    64ea:	85 c0                	test   %eax,%eax
    64ec:	75 02                	jne    64f0 <guest_func_calloc+0x50>
    64ee:	eb 07                	jmp    64f7 <guest_func_calloc+0x57>
    64f0:	89 8c 24 18 00 00 00 	mov    %ecx,0x18(%rsp)
    64f7:	eb 0b                	jmp    6504 <guest_func_calloc+0x64>
    64f9:	41 89 c7             	mov    %eax,%r15d
    64fc:	44 89 bc 24 18 00 00 	mov    %r15d,0x18(%rsp)
    6503:	00 
    6504:	4c 8b bc 24 08 00 00 	mov    0x8(%rsp),%r15
    650b:	00 
    650c:	44 8b b4 24 18 00 00 	mov    0x18(%rsp),%r14d
    6513:	00 
    6514:	4c 89 ff             	mov    %r15,%rdi
    6517:	44 89 f6             	mov    %r14d,%esi
    651a:	e8 d1 af ff ff       	callq  14f0 <guest_func_8>
    651f:	89 84 24 14 00 00 00 	mov    %eax,0x14(%rsp)
    6526:	41 89 c7             	mov    %eax,%r15d
    6529:	45 85 ff             	test   %r15d,%r15d
    652c:	74 44                	je     6572 <guest_func_calloc+0xd2>
    652e:	41 83 c7 fc          	add    $0xfffffffc,%r15d
    6532:	44 89 f8             	mov    %r15d,%eax
    6535:	4c 8b bc 24 08 00 00 	mov    0x8(%rsp),%r15
    653c:	00 
    653d:	41 0f b6 04 07       	movzbl (%r15,%rax,1),%eax
    6542:	83 e0 03             	and    $0x3,%eax
    6545:	85 c0                	test   %eax,%eax
    6547:	74 29                	je     6572 <guest_func_calloc+0xd2>
    6549:	44 8b b4 24 14 00 00 	mov    0x14(%rsp),%r14d
    6550:	00 
    6551:	44 8b ac 24 1c 00 00 	mov    0x1c(%rsp),%r13d
    6558:	00 
    6559:	44 8b a4 24 18 00 00 	mov    0x18(%rsp),%r12d
    6560:	00 
    6561:	4c 89 ff             	mov    %r15,%rdi
    6564:	44 89 f6             	mov    %r14d,%esi
    6567:	44 89 ea             	mov    %r13d,%edx
    656a:	44 89 e1             	mov    %r12d,%ecx
    656d:	e8 ee 04 00 00       	callq  6a60 <guest_func_memset>
    6572:	44 8b bc 24 14 00 00 	mov    0x14(%rsp),%r15d
    6579:	00 
    657a:	44 89 f8             	mov    %r15d,%eax
    657d:	48 83 c4 20          	add    $0x20,%rsp
    6581:	41 5f                	pop    %r15
    6583:	41 5e                	pop    %r14
    6585:	41 5d                	pop    %r13
    6587:	41 5c                	pop    %r12
    6589:	5d                   	pop    %rbp
    658a:	c3                   	retq   
    658b:	00 00                	add    %al,(%rax)
    658d:	00 00                	add    %al,(%rax)
	...

0000000000006590 <guest_func_15>:
    6590:	55                   	push   %rbp
    6591:	48 89 e5             	mov    %rsp,%rbp
    6594:	53                   	push   %rbx
    6595:	41 55                	push   %r13
    6597:	41 56                	push   %r14
    6599:	41 57                	push   %r15
    659b:	48 83 ec 20          	sub    $0x20,%rsp
    659f:	48 89 bc 24 08 00 00 	mov    %rdi,0x8(%rsp)
    65a6:	00 
    65a7:	31 c0                	xor    %eax,%eax
    65a9:	89 84 24 1c 00 00 00 	mov    %eax,0x1c(%rsp)
    65b0:	89 f0                	mov    %esi,%eax
    65b2:	83 c0 ff             	add    $0xffffffff,%eax
    65b5:	21 f0                	and    %esi,%eax
    65b7:	85 c0                	test   %eax,%eax
    65b9:	75 09                	jne    65c4 <guest_func_15+0x34>
    65bb:	89 b4 24 18 00 00 00 	mov    %esi,0x18(%rsp)
    65c2:	eb 28                	jmp    65ec <guest_func_15+0x5c>
    65c4:	b8 20 00 00 00       	mov    $0x20,%eax
    65c9:	89 84 24 18 00 00 00 	mov    %eax,0x18(%rsp)
    65d0:	eb 07                	jmp    65d9 <guest_func_15+0x49>
    65d2:	89 84 24 18 00 00 00 	mov    %eax,0x18(%rsp)
    65d9:	44 8b bc 24 18 00 00 	mov    0x18(%rsp),%r15d
    65e0:	00 
    65e1:	44 89 f8             	mov    %r15d,%eax
    65e4:	c1 e0 01             	shl    $0x1,%eax
    65e7:	41 39 f7             	cmp    %esi,%r15d
    65ea:	72 e6                	jb     65d2 <guest_func_15+0x42>
    65ec:	b8 c0 ff ff ff       	mov    $0xffffffc0,%eax
    65f1:	44 8b bc 24 18 00 00 	mov    0x18(%rsp),%r15d
    65f8:	00 
    65f9:	44 29 f8             	sub    %r15d,%eax
    65fc:	39 d0                	cmp    %edx,%eax
    65fe:	77 30                	ja     6630 <guest_func_15+0xa0>
    6600:	b8 f0 06 00 00       	mov    $0x6f0,%eax
    6605:	b9 30 00 00 00       	mov    $0x30,%ecx
    660a:	89 c0                	mov    %eax,%eax
    660c:	4c 8b bc 24 08 00 00 	mov    0x8(%rsp),%r15
    6613:	00 
    6614:	41 89 0c 07          	mov    %ecx,(%r15,%rax,1)
    6618:	44 8b bc 24 1c 00 00 	mov    0x1c(%rsp),%r15d
    661f:	00 
    6620:	44 89 f8             	mov    %r15d,%eax
    6623:	48 83 c4 20          	add    $0x20,%rsp
    6627:	41 5f                	pop    %r15
    6629:	41 5e                	pop    %r14
    662b:	41 5d                	pop    %r13
    662d:	5b                   	pop    %rbx
    662e:	5d                   	pop    %rbp
    662f:	c3                   	retq   
    6630:	b8 10 00 00 00       	mov    $0x10,%eax
    6635:	89 84 24 14 00 00 00 	mov    %eax,0x14(%rsp)
    663c:	89 d0                	mov    %edx,%eax
    663e:	83 c0 13             	add    $0x13,%eax
    6641:	83 e0 f0             	and    $0xfffffff0,%eax
    6644:	83 fa 0b             	cmp    $0xb,%edx
    6647:	72 07                	jb     6650 <guest_func_15+0xc0>
    6649:	89 84 24 14 00 00 00 	mov    %eax,0x14(%rsp)
    6650:	44 8b bc 24 14 00 00 	mov    0x14(%rsp),%r15d
    6657:	00 
    6658:	41 83 cf 0c          	or     $0xc,%r15d
    665c:	44 8b b4 24 18 00 00 	mov    0x18(%rsp),%r14d
    6663:	00 
    6664:	45 01 f7             	add    %r14d,%r15d
    6667:	4c 8b b4 24 08 00 00 	mov    0x8(%rsp),%r14
    666e:	00 
    666f:	4c 89 f7             	mov    %r14,%rdi
    6672:	44 89 fe             	mov    %r15d,%esi
    6675:	e8 76 ae ff ff       	callq  14f0 <guest_func_8>
    667a:	85 c0                	test   %eax,%eax
    667c:	75 18                	jne    6696 <guest_func_15+0x106>
    667e:	44 8b bc 24 1c 00 00 	mov    0x1c(%rsp),%r15d
    6685:	00 
    6686:	44 89 f8             	mov    %r15d,%eax
    6689:	48 83 c4 20          	add    $0x20,%rsp
    668d:	41 5f                	pop    %r15
    668f:	41 5e                	pop    %r14
    6691:	41 5d                	pop    %r13
    6693:	5b                   	pop    %rbx
    6694:	5d                   	pop    %rbp
    6695:	c3                   	retq   
    6696:	89 c1                	mov    %eax,%ecx
    6698:	83 c1 f8             	add    $0xfffffff8,%ecx
    669b:	44 8b bc 24 18 00 00 	mov    0x18(%rsp),%r15d
    66a2:	00 
    66a3:	41 83 c7 ff          	add    $0xffffffff,%r15d
    66a7:	41 21 c7             	and    %eax,%r15d
    66aa:	45 85 ff             	test   %r15d,%r15d
    66ad:	75 0c                	jne    66bb <guest_func_15+0x12b>
    66af:	89 8c 24 10 00 00 00 	mov    %ecx,0x10(%rsp)
    66b6:	e9 0c 01 00 00       	jmpq   67c7 <guest_func_15+0x237>
    66bb:	89 c2                	mov    %eax,%edx
    66bd:	83 c2 fc             	add    $0xfffffffc,%edx
    66c0:	89 d2                	mov    %edx,%edx
    66c2:	4c 8b bc 24 08 00 00 	mov    0x8(%rsp),%r15
    66c9:	00 
    66ca:	41 8b 1c 17          	mov    (%r15,%rdx,1),%ebx
    66ce:	89 de                	mov    %ebx,%esi
    66d0:	83 e6 f8             	and    $0xfffffff8,%esi
    66d3:	44 8b bc 24 18 00 00 	mov    0x18(%rsp),%r15d
    66da:	00 
    66db:	41 01 c7             	add    %eax,%r15d
    66de:	41 83 c7 ff          	add    $0xffffffff,%r15d
    66e2:	44 8b b4 24 1c 00 00 	mov    0x1c(%rsp),%r14d
    66e9:	00 
    66ea:	44 8b ac 24 18 00 00 	mov    0x18(%rsp),%r13d
    66f1:	00 
    66f2:	45 29 ee             	sub    %r13d,%r14d
    66f5:	45 21 f7             	and    %r14d,%r15d
    66f8:	41 83 c7 f8          	add    $0xfffffff8,%r15d
    66fc:	44 89 bc 24 10 00 00 	mov    %r15d,0x10(%rsp)
    6703:	00 
    6704:	45 89 ef             	mov    %r13d,%r15d
    6707:	44 8b b4 24 10 00 00 	mov    0x10(%rsp),%r14d
    670e:	00 
    670f:	44 89 f8             	mov    %r15d,%eax
    6712:	44 01 f0             	add    %r14d,%eax
    6715:	45 89 f7             	mov    %r14d,%r15d
    6718:	41 29 cf             	sub    %ecx,%r15d
    671b:	41 83 ff 0f          	cmp    $0xf,%r15d
    671f:	77 07                	ja     6728 <guest_func_15+0x198>
    6721:	89 84 24 10 00 00 00 	mov    %eax,0x10(%rsp)
    6728:	44 8b bc 24 10 00 00 	mov    0x10(%rsp),%r15d
    672f:	00 
    6730:	44 89 f8             	mov    %r15d,%eax
    6733:	29 c8                	sub    %ecx,%eax
    6735:	29 c6                	sub    %eax,%esi
    6737:	83 e3 03             	and    $0x3,%ebx
    673a:	85 db                	test   %ebx,%ebx
    673c:	75 1e                	jne    675c <guest_func_15+0x1cc>
    673e:	44 89 fa             	mov    %r15d,%edx
    6741:	4c 8b bc 24 08 00 00 	mov    0x8(%rsp),%r15
    6748:	00 
    6749:	41 89 74 17 04       	mov    %esi,0x4(%r15,%rdx,1)
    674e:	89 c9                	mov    %ecx,%ecx
    6750:	41 8b 0c 0f          	mov    (%r15,%rcx,1),%ecx
    6754:	01 c1                	add    %eax,%ecx
    6756:	41 89 0c 17          	mov    %ecx,(%r15,%rdx,1)
    675a:	eb 6b                	jmp    67c7 <guest_func_15+0x237>
    675c:	44 89 fb             	mov    %r15d,%ebx
    675f:	4c 8b bc 24 08 00 00 	mov    0x8(%rsp),%r15
    6766:	00 
    6767:	41 8b 7c 1f 04       	mov    0x4(%r15,%rbx,1),%edi
    676c:	83 e7 01             	and    $0x1,%edi
    676f:	09 f7                	or     %esi,%edi
    6771:	83 cf 02             	or     $0x2,%edi
    6774:	41 89 7c 1f 04       	mov    %edi,0x4(%r15,%rbx,1)
    6779:	44 8b bc 24 10 00 00 	mov    0x10(%rsp),%r15d
    6780:	00 
    6781:	41 01 f7             	add    %esi,%r15d
    6784:	44 89 fe             	mov    %r15d,%esi
    6787:	4c 8b bc 24 08 00 00 	mov    0x8(%rsp),%r15
    678e:	00 
    678f:	41 8b 7c 37 04       	mov    0x4(%r15,%rsi,1),%edi
    6794:	83 cf 01             	or     $0x1,%edi
    6797:	41 89 7c 37 04       	mov    %edi,0x4(%r15,%rsi,1)
    679c:	41 8b 34 17          	mov    (%r15,%rdx,1),%esi
    67a0:	83 e6 01             	and    $0x1,%esi
    67a3:	09 c6                	or     %eax,%esi
    67a5:	83 ce 02             	or     $0x2,%esi
    67a8:	41 89 34 17          	mov    %esi,(%r15,%rdx,1)
    67ac:	41 8b 54 1f 04       	mov    0x4(%r15,%rbx,1),%edx
    67b1:	83 ca 01             	or     $0x1,%edx
    67b4:	41 89 54 1f 04       	mov    %edx,0x4(%r15,%rbx,1)
    67b9:	4c 89 ff             	mov    %r15,%rdi
    67bc:	40 89 ce             	rex mov %ecx,%esi
    67bf:	40 89 c2             	rex mov %eax,%edx
    67c2:	e8 c9 f4 ff ff       	callq  5c90 <guest_func_13>
    67c7:	44 8b bc 24 10 00 00 	mov    0x10(%rsp),%r15d
    67ce:	00 
    67cf:	44 89 f8             	mov    %r15d,%eax
    67d2:	4c 8b bc 24 08 00 00 	mov    0x8(%rsp),%r15
    67d9:	00 
    67da:	41 8b 4c 07 04       	mov    0x4(%r15,%rax,1),%ecx
    67df:	89 ca                	mov    %ecx,%edx
    67e1:	83 e2 03             	and    $0x3,%edx
    67e4:	85 d2                	test   %edx,%edx
    67e6:	0f 84 9e 00 00 00    	je     688a <guest_func_15+0x2fa>
    67ec:	89 ca                	mov    %ecx,%edx
    67ee:	83 e2 f8             	and    $0xfffffff8,%edx
    67f1:	44 8b bc 24 14 00 00 	mov    0x14(%rsp),%r15d
    67f8:	00 
    67f9:	41 83 c7 10          	add    $0x10,%r15d
    67fd:	44 39 fa             	cmp    %r15d,%edx
    6800:	0f 86 84 00 00 00    	jbe    688a <guest_func_15+0x2fa>
    6806:	83 e1 01             	and    $0x1,%ecx
    6809:	44 8b bc 24 14 00 00 	mov    0x14(%rsp),%r15d
    6810:	00 
    6811:	44 09 f9             	or     %r15d,%ecx
    6814:	83 c9 02             	or     $0x2,%ecx
    6817:	4c 8b bc 24 08 00 00 	mov    0x8(%rsp),%r15
    681e:	00 
    681f:	41 89 4c 07 04       	mov    %ecx,0x4(%r15,%rax,1)
    6824:	44 8b bc 24 14 00 00 	mov    0x14(%rsp),%r15d
    682b:	00 
    682c:	44 8b b4 24 10 00 00 	mov    0x10(%rsp),%r14d
    6833:	00 
    6834:	45 01 f7             	add    %r14d,%r15d
    6837:	89 d0                	mov    %edx,%eax
    6839:	44 8b b4 24 14 00 00 	mov    0x14(%rsp),%r14d
    6840:	00 
    6841:	44 29 f0             	sub    %r14d,%eax
    6844:	89 c1                	mov    %eax,%ecx
    6846:	83 c9 03             	or     $0x3,%ecx
    6849:	44 89 fb             	mov    %r15d,%ebx
    684c:	4c 8b b4 24 08 00 00 	mov    0x8(%rsp),%r14
    6853:	00 
    6854:	41 89 4c 1e 04       	mov    %ecx,0x4(%r14,%rbx,1)
    6859:	44 8b b4 24 10 00 00 	mov    0x10(%rsp),%r14d
    6860:	00 
    6861:	41 01 d6             	add    %edx,%r14d
    6864:	44 89 f1             	mov    %r14d,%ecx
    6867:	4c 8b b4 24 08 00 00 	mov    0x8(%rsp),%r14
    686e:	00 
    686f:	41 8b 54 0e 04       	mov    0x4(%r14,%rcx,1),%edx
    6874:	83 ca 01             	or     $0x1,%edx
    6877:	41 89 54 0e 04       	mov    %edx,0x4(%r14,%rcx,1)
    687c:	4c 89 f7             	mov    %r14,%rdi
    687f:	44 89 fe             	mov    %r15d,%esi
    6882:	40 89 c2             	rex mov %eax,%edx
    6885:	e8 06 f4 ff ff       	callq  5c90 <guest_func_13>
    688a:	44 8b bc 24 10 00 00 	mov    0x10(%rsp),%r15d
    6891:	00 
    6892:	41 83 c7 08          	add    $0x8,%r15d
    6896:	44 89 f8             	mov    %r15d,%eax
    6899:	48 83 c4 20          	add    $0x20,%rsp
    689d:	41 5f                	pop    %r15
    689f:	41 5e                	pop    %r14
    68a1:	41 5d                	pop    %r13
    68a3:	5b                   	pop    %rbx
    68a4:	5d                   	pop    %rbp
    68a5:	c3                   	retq   
	...

00000000000068b0 <guest_func_blake2b_update>:
    68b0:	55                   	push   %rbp
    68b1:	48 89 e5             	mov    %rsp,%rbp
    68b4:	53                   	push   %rbx
    68b5:	41 55                	push   %r13
    68b7:	41 56                	push   %r14
    68b9:	41 57                	push   %r15
    68bb:	48 83 ec 20          	sub    $0x20,%rsp
    68bf:	48 89 bc 24 08 00 00 	mov    %rdi,0x8(%rsp)
    68c6:	00 
    68c7:	89 b4 24 18 00 00 00 	mov    %esi,0x18(%rsp)
    68ce:	89 94 24 14 00 00 00 	mov    %edx,0x14(%rsp)
    68d5:	89 8c 24 10 00 00 00 	mov    %ecx,0x10(%rsp)
    68dc:	31 c0                	xor    %eax,%eax
    68de:	89 84 24 1c 00 00 00 	mov    %eax,0x1c(%rsp)
    68e5:	41 89 cf             	mov    %ecx,%r15d
    68e8:	45 85 ff             	test   %r15d,%r15d
    68eb:	0f 84 2e 01 00 00    	je     6a1f <guest_func_blake2b_update+0x16f>
    68f1:	44 8b bc 24 18 00 00 	mov    0x18(%rsp),%r15d
    68f8:	00 
    68f9:	44 89 f8             	mov    %r15d,%eax
    68fc:	48 89 84 24 00 00 00 	mov    %rax,0x0(%rsp)
    6903:	00 
    6904:	4c 8b bc 24 08 00 00 	mov    0x8(%rsp),%r15
    690b:	00 
    690c:	49 89 c6             	mov    %rax,%r14
    690f:	43 8b 84 37 d0 00 00 	mov    0xd0(%r15,%r14,1),%eax
    6916:	00 
    6917:	81 f8 80 00 00 00    	cmp    $0x80,%eax
    691d:	75 7d                	jne    699c <guest_func_blake2b_update+0xec>
    691f:	4b 8b 84 37 c0 00 00 	mov    0xc0(%r15,%r14,1),%rax
    6926:	00 
    6927:	48 89 c1             	mov    %rax,%rcx
    692a:	48 81 c1 80 00 00 00 	add    $0x80,%rcx
    6931:	4b 89 8c 37 c0 00 00 	mov    %rcx,0xc0(%r15,%r14,1)
    6938:	00 
    6939:	48 83 f8 80          	cmp    $0xffffffffffffff80,%rax
    693d:	72 14                	jb     6953 <guest_func_blake2b_update+0xa3>
    693f:	4b 8b 84 37 c8 00 00 	mov    0xc8(%r15,%r14,1),%rax
    6946:	00 
    6947:	48 83 c0 01          	add    $0x1,%rax
    694b:	4b 89 84 37 c8 00 00 	mov    %rax,0xc8(%r15,%r14,1)
    6952:	00 
    6953:	4c 8b bc 24 08 00 00 	mov    0x8(%rsp),%r15
    695a:	00 
    695b:	44 8b b4 24 18 00 00 	mov    0x18(%rsp),%r14d
    6962:	00 
    6963:	44 8b ac 24 1c 00 00 	mov    0x1c(%rsp),%r13d
    696a:	00 
    696b:	4c 89 ff             	mov    %r15,%rdi
    696e:	44 89 f6             	mov    %r14d,%esi
    6971:	44 89 ea             	mov    %r13d,%edx
    6974:	e8 e7 d7 ff ff       	callq  4160 <guest_func_2>
    6979:	44 8b bc 24 1c 00 00 	mov    0x1c(%rsp),%r15d
    6980:	00 
    6981:	4c 8b b4 24 08 00 00 	mov    0x8(%rsp),%r14
    6988:	00 
    6989:	4c 8b ac 24 00 00 00 	mov    0x0(%rsp),%r13
    6990:	00 
    6991:	47 89 bc 2e d0 00 00 	mov    %r15d,0xd0(%r14,%r13,1)
    6998:	00 
    6999:	44 89 f8             	mov    %r15d,%eax
    699c:	44 8b bc 24 14 00 00 	mov    0x14(%rsp),%r15d
    69a3:	00 
    69a4:	44 89 f9             	mov    %r15d,%ecx
    69a7:	4c 8b bc 24 08 00 00 	mov    0x8(%rsp),%r15
    69ae:	00 
    69af:	41 0f b6 0c 0f       	movzbl (%r15,%rcx,1),%ecx
    69b4:	89 c2                	mov    %eax,%edx
    69b6:	83 c2 01             	add    $0x1,%edx
    69b9:	44 8b bc 24 18 00 00 	mov    0x18(%rsp),%r15d
    69c0:	00 
    69c1:	44 89 fb             	mov    %r15d,%ebx
    69c4:	4c 8b bc 24 08 00 00 	mov    0x8(%rsp),%r15
    69cb:	00 
    69cc:	41 89 94 1f d0 00 00 	mov    %edx,0xd0(%r15,%rbx,1)
    69d3:	00 
    69d4:	44 8b bc 24 18 00 00 	mov    0x18(%rsp),%r15d
    69db:	00 
    69dc:	41 01 c7             	add    %eax,%r15d
    69df:	44 89 f8             	mov    %r15d,%eax
    69e2:	4c 8b bc 24 08 00 00 	mov    0x8(%rsp),%r15
    69e9:	00 
    69ea:	41 88 0c 07          	mov    %cl,(%r15,%rax,1)
    69ee:	44 8b bc 24 14 00 00 	mov    0x14(%rsp),%r15d
    69f5:	00 
    69f6:	41 83 c7 01          	add    $0x1,%r15d
    69fa:	44 89 bc 24 14 00 00 	mov    %r15d,0x14(%rsp)
    6a01:	00 
    6a02:	44 8b bc 24 10 00 00 	mov    0x10(%rsp),%r15d
    6a09:	00 
    6a0a:	41 83 c7 ff          	add    $0xffffffff,%r15d
    6a0e:	44 89 bc 24 10 00 00 	mov    %r15d,0x10(%rsp)
    6a15:	00 
    6a16:	45 85 ff             	test   %r15d,%r15d
    6a19:	0f 85 d2 fe ff ff    	jne    68f1 <guest_func_blake2b_update+0x41>
    6a1f:	44 8b bc 24 1c 00 00 	mov    0x1c(%rsp),%r15d
    6a26:	00 
    6a27:	44 89 f8             	mov    %r15d,%eax
    6a2a:	48 83 c4 20          	add    $0x20,%rsp
    6a2e:	41 5f                	pop    %r15
    6a30:	41 5e                	pop    %r14
    6a32:	41 5d                	pop    %r13
    6a34:	5b                   	pop    %rbx
    6a35:	5d                   	pop    %rbp
    6a36:	c3                   	retq   
	...

0000000000006a40 <guest_func_aligned_alloc>:
    6a40:	55                   	push   %rbp
    6a41:	48 89 e5             	mov    %rsp,%rbp
    6a44:	83 fe 10             	cmp    $0x10,%esi
    6a47:	77 0a                	ja     6a53 <guest_func_aligned_alloc+0x13>
    6a49:	40 89 d6             	rex mov %edx,%esi
    6a4c:	e8 9f aa ff ff       	callq  14f0 <guest_func_8>
    6a51:	5d                   	pop    %rbp
    6a52:	c3                   	retq   
    6a53:	e8 38 fb ff ff       	callq  6590 <guest_func_15>
    6a58:	5d                   	pop    %rbp
    6a59:	c3                   	retq   
    6a5a:	00 00                	add    %al,(%rax)
    6a5c:	00 00                	add    %al,(%rax)
	...

0000000000006a60 <guest_func_memset>:
    6a60:	55                   	push   %rbp
    6a61:	48 89 e5             	mov    %rsp,%rbp
    6a64:	53                   	push   %rbx
    6a65:	31 c0                	xor    %eax,%eax
    6a67:	85 c9                	test   %ecx,%ecx
    6a69:	0f 84 75 01 00 00    	je     6be4 <guest_func_memset+0x184>
    6a6f:	89 f3                	mov    %esi,%ebx
    6a71:	88 14 1f             	mov    %dl,(%rdi,%rbx,1)
    6a74:	41 89 f0             	mov    %esi,%r8d
    6a77:	41 01 c8             	add    %ecx,%r8d
    6a7a:	45 89 c1             	mov    %r8d,%r9d
    6a7d:	41 83 c1 ff          	add    $0xffffffff,%r9d
    6a81:	45 89 c9             	mov    %r9d,%r9d
    6a84:	42 88 14 0f          	mov    %dl,(%rdi,%r9,1)
    6a88:	83 f9 03             	cmp    $0x3,%ecx
    6a8b:	0f 82 53 01 00 00    	jb     6be4 <guest_func_memset+0x184>
    6a91:	88 54 1f 02          	mov    %dl,0x2(%rdi,%rbx,1)
    6a95:	88 54 1f 01          	mov    %dl,0x1(%rdi,%rbx,1)
    6a99:	45 89 c1             	mov    %r8d,%r9d
    6a9c:	41 83 c1 fd          	add    $0xfffffffd,%r9d
    6aa0:	45 89 c9             	mov    %r9d,%r9d
    6aa3:	42 88 14 0f          	mov    %dl,(%rdi,%r9,1)
    6aa7:	45 89 c1             	mov    %r8d,%r9d
    6aaa:	41 83 c1 fe          	add    $0xfffffffe,%r9d
    6aae:	45 89 c9             	mov    %r9d,%r9d
    6ab1:	42 88 14 0f          	mov    %dl,(%rdi,%r9,1)
    6ab5:	83 f9 07             	cmp    $0x7,%ecx
    6ab8:	0f 82 26 01 00 00    	jb     6be4 <guest_func_memset+0x184>
    6abe:	88 54 1f 03          	mov    %dl,0x3(%rdi,%rbx,1)
    6ac2:	41 83 c0 fc          	add    $0xfffffffc,%r8d
    6ac6:	44 89 c3             	mov    %r8d,%ebx
    6ac9:	88 14 1f             	mov    %dl,(%rdi,%rbx,1)
    6acc:	83 f9 09             	cmp    $0x9,%ecx
    6acf:	0f 82 0f 01 00 00    	jb     6be4 <guest_func_memset+0x184>
    6ad5:	29 f0                	sub    %esi,%eax
    6ad7:	83 e0 03             	and    $0x3,%eax
    6ada:	89 c3                	mov    %eax,%ebx
    6adc:	01 f3                	add    %esi,%ebx
    6ade:	81 e2 ff 00 00 00    	and    $0xff,%edx
    6ae4:	41 b8 01 01 01 01    	mov    $0x1010101,%r8d
    6aea:	41 0f af d0          	imul   %r8d,%edx
    6aee:	41 89 d8             	mov    %ebx,%r8d
    6af1:	42 89 14 07          	mov    %edx,(%rdi,%r8,1)
    6af5:	29 c1                	sub    %eax,%ecx
    6af7:	40 89 c8             	rex mov %ecx,%eax
    6afa:	83 e0 fc             	and    $0xfffffffc,%eax
    6afd:	89 c1                	mov    %eax,%ecx
    6aff:	01 d9                	add    %ebx,%ecx
    6b01:	41 89 c9             	mov    %ecx,%r9d
    6b04:	41 83 c1 fc          	add    $0xfffffffc,%r9d
    6b08:	45 89 c9             	mov    %r9d,%r9d
    6b0b:	42 89 14 0f          	mov    %edx,(%rdi,%r9,1)
    6b0f:	83 f8 09             	cmp    $0x9,%eax
    6b12:	0f 82 cc 00 00 00    	jb     6be4 <guest_func_memset+0x184>
    6b18:	42 89 54 07 08       	mov    %edx,0x8(%rdi,%r8,1)
    6b1d:	42 89 54 07 04       	mov    %edx,0x4(%rdi,%r8,1)
    6b22:	41 89 c9             	mov    %ecx,%r9d
    6b25:	41 83 c1 f8          	add    $0xfffffff8,%r9d
    6b29:	45 89 c9             	mov    %r9d,%r9d
    6b2c:	42 89 14 0f          	mov    %edx,(%rdi,%r9,1)
    6b30:	41 89 c9             	mov    %ecx,%r9d
    6b33:	41 83 c1 f4          	add    $0xfffffff4,%r9d
    6b37:	45 89 c9             	mov    %r9d,%r9d
    6b3a:	42 89 14 0f          	mov    %edx,(%rdi,%r9,1)
    6b3e:	83 f8 19             	cmp    $0x19,%eax
    6b41:	0f 82 9d 00 00 00    	jb     6be4 <guest_func_memset+0x184>
    6b47:	42 89 54 07 18       	mov    %edx,0x18(%rdi,%r8,1)
    6b4c:	42 89 54 07 14       	mov    %edx,0x14(%rdi,%r8,1)
    6b51:	42 89 54 07 10       	mov    %edx,0x10(%rdi,%r8,1)
    6b56:	42 89 54 07 0c       	mov    %edx,0xc(%rdi,%r8,1)
    6b5b:	41 89 c8             	mov    %ecx,%r8d
    6b5e:	41 83 c0 f0          	add    $0xfffffff0,%r8d
    6b62:	45 89 c0             	mov    %r8d,%r8d
    6b65:	42 89 14 07          	mov    %edx,(%rdi,%r8,1)
    6b69:	41 89 c8             	mov    %ecx,%r8d
    6b6c:	41 83 c0 ec          	add    $0xffffffec,%r8d
    6b70:	45 89 c0             	mov    %r8d,%r8d
    6b73:	42 89 14 07          	mov    %edx,(%rdi,%r8,1)
    6b77:	41 89 c8             	mov    %ecx,%r8d
    6b7a:	41 83 c0 e8          	add    $0xffffffe8,%r8d
    6b7e:	45 89 c0             	mov    %r8d,%r8d
    6b81:	42 89 14 07          	mov    %edx,(%rdi,%r8,1)
    6b85:	83 c1 e4             	add    $0xffffffe4,%ecx
    6b88:	89 c9                	mov    %ecx,%ecx
    6b8a:	89 14 0f             	mov    %edx,(%rdi,%rcx,1)
    6b8d:	89 d9                	mov    %ebx,%ecx
    6b8f:	83 e1 04             	and    $0x4,%ecx
    6b92:	83 c9 18             	or     $0x18,%ecx
    6b95:	29 c8                	sub    %ecx,%eax
    6b97:	83 f8 20             	cmp    $0x20,%eax
    6b9a:	72 48                	jb     6be4 <guest_func_memset+0x184>
    6b9c:	89 d2                	mov    %edx,%edx
    6b9e:	49 89 d0             	mov    %rdx,%r8
    6ba1:	49 c1 e0 20          	shl    $0x20,%r8
    6ba5:	4c 09 c2             	or     %r8,%rdx
    6ba8:	01 cb                	add    %ecx,%ebx
    6baa:	eb 03                	jmp    6baf <guest_func_memset+0x14f>
    6bac:	40 89 cb             	rex mov %ecx,%ebx
    6baf:	89 d9                	mov    %ebx,%ecx
    6bb1:	48 89 14 0f          	mov    %rdx,(%rdi,%rcx,1)
    6bb5:	89 d9                	mov    %ebx,%ecx
    6bb7:	83 c1 18             	add    $0x18,%ecx
    6bba:	89 c9                	mov    %ecx,%ecx
    6bbc:	48 89 14 0f          	mov    %rdx,(%rdi,%rcx,1)
    6bc0:	89 d9                	mov    %ebx,%ecx
    6bc2:	83 c1 10             	add    $0x10,%ecx
    6bc5:	89 c9                	mov    %ecx,%ecx
    6bc7:	48 89 14 0f          	mov    %rdx,(%rdi,%rcx,1)
    6bcb:	89 d9                	mov    %ebx,%ecx
    6bcd:	83 c1 08             	add    $0x8,%ecx
    6bd0:	89 c9                	mov    %ecx,%ecx
    6bd2:	48 89 14 0f          	mov    %rdx,(%rdi,%rcx,1)
    6bd6:	40 89 d9             	rex mov %ebx,%ecx
    6bd9:	83 c1 20             	add    $0x20,%ecx
    6bdc:	83 c0 e0             	add    $0xffffffe0,%eax
    6bdf:	83 f8 1f             	cmp    $0x1f,%eax
    6be2:	77 c8                	ja     6bac <guest_func_memset+0x14c>
    6be4:	40 89 f0             	rex mov %esi,%eax
    6be7:	5b                   	pop    %rbx
    6be8:	5d                   	pop    %rbp
    6be9:	c3                   	retq   
    6bea:	00 00                	add    %al,(%rax)
    6bec:	00 00                	add    %al,(%rax)
	...

0000000000006bf0 <guest_func_memcpy>:
    6bf0:	55                   	push   %rbp
    6bf1:	48 89 e5             	mov    %rsp,%rbp
    6bf4:	53                   	push   %rbx
    6bf5:	41 54                	push   %r12
    6bf7:	41 55                	push   %r13
    6bf9:	31 c0                	xor    %eax,%eax
    6bfb:	85 c9                	test   %ecx,%ecx
    6bfd:	74 40                	je     6c3f <guest_func_memcpy+0x4f>
    6bff:	89 d3                	mov    %edx,%ebx
    6c01:	83 e3 03             	and    $0x3,%ebx
    6c04:	85 db                	test   %ebx,%ebx
    6c06:	74 37                	je     6c3f <guest_func_memcpy+0x4f>
    6c08:	89 f3                	mov    %esi,%ebx
    6c0a:	41 89 c8             	mov    %ecx,%r8d
    6c0d:	eb 03                	jmp    6c12 <guest_func_memcpy+0x22>
    6c0f:	41 89 c8             	mov    %ecx,%r8d
    6c12:	89 d1                	mov    %edx,%ecx
    6c14:	0f b6 0c 0f          	movzbl (%rdi,%rcx,1),%ecx
    6c18:	41 89 d9             	mov    %ebx,%r9d
    6c1b:	42 88 0c 0f          	mov    %cl,(%rdi,%r9,1)
    6c1f:	44 89 c1             	mov    %r8d,%ecx
    6c22:	83 c1 ff             	add    $0xffffffff,%ecx
    6c25:	83 c3 01             	add    $0x1,%ebx
    6c28:	83 c2 01             	add    $0x1,%edx
    6c2b:	41 83 f8 01          	cmp    $0x1,%r8d
    6c2f:	74 10                	je     6c41 <guest_func_memcpy+0x51>
    6c31:	41 89 d0             	mov    %edx,%r8d
    6c34:	41 83 e0 03          	and    $0x3,%r8d
    6c38:	45 85 c0             	test   %r8d,%r8d
    6c3b:	75 d2                	jne    6c0f <guest_func_memcpy+0x1f>
    6c3d:	eb 02                	jmp    6c41 <guest_func_memcpy+0x51>
    6c3f:	89 f3                	mov    %esi,%ebx
    6c41:	41 89 d8             	mov    %ebx,%r8d
    6c44:	41 83 e0 03          	and    $0x3,%r8d
    6c48:	45 85 c0             	test   %r8d,%r8d
    6c4b:	0f 85 06 01 00 00    	jne    6d57 <guest_func_memcpy+0x167>
    6c51:	83 f9 10             	cmp    $0x10,%ecx
    6c54:	72 70                	jb     6cc6 <guest_func_memcpy+0xd6>
    6c56:	eb 03                	jmp    6c5b <guest_func_memcpy+0x6b>
    6c58:	40 89 c3             	rex mov %eax,%ebx
    6c5b:	89 d0                	mov    %edx,%eax
    6c5d:	8b 04 07             	mov    (%rdi,%rax,1),%eax
    6c60:	41 89 d8             	mov    %ebx,%r8d
    6c63:	42 89 04 07          	mov    %eax,(%rdi,%r8,1)
    6c67:	89 d8                	mov    %ebx,%eax
    6c69:	83 c0 04             	add    $0x4,%eax
    6c6c:	41 89 d0             	mov    %edx,%r8d
    6c6f:	41 83 c0 04          	add    $0x4,%r8d
    6c73:	45 89 c0             	mov    %r8d,%r8d
    6c76:	46 8b 04 07          	mov    (%rdi,%r8,1),%r8d
    6c7a:	89 c0                	mov    %eax,%eax
    6c7c:	44 89 04 07          	mov    %r8d,(%rdi,%rax,1)
    6c80:	89 d8                	mov    %ebx,%eax
    6c82:	83 c0 08             	add    $0x8,%eax
    6c85:	41 89 d0             	mov    %edx,%r8d
    6c88:	41 83 c0 08          	add    $0x8,%r8d
    6c8c:	45 89 c0             	mov    %r8d,%r8d
    6c8f:	46 8b 04 07          	mov    (%rdi,%r8,1),%r8d
    6c93:	89 c0                	mov    %eax,%eax
    6c95:	44 89 04 07          	mov    %r8d,(%rdi,%rax,1)
    6c99:	89 d8                	mov    %ebx,%eax
    6c9b:	83 c0 0c             	add    $0xc,%eax
    6c9e:	41 89 d0             	mov    %edx,%r8d
    6ca1:	41 83 c0 0c          	add    $0xc,%r8d
    6ca5:	45 89 c0             	mov    %r8d,%r8d
    6ca8:	46 8b 04 07          	mov    (%rdi,%r8,1),%r8d
    6cac:	89 c0                	mov    %eax,%eax
    6cae:	44 89 04 07          	mov    %r8d,(%rdi,%rax,1)
    6cb2:	40 89 d8             	rex mov %ebx,%eax
    6cb5:	83 c0 10             	add    $0x10,%eax
    6cb8:	83 c2 10             	add    $0x10,%edx
    6cbb:	83 c1 f0             	add    $0xfffffff0,%ecx
    6cbe:	83 f9 0f             	cmp    $0xf,%ecx
    6cc1:	77 95                	ja     6c58 <guest_func_memcpy+0x68>
    6cc3:	40 89 c3             	rex mov %eax,%ebx
    6cc6:	89 c8                	mov    %ecx,%eax
    6cc8:	83 e0 08             	and    $0x8,%eax
    6ccb:	85 c0                	test   %eax,%eax
    6ccd:	74 13                	je     6ce2 <guest_func_memcpy+0xf2>
    6ccf:	89 d0                	mov    %edx,%eax
    6cd1:	48 8b 04 07          	mov    (%rdi,%rax,1),%rax
    6cd5:	41 89 d8             	mov    %ebx,%r8d
    6cd8:	4a 89 04 07          	mov    %rax,(%rdi,%r8,1)
    6cdc:	83 c3 08             	add    $0x8,%ebx
    6cdf:	83 c2 08             	add    $0x8,%edx
    6ce2:	89 c8                	mov    %ecx,%eax
    6ce4:	83 e0 04             	and    $0x4,%eax
    6ce7:	85 c0                	test   %eax,%eax
    6ce9:	74 12                	je     6cfd <guest_func_memcpy+0x10d>
    6ceb:	89 d0                	mov    %edx,%eax
    6ced:	8b 04 07             	mov    (%rdi,%rax,1),%eax
    6cf0:	41 89 d8             	mov    %ebx,%r8d
    6cf3:	42 89 04 07          	mov    %eax,(%rdi,%r8,1)
    6cf7:	83 c3 04             	add    $0x4,%ebx
    6cfa:	83 c2 04             	add    $0x4,%edx
    6cfd:	89 c8                	mov    %ecx,%eax
    6cff:	83 e0 02             	and    $0x2,%eax
    6d02:	85 c0                	test   %eax,%eax
    6d04:	74 31                	je     6d37 <guest_func_memcpy+0x147>
    6d06:	89 d0                	mov    %edx,%eax
    6d08:	44 0f b6 04 07       	movzbl (%rdi,%rax,1),%r8d
    6d0d:	41 89 d9             	mov    %ebx,%r9d
    6d10:	45 89 c2             	mov    %r8d,%r10d
    6d13:	49 89 f8             	mov    %rdi,%r8
    6d16:	40 89 cf             	rex mov %ecx,%edi
    6d19:	44 89 d1             	mov    %r10d,%ecx
    6d1c:	43 88 0c 08          	mov    %cl,(%r8,%r9,1)
    6d20:	41 0f b6 44 00 01    	movzbl 0x1(%r8,%rax,1),%eax
    6d26:	43 88 44 08 01       	mov    %al,0x1(%r8,%r9,1)
    6d2b:	83 c3 02             	add    $0x2,%ebx
    6d2e:	83 c2 02             	add    $0x2,%edx
    6d31:	40 89 f9             	rex mov %edi,%ecx
    6d34:	4c 89 c7             	mov    %r8,%rdi
    6d37:	83 e1 01             	and    $0x1,%ecx
    6d3a:	85 c9                	test   %ecx,%ecx
    6d3c:	0f 84 1b 05 00 00    	je     725d <guest_func_memcpy+0x66d>
    6d42:	89 d0                	mov    %edx,%eax
    6d44:	0f b6 04 07          	movzbl (%rdi,%rax,1),%eax
    6d48:	89 d9                	mov    %ebx,%ecx
    6d4a:	88 04 0f             	mov    %al,(%rdi,%rcx,1)
    6d4d:	40 89 f0             	rex mov %esi,%eax
    6d50:	41 5d                	pop    %r13
    6d52:	41 5c                	pop    %r12
    6d54:	5b                   	pop    %rbx
    6d55:	5d                   	pop    %rbp
    6d56:	c3                   	retq   
    6d57:	83 f9 20             	cmp    $0x20,%ecx
    6d5a:	0f 82 17 03 00 00    	jb     7077 <guest_func_memcpy+0x487>
    6d60:	41 83 c0 ff          	add    $0xffffffff,%r8d
    6d64:	41 83 f8 03          	cmp    $0x3,%r8d
    6d68:	0f 83 09 03 00 00    	jae    7077 <guest_func_memcpy+0x487>
    6d6e:	45 89 c0             	mov    %r8d,%r8d
    6d71:	4c 8d 0d ef 04 00 00 	lea    0x4ef(%rip),%r9        # 7267 <guest_func_memcpy+0x677>
    6d78:	4f 63 04 81          	movslq (%r9,%r8,4),%r8
    6d7c:	4d 01 c1             	add    %r8,%r9
    6d7f:	41 ff e1             	jmpq   *%r9
    6d82:	41 89 d0             	mov    %edx,%r8d
    6d85:	46 0f b6 4c 07 01    	movzbl 0x1(%rdi,%r8,1),%r9d
    6d8b:	41 89 da             	mov    %ebx,%r10d
    6d8e:	45 89 cb             	mov    %r9d,%r11d
    6d91:	49 89 f9             	mov    %rdi,%r9
    6d94:	40 89 c7             	rex mov %eax,%edi
    6d97:	44 89 d8             	mov    %r11d,%eax
    6d9a:	43 88 44 11 01       	mov    %al,0x1(%r9,%r10,1)
    6d9f:	43 8b 04 01          	mov    (%r9,%r8,1),%eax
    6da3:	43 88 04 11          	mov    %al,(%r9,%r10,1)
    6da7:	47 0f b6 44 01 02    	movzbl 0x2(%r9,%r8,1),%r8d
    6dad:	45 89 c3             	mov    %r8d,%r11d
    6db0:	41 89 d8             	mov    %ebx,%r8d
    6db3:	44 89 db             	mov    %r11d,%ebx
    6db6:	43 88 5c 11 02       	mov    %bl,0x2(%r9,%r10,1)
    6dbb:	83 c1 fd             	add    $0xfffffffd,%ecx
    6dbe:	44 89 c3             	mov    %r8d,%ebx
    6dc1:	83 c3 03             	add    $0x3,%ebx
    6dc4:	41 89 f8             	mov    %edi,%r8d
    6dc7:	4c 89 cf             	mov    %r9,%rdi
    6dca:	45 89 c1             	mov    %r8d,%r9d
    6dcd:	41 01 d9             	add    %ebx,%r9d
    6dd0:	41 89 d2             	mov    %edx,%r10d
    6dd3:	45 01 c2             	add    %r8d,%r10d
    6dd6:	45 89 d3             	mov    %r10d,%r11d
    6dd9:	41 83 c3 04          	add    $0x4,%r11d
    6ddd:	45 89 db             	mov    %r11d,%r11d
    6de0:	46 8b 1c 1f          	mov    (%rdi,%r11,1),%r11d
    6de4:	45 89 dc             	mov    %r11d,%r12d
    6de7:	41 c1 e4 08          	shl    $0x8,%r12d
    6deb:	c1 e8 18             	shr    $0x18,%eax
    6dee:	41 09 c4             	or     %eax,%r12d
    6df1:	44 89 c8             	mov    %r9d,%eax
    6df4:	44 89 24 07          	mov    %r12d,(%rdi,%rax,1)
    6df8:	44 89 c8             	mov    %r9d,%eax
    6dfb:	83 c0 04             	add    $0x4,%eax
    6dfe:	45 89 d4             	mov    %r10d,%r12d
    6e01:	41 83 c4 08          	add    $0x8,%r12d
    6e05:	45 89 e4             	mov    %r12d,%r12d
    6e08:	46 8b 24 27          	mov    (%rdi,%r12,1),%r12d
    6e0c:	45 89 e5             	mov    %r12d,%r13d
    6e0f:	41 c1 e5 08          	shl    $0x8,%r13d
    6e13:	41 c1 eb 18          	shr    $0x18,%r11d
    6e17:	45 09 dd             	or     %r11d,%r13d
    6e1a:	89 c0                	mov    %eax,%eax
    6e1c:	44 89 2c 07          	mov    %r13d,(%rdi,%rax,1)
    6e20:	44 89 c8             	mov    %r9d,%eax
    6e23:	83 c0 08             	add    $0x8,%eax
    6e26:	45 89 d3             	mov    %r10d,%r11d
    6e29:	41 83 c3 0c          	add    $0xc,%r11d
    6e2d:	45 89 db             	mov    %r11d,%r11d
    6e30:	46 8b 1c 1f          	mov    (%rdi,%r11,1),%r11d
    6e34:	45 89 dd             	mov    %r11d,%r13d
    6e37:	41 c1 e5 08          	shl    $0x8,%r13d
    6e3b:	41 c1 ec 18          	shr    $0x18,%r12d
    6e3f:	45 09 e5             	or     %r12d,%r13d
    6e42:	89 c0                	mov    %eax,%eax
    6e44:	44 89 2c 07          	mov    %r13d,(%rdi,%rax,1)
    6e48:	41 83 c1 0c          	add    $0xc,%r9d
    6e4c:	41 83 c2 10          	add    $0x10,%r10d
    6e50:	44 89 d0             	mov    %r10d,%eax
    6e53:	8b 04 07             	mov    (%rdi,%rax,1),%eax
    6e56:	41 89 c2             	mov    %eax,%r10d
    6e59:	41 c1 e2 08          	shl    $0x8,%r10d
    6e5d:	41 c1 eb 18          	shr    $0x18,%r11d
    6e61:	45 09 da             	or     %r11d,%r10d
    6e64:	45 89 c9             	mov    %r9d,%r9d
    6e67:	46 89 14 0f          	mov    %r10d,(%rdi,%r9,1)
    6e6b:	41 83 c0 10          	add    $0x10,%r8d
    6e6f:	83 c1 f0             	add    $0xfffffff0,%ecx
    6e72:	83 f9 10             	cmp    $0x10,%ecx
    6e75:	0f 87 4f ff ff ff    	ja     6dca <guest_func_memcpy+0x1da>
    6e7b:	44 89 c0             	mov    %r8d,%eax
    6e7e:	01 d8                	add    %ebx,%eax
    6e80:	44 01 c2             	add    %r8d,%edx
    6e83:	83 c2 03             	add    $0x3,%edx
    6e86:	40 89 c3             	rex mov %eax,%ebx
    6e89:	e9 e9 01 00 00       	jmpq   7077 <guest_func_memcpy+0x487>
    6e8e:	41 89 d0             	mov    %edx,%r8d
    6e91:	46 8b 0c 07          	mov    (%rdi,%r8,1),%r9d
    6e95:	41 89 da             	mov    %ebx,%r10d
    6e98:	45 89 cb             	mov    %r9d,%r11d
    6e9b:	49 89 f9             	mov    %rdi,%r9
    6e9e:	40 89 c7             	rex mov %eax,%edi
    6ea1:	44 89 d8             	mov    %r11d,%eax
    6ea4:	43 88 04 11          	mov    %al,(%r9,%r10,1)
    6ea8:	47 0f b6 44 01 01    	movzbl 0x1(%r9,%r8,1),%r8d
    6eae:	45 89 c3             	mov    %r8d,%r11d
    6eb1:	41 89 d8             	mov    %ebx,%r8d
    6eb4:	44 89 db             	mov    %r11d,%ebx
    6eb7:	43 88 5c 11 01       	mov    %bl,0x1(%r9,%r10,1)
    6ebc:	83 c1 fe             	add    $0xfffffffe,%ecx
    6ebf:	44 89 c3             	mov    %r8d,%ebx
    6ec2:	83 c3 02             	add    $0x2,%ebx
    6ec5:	41 89 f8             	mov    %edi,%r8d
    6ec8:	4c 89 cf             	mov    %r9,%rdi
    6ecb:	45 89 c1             	mov    %r8d,%r9d
    6ece:	41 01 d9             	add    %ebx,%r9d
    6ed1:	41 89 d2             	mov    %edx,%r10d
    6ed4:	45 01 c2             	add    %r8d,%r10d
    6ed7:	45 89 d3             	mov    %r10d,%r11d
    6eda:	41 83 c3 04          	add    $0x4,%r11d
    6ede:	45 89 db             	mov    %r11d,%r11d
    6ee1:	46 8b 1c 1f          	mov    (%rdi,%r11,1),%r11d
    6ee5:	45 89 dc             	mov    %r11d,%r12d
    6ee8:	41 c1 e4 10          	shl    $0x10,%r12d
    6eec:	c1 e8 10             	shr    $0x10,%eax
    6eef:	41 09 c4             	or     %eax,%r12d
    6ef2:	44 89 c8             	mov    %r9d,%eax
    6ef5:	44 89 24 07          	mov    %r12d,(%rdi,%rax,1)
    6ef9:	44 89 c8             	mov    %r9d,%eax
    6efc:	83 c0 04             	add    $0x4,%eax
    6eff:	45 89 d4             	mov    %r10d,%r12d
    6f02:	41 83 c4 08          	add    $0x8,%r12d
    6f06:	45 89 e4             	mov    %r12d,%r12d
    6f09:	46 8b 24 27          	mov    (%rdi,%r12,1),%r12d
    6f0d:	45 89 e5             	mov    %r12d,%r13d
    6f10:	41 c1 e5 10          	shl    $0x10,%r13d
    6f14:	41 c1 eb 10          	shr    $0x10,%r11d
    6f18:	45 09 dd             	or     %r11d,%r13d
    6f1b:	89 c0                	mov    %eax,%eax
    6f1d:	44 89 2c 07          	mov    %r13d,(%rdi,%rax,1)
    6f21:	44 89 c8             	mov    %r9d,%eax
    6f24:	83 c0 08             	add    $0x8,%eax
    6f27:	45 89 d3             	mov    %r10d,%r11d
    6f2a:	41 83 c3 0c          	add    $0xc,%r11d
    6f2e:	45 89 db             	mov    %r11d,%r11d
    6f31:	46 8b 1c 1f          	mov    (%rdi,%r11,1),%r11d
    6f35:	45 89 dd             	mov    %r11d,%r13d
    6f38:	41 c1 e5 10          	shl    $0x10,%r13d
    6f3c:	41 c1 ec 10          	shr    $0x10,%r12d
    6f40:	45 09 e5             	or     %r12d,%r13d
    6f43:	89 c0                	mov    %eax,%eax
    6f45:	44 89 2c 07          	mov    %r13d,(%rdi,%rax,1)
    6f49:	41 83 c1 0c          	add    $0xc,%r9d
    6f4d:	41 83 c2 10          	add    $0x10,%r10d
    6f51:	44 89 d0             	mov    %r10d,%eax
    6f54:	8b 04 07             	mov    (%rdi,%rax,1),%eax
    6f57:	41 89 c2             	mov    %eax,%r10d
    6f5a:	41 c1 e2 10          	shl    $0x10,%r10d
    6f5e:	41 c1 eb 10          	shr    $0x10,%r11d
    6f62:	45 09 da             	or     %r11d,%r10d
    6f65:	45 89 c9             	mov    %r9d,%r9d
    6f68:	46 89 14 0f          	mov    %r10d,(%rdi,%r9,1)
    6f6c:	41 83 c0 10          	add    $0x10,%r8d
    6f70:	83 c1 f0             	add    $0xfffffff0,%ecx
    6f73:	83 f9 11             	cmp    $0x11,%ecx
    6f76:	0f 87 4f ff ff ff    	ja     6ecb <guest_func_memcpy+0x2db>
    6f7c:	44 89 c0             	mov    %r8d,%eax
    6f7f:	01 d8                	add    %ebx,%eax
    6f81:	44 01 c2             	add    %r8d,%edx
    6f84:	83 c2 02             	add    $0x2,%edx
    6f87:	40 89 c3             	rex mov %eax,%ebx
    6f8a:	e9 e8 00 00 00       	jmpq   7077 <guest_func_memcpy+0x487>
    6f8f:	41 89 d0             	mov    %edx,%r8d
    6f92:	46 8b 04 07          	mov    (%rdi,%r8,1),%r8d
    6f96:	41 89 d9             	mov    %ebx,%r9d
    6f99:	45 89 c2             	mov    %r8d,%r10d
    6f9c:	49 89 f8             	mov    %rdi,%r8
    6f9f:	40 89 c7             	rex mov %eax,%edi
    6fa2:	44 89 d0             	mov    %r10d,%eax
    6fa5:	43 88 04 08          	mov    %al,(%r8,%r9,1)
    6fa9:	83 c1 ff             	add    $0xffffffff,%ecx
    6fac:	83 c3 01             	add    $0x1,%ebx
    6faf:	41 89 f9             	mov    %edi,%r9d
    6fb2:	4c 89 c7             	mov    %r8,%rdi
    6fb5:	45 89 c8             	mov    %r9d,%r8d
    6fb8:	45 89 c1             	mov    %r8d,%r9d
    6fbb:	41 01 d9             	add    %ebx,%r9d
    6fbe:	41 89 d2             	mov    %edx,%r10d
    6fc1:	45 01 c2             	add    %r8d,%r10d
    6fc4:	45 89 d3             	mov    %r10d,%r11d
    6fc7:	41 83 c3 04          	add    $0x4,%r11d
    6fcb:	45 89 db             	mov    %r11d,%r11d
    6fce:	46 8b 1c 1f          	mov    (%rdi,%r11,1),%r11d
    6fd2:	45 89 dc             	mov    %r11d,%r12d
    6fd5:	41 c1 e4 18          	shl    $0x18,%r12d
    6fd9:	c1 e8 08             	shr    $0x8,%eax
    6fdc:	41 09 c4             	or     %eax,%r12d
    6fdf:	44 89 c8             	mov    %r9d,%eax
    6fe2:	44 89 24 07          	mov    %r12d,(%rdi,%rax,1)
    6fe6:	44 89 c8             	mov    %r9d,%eax
    6fe9:	83 c0 04             	add    $0x4,%eax
    6fec:	45 89 d4             	mov    %r10d,%r12d
    6fef:	41 83 c4 08          	add    $0x8,%r12d
    6ff3:	45 89 e4             	mov    %r12d,%r12d
    6ff6:	46 8b 24 27          	mov    (%rdi,%r12,1),%r12d
    6ffa:	45 89 e5             	mov    %r12d,%r13d
    6ffd:	41 c1 e5 18          	shl    $0x18,%r13d
    7001:	41 c1 eb 08          	shr    $0x8,%r11d
    7005:	45 09 dd             	or     %r11d,%r13d
    7008:	89 c0                	mov    %eax,%eax
    700a:	44 89 2c 07          	mov    %r13d,(%rdi,%rax,1)
    700e:	44 89 c8             	mov    %r9d,%eax
    7011:	83 c0 08             	add    $0x8,%eax
    7014:	45 89 d3             	mov    %r10d,%r11d
    7017:	41 83 c3 0c          	add    $0xc,%r11d
    701b:	45 89 db             	mov    %r11d,%r11d
    701e:	46 8b 1c 1f          	mov    (%rdi,%r11,1),%r11d
    7022:	45 89 dd             	mov    %r11d,%r13d
    7025:	41 c1 e5 18          	shl    $0x18,%r13d
    7029:	41 c1 ec 08          	shr    $0x8,%r12d
    702d:	45 09 e5             	or     %r12d,%r13d
    7030:	89 c0                	mov    %eax,%eax
    7032:	44 89 2c 07          	mov    %r13d,(%rdi,%rax,1)
    7036:	41 83 c1 0c          	add    $0xc,%r9d
    703a:	41 83 c2 10          	add    $0x10,%r10d
    703e:	44 89 d0             	mov    %r10d,%eax
    7041:	8b 04 07             	mov    (%rdi,%rax,1),%eax
    7044:	41 89 c2             	mov    %eax,%r10d
    7047:	41 c1 e2 18          	shl    $0x18,%r10d
    704b:	41 c1 eb 08          	shr    $0x8,%r11d
    704f:	45 09 da             	or     %r11d,%r10d
    7052:	45 89 c9             	mov    %r9d,%r9d
    7055:	46 89 14 0f          	mov    %r10d,(%rdi,%r9,1)
    7059:	41 83 c0 10          	add    $0x10,%r8d
    705d:	83 c1 f0             	add    $0xfffffff0,%ecx
    7060:	83 f9 12             	cmp    $0x12,%ecx
    7063:	0f 87 4f ff ff ff    	ja     6fb8 <guest_func_memcpy+0x3c8>
    7069:	44 89 c0             	mov    %r8d,%eax
    706c:	01 d8                	add    %ebx,%eax
    706e:	44 01 c2             	add    %r8d,%edx
    7071:	83 c2 01             	add    $0x1,%edx
    7074:	40 89 c3             	rex mov %eax,%ebx
    7077:	89 c8                	mov    %ecx,%eax
    7079:	83 e0 10             	and    $0x10,%eax
    707c:	85 c0                	test   %eax,%eax
    707e:	0f 84 c1 00 00 00    	je     7145 <guest_func_memcpy+0x555>
    7084:	89 d0                	mov    %edx,%eax
    7086:	44 0f b7 04 07       	movzwl (%rdi,%rax,1),%r8d
    708b:	41 89 d9             	mov    %ebx,%r9d
    708e:	66 46 89 04 0f       	mov    %r8w,(%rdi,%r9,1)
    7093:	44 0f b6 44 07 02    	movzbl 0x2(%rdi,%rax,1),%r8d
    7099:	45 89 c2             	mov    %r8d,%r10d
    709c:	49 89 f8             	mov    %rdi,%r8
    709f:	40 89 cf             	rex mov %ecx,%edi
    70a2:	44 89 d1             	mov    %r10d,%ecx
    70a5:	43 88 4c 08 02       	mov    %cl,0x2(%r8,%r9,1)
    70aa:	41 0f b6 4c 00 03    	movzbl 0x3(%r8,%rax,1),%ecx
    70b0:	43 88 4c 08 03       	mov    %cl,0x3(%r8,%r9,1)
    70b5:	41 0f b6 4c 00 04    	movzbl 0x4(%r8,%rax,1),%ecx
    70bb:	43 88 4c 08 04       	mov    %cl,0x4(%r8,%r9,1)
    70c0:	41 0f b6 4c 00 05    	movzbl 0x5(%r8,%rax,1),%ecx
    70c6:	43 88 4c 08 05       	mov    %cl,0x5(%r8,%r9,1)
    70cb:	41 0f b6 4c 00 06    	movzbl 0x6(%r8,%rax,1),%ecx
    70d1:	43 88 4c 08 06       	mov    %cl,0x6(%r8,%r9,1)
    70d6:	41 0f b6 4c 00 07    	movzbl 0x7(%r8,%rax,1),%ecx
    70dc:	43 88 4c 08 07       	mov    %cl,0x7(%r8,%r9,1)
    70e1:	41 0f b6 4c 00 08    	movzbl 0x8(%r8,%rax,1),%ecx
    70e7:	43 88 4c 08 08       	mov    %cl,0x8(%r8,%r9,1)
    70ec:	41 0f b6 4c 00 09    	movzbl 0x9(%r8,%rax,1),%ecx
    70f2:	43 88 4c 08 09       	mov    %cl,0x9(%r8,%r9,1)
    70f7:	41 0f b6 4c 00 0a    	movzbl 0xa(%r8,%rax,1),%ecx
    70fd:	43 88 4c 08 0a       	mov    %cl,0xa(%r8,%r9,1)
    7102:	41 0f b6 4c 00 0b    	movzbl 0xb(%r8,%rax,1),%ecx
    7108:	43 88 4c 08 0b       	mov    %cl,0xb(%r8,%r9,1)
    710d:	41 0f b6 4c 00 0c    	movzbl 0xc(%r8,%rax,1),%ecx
    7113:	43 88 4c 08 0c       	mov    %cl,0xc(%r8,%r9,1)
    7118:	41 0f b6 4c 00 0d    	movzbl 0xd(%r8,%rax,1),%ecx
    711e:	43 88 4c 08 0d       	mov    %cl,0xd(%r8,%r9,1)
    7123:	41 0f b6 4c 00 0e    	movzbl 0xe(%r8,%rax,1),%ecx
    7129:	43 88 4c 08 0e       	mov    %cl,0xe(%r8,%r9,1)
    712e:	41 0f b6 44 00 0f    	movzbl 0xf(%r8,%rax,1),%eax
    7134:	43 88 44 08 0f       	mov    %al,0xf(%r8,%r9,1)
    7139:	83 c3 10             	add    $0x10,%ebx
    713c:	83 c2 10             	add    $0x10,%edx
    713f:	40 89 f9             	rex mov %edi,%ecx
    7142:	4c 89 c7             	mov    %r8,%rdi
    7145:	89 c8                	mov    %ecx,%eax
    7147:	83 e0 08             	and    $0x8,%eax
    714a:	85 c0                	test   %eax,%eax
    714c:	74 73                	je     71c1 <guest_func_memcpy+0x5d1>
    714e:	89 d0                	mov    %edx,%eax
    7150:	44 0f b6 04 07       	movzbl (%rdi,%rax,1),%r8d
    7155:	41 89 d9             	mov    %ebx,%r9d
    7158:	45 89 c2             	mov    %r8d,%r10d
    715b:	49 89 f8             	mov    %rdi,%r8
    715e:	40 89 cf             	rex mov %ecx,%edi
    7161:	44 89 d1             	mov    %r10d,%ecx
    7164:	43 88 0c 08          	mov    %cl,(%r8,%r9,1)
    7168:	41 0f b6 4c 00 01    	movzbl 0x1(%r8,%rax,1),%ecx
    716e:	43 88 4c 08 01       	mov    %cl,0x1(%r8,%r9,1)
    7173:	41 0f b6 4c 00 02    	movzbl 0x2(%r8,%rax,1),%ecx
    7179:	43 88 4c 08 02       	mov    %cl,0x2(%r8,%r9,1)
    717e:	41 0f b6 4c 00 03    	movzbl 0x3(%r8,%rax,1),%ecx
    7184:	43 88 4c 08 03       	mov    %cl,0x3(%r8,%r9,1)
    7189:	41 0f b6 4c 00 04    	movzbl 0x4(%r8,%rax,1),%ecx
    718f:	43 88 4c 08 04       	mov    %cl,0x4(%r8,%r9,1)
    7194:	41 0f b6 4c 00 05    	movzbl 0x5(%r8,%rax,1),%ecx
    719a:	43 88 4c 08 05       	mov    %cl,0x5(%r8,%r9,1)
    719f:	41 0f b6 4c 00 06    	movzbl 0x6(%r8,%rax,1),%ecx
    71a5:	43 88 4c 08 06       	mov    %cl,0x6(%r8,%r9,1)
    71aa:	41 0f b6 44 00 07    	movzbl 0x7(%r8,%rax,1),%eax
    71b0:	43 88 44 08 07       	mov    %al,0x7(%r8,%r9,1)
    71b5:	83 c3 08             	add    $0x8,%ebx
    71b8:	83 c2 08             	add    $0x8,%edx
    71bb:	40 89 f9             	rex mov %edi,%ecx
    71be:	4c 89 c7             	mov    %r8,%rdi
    71c1:	89 c8                	mov    %ecx,%eax
    71c3:	83 e0 04             	and    $0x4,%eax
    71c6:	85 c0                	test   %eax,%eax
    71c8:	74 47                	je     7211 <guest_func_memcpy+0x621>
    71ca:	89 d0                	mov    %edx,%eax
    71cc:	44 0f b6 04 07       	movzbl (%rdi,%rax,1),%r8d
    71d1:	41 89 d9             	mov    %ebx,%r9d
    71d4:	45 89 c2             	mov    %r8d,%r10d
    71d7:	49 89 f8             	mov    %rdi,%r8
    71da:	40 89 cf             	rex mov %ecx,%edi
    71dd:	44 89 d1             	mov    %r10d,%ecx
    71e0:	43 88 0c 08          	mov    %cl,(%r8,%r9,1)
    71e4:	41 0f b6 4c 00 01    	movzbl 0x1(%r8,%rax,1),%ecx
    71ea:	43 88 4c 08 01       	mov    %cl,0x1(%r8,%r9,1)
    71ef:	41 0f b6 4c 00 02    	movzbl 0x2(%r8,%rax,1),%ecx
    71f5:	43 88 4c 08 02       	mov    %cl,0x2(%r8,%r9,1)
    71fa:	41 0f b6 44 00 03    	movzbl 0x3(%r8,%rax,1),%eax
    7200:	43 88 44 08 03       	mov    %al,0x3(%r8,%r9,1)
    7205:	83 c3 04             	add    $0x4,%ebx
    7208:	83 c2 04             	add    $0x4,%edx
    720b:	40 89 f9             	rex mov %edi,%ecx
    720e:	4c 89 c7             	mov    %r8,%rdi
    7211:	89 c8                	mov    %ecx,%eax
    7213:	83 e0 02             	and    $0x2,%eax
    7216:	85 c0                	test   %eax,%eax
    7218:	74 31                	je     724b <guest_func_memcpy+0x65b>
    721a:	89 d0                	mov    %edx,%eax
    721c:	44 0f b6 04 07       	movzbl (%rdi,%rax,1),%r8d
    7221:	41 89 d9             	mov    %ebx,%r9d
    7224:	45 89 c2             	mov    %r8d,%r10d
    7227:	49 89 f8             	mov    %rdi,%r8
    722a:	40 89 cf             	rex mov %ecx,%edi
    722d:	44 89 d1             	mov    %r10d,%ecx
    7230:	43 88 0c 08          	mov    %cl,(%r8,%r9,1)
    7234:	41 0f b6 44 00 01    	movzbl 0x1(%r8,%rax,1),%eax
    723a:	43 88 44 08 01       	mov    %al,0x1(%r8,%r9,1)
    723f:	83 c3 02             	add    $0x2,%ebx
    7242:	83 c2 02             	add    $0x2,%edx
    7245:	40 89 f9             	rex mov %edi,%ecx
    7248:	4c 89 c7             	mov    %r8,%rdi
    724b:	83 e1 01             	and    $0x1,%ecx
    724e:	85 c9                	test   %ecx,%ecx
    7250:	74 0b                	je     725d <guest_func_memcpy+0x66d>
    7252:	89 d0                	mov    %edx,%eax
    7254:	0f b6 04 07          	movzbl (%rdi,%rax,1),%eax
    7258:	89 d9                	mov    %ebx,%ecx
    725a:	88 04 0f             	mov    %al,(%rdi,%rcx,1)
    725d:	40 89 f0             	rex mov %esi,%eax
    7260:	41 5d                	pop    %r13
    7262:	41 5c                	pop    %r12
    7264:	5b                   	pop    %rbx
    7265:	5d                   	pop    %rbp
    7266:	c3                   	retq   
    7267:	1b fb                	sbb    %ebx,%edi
    7269:	ff                   	(bad)  
    726a:	ff 27                	jmpq   *(%rdi)
    726c:	fc                   	cld    
    726d:	ff                   	(bad)  
    726e:	ff 28                	ljmp   *(%rax)
    7270:	fd                   	std    
    7271:	ff                   	(bad)  
    7272:	ff 00                	incl   (%rax)
	...

0000000000007280 <guest_func_10>:
    7280:	55                   	push   %rbp
    7281:	48 89 e5             	mov    %rsp,%rbp
    7284:	53                   	push   %rbx
    7285:	41 54                	push   %r12
    7287:	41 55                	push   %r13
    7289:	41 56                	push   %r14
    728b:	41 57                	push   %r15
    728d:	31 c0                	xor    %eax,%eax
    728f:	85 f6                	test   %esi,%esi
    7291:	0f 84 50 08 00 00    	je     7ae7 <guest_func_10+0x867>
    7297:	89 f1                	mov    %esi,%ecx
    7299:	83 c1 f8             	add    $0xfffffff8,%ecx
    729c:	83 c6 fc             	add    $0xfffffffc,%esi
    729f:	89 f2                	mov    %esi,%edx
    72a1:	8b 14 17             	mov    (%rdi,%rdx,1),%edx
    72a4:	89 d3                	mov    %edx,%ebx
    72a6:	83 e3 f8             	and    $0xfffffff8,%ebx
    72a9:	89 ce                	mov    %ecx,%esi
    72ab:	01 de                	add    %ebx,%esi
    72ad:	41 b8 01 00 00 00    	mov    $0x1,%r8d
    72b3:	41 89 d1             	mov    %edx,%r9d
    72b6:	41 83 e1 01          	and    $0x1,%r9d
    72ba:	45 85 c9             	test   %r9d,%r9d
    72bd:	0f 85 79 02 00 00    	jne    753c <guest_func_10+0x2bc>
    72c3:	83 e2 03             	and    $0x3,%edx
    72c6:	85 d2                	test   %edx,%edx
    72c8:	0f 84 19 08 00 00    	je     7ae7 <guest_func_10+0x867>
    72ce:	89 ca                	mov    %ecx,%edx
    72d0:	8b 14 17             	mov    (%rdi,%rdx,1),%edx
    72d3:	29 d1                	sub    %edx,%ecx
    72d5:	41 b9 10 05 00 00    	mov    $0x510,%r9d
    72db:	45 89 c9             	mov    %r9d,%r9d
    72de:	46 8b 0c 0f          	mov    (%rdi,%r9,1),%r9d
    72e2:	44 39 c9             	cmp    %r9d,%ecx
    72e5:	0f 82 fc 07 00 00    	jb     7ae7 <guest_func_10+0x867>
    72eb:	01 d3                	add    %edx,%ebx
    72ed:	41 ba 14 05 00 00    	mov    $0x514,%r10d
    72f3:	45 89 d2             	mov    %r10d,%r10d
    72f6:	46 8b 14 17          	mov    (%rdi,%r10,1),%r10d
    72fa:	44 39 d1             	cmp    %r10d,%ecx
    72fd:	0f 84 f5 01 00 00    	je     74f8 <guest_func_10+0x278>
    7303:	81 fa ff 00 00 00    	cmp    $0xff,%edx
    7309:	77 70                	ja     737b <guest_func_10+0xfb>
    730b:	41 89 c9             	mov    %ecx,%r9d
    730e:	46 8b 54 0f 0c       	mov    0xc(%rdi,%r9,1),%r10d
    7313:	46 8b 4c 0f 08       	mov    0x8(%rdi,%r9,1),%r9d
    7318:	c1 ea 03             	shr    $0x3,%edx
    731b:	41 89 d3             	mov    %edx,%r11d
    731e:	41 c1 e3 03          	shl    $0x3,%r11d
    7322:	41 81 c3 28 05 00 00 	add    $0x528,%r11d
    7329:	45 39 d9             	cmp    %r11d,%r9d
    732c:	74 00                	je     732e <guest_func_10+0xae>
    732e:	45 39 ca             	cmp    %r9d,%r10d
    7331:	75 2e                	jne    7361 <guest_func_10+0xe1>
    7333:	41 b9 00 05 00 00    	mov    $0x500,%r9d
    7339:	45 89 c9             	mov    %r9d,%r9d
    733c:	46 8b 14 0f          	mov    (%rdi,%r9,1),%r10d
    7340:	41 bb fe ff ff ff    	mov    $0xfffffffe,%r11d
    7346:	41 89 cc             	mov    %ecx,%r12d
    7349:	40 89 d1             	rex mov %edx,%ecx
    734c:	44 89 e2             	mov    %r12d,%edx
    734f:	41 d3 c3             	rol    %cl,%r11d
    7352:	45 21 da             	and    %r11d,%r10d
    7355:	46 89 14 0f          	mov    %r10d,(%rdi,%r9,1)
    7359:	40 89 d1             	rex mov %edx,%ecx
    735c:	e9 db 01 00 00       	jmpq   753c <guest_func_10+0x2bc>
    7361:	45 39 da             	cmp    %r11d,%r10d
    7364:	74 00                	je     7366 <guest_func_10+0xe6>
    7366:	44 89 d2             	mov    %r10d,%edx
    7369:	44 89 4c 17 08       	mov    %r9d,0x8(%rdi,%rdx,1)
    736e:	44 89 ca             	mov    %r9d,%edx
    7371:	44 89 54 17 0c       	mov    %r10d,0xc(%rdi,%rdx,1)
    7376:	e9 c1 01 00 00       	jmpq   753c <guest_func_10+0x2bc>
    737b:	89 ca                	mov    %ecx,%edx
    737d:	44 8b 54 17 18       	mov    0x18(%rdi,%rdx,1),%r10d
    7382:	44 8b 5c 17 0c       	mov    0xc(%rdi,%rdx,1),%r11d
    7387:	44 39 d9             	cmp    %r11d,%ecx
    738a:	74 24                	je     73b0 <guest_func_10+0x130>
    738c:	44 8b 64 17 08       	mov    0x8(%rdi,%rdx,1),%r12d
    7391:	45 39 e1             	cmp    %r12d,%r9d
    7394:	77 08                	ja     739e <guest_func_10+0x11e>
    7396:	45 89 e1             	mov    %r12d,%r9d
    7399:	46 8b 4c 0f 0c       	mov    0xc(%rdi,%r9,1),%r9d
    739e:	45 89 d9             	mov    %r11d,%r9d
    73a1:	46 89 64 0f 08       	mov    %r12d,0x8(%rdi,%r9,1)
    73a6:	45 89 e1             	mov    %r12d,%r9d
    73a9:	46 89 5c 0f 0c       	mov    %r11d,0xc(%rdi,%r9,1)
    73ae:	eb 7e                	jmp    742e <guest_func_10+0x1ae>
    73b0:	41 89 c9             	mov    %ecx,%r9d
    73b3:	41 83 c1 14          	add    $0x14,%r9d
    73b7:	45 89 cb             	mov    %r9d,%r11d
    73ba:	46 8b 1c 1f          	mov    (%rdi,%r11,1),%r11d
    73be:	45 85 db             	test   %r11d,%r11d
    73c1:	75 1b                	jne    73de <guest_func_10+0x15e>
    73c3:	41 89 c9             	mov    %ecx,%r9d
    73c6:	41 83 c1 10          	add    $0x10,%r9d
    73ca:	45 89 cb             	mov    %r9d,%r11d
    73cd:	46 8b 1c 1f          	mov    (%rdi,%r11,1),%r11d
    73d1:	45 85 db             	test   %r11d,%r11d
    73d4:	75 08                	jne    73de <guest_func_10+0x15e>
    73d6:	41 89 c1             	mov    %eax,%r9d
    73d9:	45 89 cb             	mov    %r9d,%r11d
    73dc:	eb 50                	jmp    742e <guest_func_10+0x1ae>
    73de:	eb 20                	jmp    7400 <guest_func_10+0x180>
    73e0:	45 89 e9             	mov    %r13d,%r9d
    73e3:	45 89 e3             	mov    %r12d,%r11d
    73e6:	45 89 de             	mov    %r11d,%r14d
    73e9:	45 89 cb             	mov    %r9d,%r11d
    73ec:	45 89 f1             	mov    %r14d,%r9d
    73ef:	eb 0f                	jmp    7400 <guest_func_10+0x180>
    73f1:	45 89 e9             	mov    %r13d,%r9d
    73f4:	45 89 e3             	mov    %r12d,%r11d
    73f7:	45 89 de             	mov    %r11d,%r14d
    73fa:	45 89 cb             	mov    %r9d,%r11d
    73fd:	45 89 f1             	mov    %r14d,%r9d
    7400:	45 89 dc             	mov    %r11d,%r12d
    7403:	41 83 c4 14          	add    $0x14,%r12d
    7407:	45 89 e5             	mov    %r12d,%r13d
    740a:	46 8b 2c 2f          	mov    (%rdi,%r13,1),%r13d
    740e:	45 85 ed             	test   %r13d,%r13d
    7411:	75 cd                	jne    73e0 <guest_func_10+0x160>
    7413:	45 89 dc             	mov    %r11d,%r12d
    7416:	41 83 c4 10          	add    $0x10,%r12d
    741a:	45 89 dd             	mov    %r11d,%r13d
    741d:	46 8b 6c 2f 10       	mov    0x10(%rdi,%r13,1),%r13d
    7422:	45 85 ed             	test   %r13d,%r13d
    7425:	75 ca                	jne    73f1 <guest_func_10+0x171>
    7427:	45 89 c9             	mov    %r9d,%r9d
    742a:	42 89 04 0f          	mov    %eax,(%rdi,%r9,1)
    742e:	45 85 d2             	test   %r10d,%r10d
    7431:	0f 84 05 01 00 00    	je     753c <guest_func_10+0x2bc>
    7437:	44 8b 4c 17 1c       	mov    0x1c(%rdi,%rdx,1),%r9d
    743c:	45 89 cc             	mov    %r9d,%r12d
    743f:	41 c1 e4 02          	shl    $0x2,%r12d
    7443:	41 81 c4 30 06 00 00 	add    $0x630,%r12d
    744a:	45 89 e4             	mov    %r12d,%r12d
    744d:	46 8b 2c 27          	mov    (%rdi,%r12,1),%r13d
    7451:	44 39 e9             	cmp    %r13d,%ecx
    7454:	75 35                	jne    748b <guest_func_10+0x20b>
    7456:	46 89 1c 27          	mov    %r11d,(%rdi,%r12,1)
    745a:	45 85 db             	test   %r11d,%r11d
    745d:	75 5b                	jne    74ba <guest_func_10+0x23a>
    745f:	ba 04 05 00 00       	mov    $0x504,%edx
    7464:	89 d2                	mov    %edx,%edx
    7466:	44 8b 14 17          	mov    (%rdi,%rdx,1),%r10d
    746a:	41 bb fe ff ff ff    	mov    $0xfffffffe,%r11d
    7470:	41 89 cc             	mov    %ecx,%r12d
    7473:	44 89 c9             	mov    %r9d,%ecx
    7476:	45 89 e1             	mov    %r12d,%r9d
    7479:	41 d3 c3             	rol    %cl,%r11d
    747c:	45 21 da             	and    %r11d,%r10d
    747f:	44 89 14 17          	mov    %r10d,(%rdi,%rdx,1)
    7483:	44 89 c9             	mov    %r9d,%ecx
    7486:	e9 b1 00 00 00       	jmpq   753c <guest_func_10+0x2bc>
    748b:	41 b9 10 00 00 00    	mov    $0x10,%r9d
    7491:	41 bc 14 00 00 00    	mov    $0x14,%r12d
    7497:	45 89 d5             	mov    %r10d,%r13d
    749a:	46 8b 6c 2f 10       	mov    0x10(%rdi,%r13,1),%r13d
    749f:	41 39 cd             	cmp    %ecx,%r13d
    74a2:	74 03                	je     74a7 <guest_func_10+0x227>
    74a4:	45 89 e1             	mov    %r12d,%r9d
    74a7:	45 01 d1             	add    %r10d,%r9d
    74aa:	45 89 c9             	mov    %r9d,%r9d
    74ad:	46 89 1c 0f          	mov    %r11d,(%rdi,%r9,1)
    74b1:	45 85 db             	test   %r11d,%r11d
    74b4:	0f 84 82 00 00 00    	je     753c <guest_func_10+0x2bc>
    74ba:	45 89 d9             	mov    %r11d,%r9d
    74bd:	46 89 54 0f 18       	mov    %r10d,0x18(%rdi,%r9,1)
    74c2:	44 8b 54 17 10       	mov    0x10(%rdi,%rdx,1),%r10d
    74c7:	45 85 d2             	test   %r10d,%r10d
    74ca:	74 0d                	je     74d9 <guest_func_10+0x259>
    74cc:	46 89 54 0f 10       	mov    %r10d,0x10(%rdi,%r9,1)
    74d1:	45 89 d1             	mov    %r10d,%r9d
    74d4:	46 89 5c 0f 18       	mov    %r11d,0x18(%rdi,%r9,1)
    74d9:	8b 54 17 14          	mov    0x14(%rdi,%rdx,1),%edx
    74dd:	85 d2                	test   %edx,%edx
    74df:	74 5b                	je     753c <guest_func_10+0x2bc>
    74e1:	45 89 d9             	mov    %r11d,%r9d
    74e4:	41 83 c1 14          	add    $0x14,%r9d
    74e8:	45 89 c9             	mov    %r9d,%r9d
    74eb:	42 89 14 0f          	mov    %edx,(%rdi,%r9,1)
    74ef:	89 d2                	mov    %edx,%edx
    74f1:	44 89 5c 17 18       	mov    %r11d,0x18(%rdi,%rdx,1)
    74f6:	eb 44                	jmp    753c <guest_func_10+0x2bc>
    74f8:	89 f2                	mov    %esi,%edx
    74fa:	44 8b 4c 17 04       	mov    0x4(%rdi,%rdx,1),%r9d
    74ff:	45 89 ca             	mov    %r9d,%r10d
    7502:	41 83 e2 03          	and    $0x3,%r10d
    7506:	41 83 fa 03          	cmp    $0x3,%r10d
    750a:	75 30                	jne    753c <guest_func_10+0x2bc>
    750c:	41 83 e1 fe          	and    $0xfffffffe,%r9d
    7510:	44 89 4c 17 04       	mov    %r9d,0x4(%rdi,%rdx,1)
    7515:	b8 08 05 00 00       	mov    $0x508,%eax
    751a:	89 c0                	mov    %eax,%eax
    751c:	89 1c 07             	mov    %ebx,(%rdi,%rax,1)
    751f:	89 d8                	mov    %ebx,%eax
    7521:	01 c8                	add    %ecx,%eax
    7523:	89 c0                	mov    %eax,%eax
    7525:	89 1c 07             	mov    %ebx,(%rdi,%rax,1)
    7528:	83 cb 01             	or     $0x1,%ebx
    752b:	89 c8                	mov    %ecx,%eax
    752d:	89 5c 07 04          	mov    %ebx,0x4(%rdi,%rax,1)
    7531:	41 5f                	pop    %r15
    7533:	41 5e                	pop    %r14
    7535:	41 5d                	pop    %r13
    7537:	41 5c                	pop    %r12
    7539:	5b                   	pop    %rbx
    753a:	5d                   	pop    %rbp
    753b:	c3                   	retq   
    753c:	39 ce                	cmp    %ecx,%esi
    753e:	0f 86 a3 05 00 00    	jbe    7ae7 <guest_func_10+0x867>
    7544:	89 f2                	mov    %esi,%edx
    7546:	44 8b 4c 17 04       	mov    0x4(%rdi,%rdx,1),%r9d
    754b:	45 89 ca             	mov    %r9d,%r10d
    754e:	41 83 e2 01          	and    $0x1,%r10d
    7552:	45 85 d2             	test   %r10d,%r10d
    7555:	0f 84 8c 05 00 00    	je     7ae7 <guest_func_10+0x867>
    755b:	45 89 ca             	mov    %r9d,%r10d
    755e:	41 83 e2 02          	and    $0x2,%r10d
    7562:	45 85 d2             	test   %r10d,%r10d
    7565:	0f 85 e2 02 00 00    	jne    784d <guest_func_10+0x5cd>
    756b:	41 ba 18 05 00 00    	mov    $0x518,%r10d
    7571:	45 89 d2             	mov    %r10d,%r10d
    7574:	46 8b 14 17          	mov    (%rdi,%r10,1),%r10d
    7578:	44 39 d6             	cmp    %r10d,%esi
    757b:	75 4c                	jne    75c9 <guest_func_10+0x349>
    757d:	ba 18 05 00 00       	mov    $0x518,%edx
    7582:	89 d2                	mov    %edx,%edx
    7584:	89 0c 17             	mov    %ecx,(%rdi,%rdx,1)
    7587:	ba 0c 05 00 00       	mov    $0x50c,%edx
    758c:	89 d2                	mov    %edx,%edx
    758e:	8b 34 17             	mov    (%rdi,%rdx,1),%esi
    7591:	01 de                	add    %ebx,%esi
    7593:	89 34 17             	mov    %esi,(%rdi,%rdx,1)
    7596:	83 ce 01             	or     $0x1,%esi
    7599:	89 ca                	mov    %ecx,%edx
    759b:	89 74 17 04          	mov    %esi,0x4(%rdi,%rdx,1)
    759f:	ba 14 05 00 00       	mov    $0x514,%edx
    75a4:	89 d2                	mov    %edx,%edx
    75a6:	8b 1c 17             	mov    (%rdi,%rdx,1),%ebx
    75a9:	39 cb                	cmp    %ecx,%ebx
    75ab:	0f 85 36 05 00 00    	jne    7ae7 <guest_func_10+0x867>
    75b1:	b9 08 05 00 00       	mov    $0x508,%ecx
    75b6:	89 c9                	mov    %ecx,%ecx
    75b8:	89 04 0f             	mov    %eax,(%rdi,%rcx,1)
    75bb:	89 04 17             	mov    %eax,(%rdi,%rdx,1)
    75be:	41 5f                	pop    %r15
    75c0:	41 5e                	pop    %r14
    75c2:	41 5d                	pop    %r13
    75c4:	41 5c                	pop    %r12
    75c6:	5b                   	pop    %rbx
    75c7:	5d                   	pop    %rbp
    75c8:	c3                   	retq   
    75c9:	41 ba 14 05 00 00    	mov    $0x514,%r10d
    75cf:	45 89 d2             	mov    %r10d,%r10d
    75d2:	46 8b 1c 17          	mov    (%rdi,%r10,1),%r11d
    75d6:	44 39 de             	cmp    %r11d,%esi
    75d9:	75 38                	jne    7613 <guest_func_10+0x393>
    75db:	b8 14 05 00 00       	mov    $0x514,%eax
    75e0:	89 c0                	mov    %eax,%eax
    75e2:	89 0c 07             	mov    %ecx,(%rdi,%rax,1)
    75e5:	b8 08 05 00 00       	mov    $0x508,%eax
    75ea:	89 c0                	mov    %eax,%eax
    75ec:	8b 14 07             	mov    (%rdi,%rax,1),%edx
    75ef:	01 da                	add    %ebx,%edx
    75f1:	89 14 07             	mov    %edx,(%rdi,%rax,1)
    75f4:	89 d0                	mov    %edx,%eax
    75f6:	83 c8 01             	or     $0x1,%eax
    75f9:	89 cb                	mov    %ecx,%ebx
    75fb:	89 44 1f 04          	mov    %eax,0x4(%rdi,%rbx,1)
    75ff:	89 d0                	mov    %edx,%eax
    7601:	01 c8                	add    %ecx,%eax
    7603:	89 c0                	mov    %eax,%eax
    7605:	89 14 07             	mov    %edx,(%rdi,%rax,1)
    7608:	41 5f                	pop    %r15
    760a:	41 5e                	pop    %r14
    760c:	41 5d                	pop    %r13
    760e:	41 5c                	pop    %r12
    7610:	5b                   	pop    %rbx
    7611:	5d                   	pop    %rbp
    7612:	c3                   	retq   
    7613:	45 89 cb             	mov    %r9d,%r11d
    7616:	41 83 e3 f8          	and    $0xfffffff8,%r11d
    761a:	41 01 db             	add    %ebx,%r11d
    761d:	41 81 f9 ff 00 00 00 	cmp    $0xff,%r9d
    7624:	77 7c                	ja     76a2 <guest_func_10+0x422>
    7626:	8b 5c 17 0c          	mov    0xc(%rdi,%rdx,1),%ebx
    762a:	8b 54 17 08          	mov    0x8(%rdi,%rdx,1),%edx
    762e:	44 89 ce             	mov    %r9d,%esi
    7631:	c1 ee 03             	shr    $0x3,%esi
    7634:	41 89 f1             	mov    %esi,%r9d
    7637:	41 c1 e1 03          	shl    $0x3,%r9d
    763b:	41 81 c1 28 05 00 00 	add    $0x528,%r9d
    7642:	44 39 ca             	cmp    %r9d,%edx
    7645:	74 0d                	je     7654 <guest_func_10+0x3d4>
    7647:	41 bc 10 05 00 00    	mov    $0x510,%r12d
    764d:	45 89 e4             	mov    %r12d,%r12d
    7650:	46 8b 24 27          	mov    (%rdi,%r12,1),%r12d
    7654:	39 d3                	cmp    %edx,%ebx
    7656:	75 2a                	jne    7682 <guest_func_10+0x402>
    7658:	ba 00 05 00 00       	mov    $0x500,%edx
    765d:	89 d2                	mov    %edx,%edx
    765f:	8b 1c 17             	mov    (%rdi,%rdx,1),%ebx
    7662:	41 b9 fe ff ff ff    	mov    $0xfffffffe,%r9d
    7668:	41 89 cc             	mov    %ecx,%r12d
    766b:	40 89 f1             	rex mov %esi,%ecx
    766e:	44 89 e6             	mov    %r12d,%esi
    7671:	41 d3 c1             	rol    %cl,%r9d
    7674:	44 21 cb             	and    %r9d,%ebx
    7677:	89 1c 17             	mov    %ebx,(%rdi,%rdx,1)
    767a:	40 89 f1             	rex mov %esi,%ecx
    767d:	e9 96 01 00 00       	jmpq   7818 <guest_func_10+0x598>
    7682:	44 39 cb             	cmp    %r9d,%ebx
    7685:	74 0a                	je     7691 <guest_func_10+0x411>
    7687:	be 10 05 00 00       	mov    $0x510,%esi
    768c:	89 f6                	mov    %esi,%esi
    768e:	8b 34 37             	mov    (%rdi,%rsi,1),%esi
    7691:	89 de                	mov    %ebx,%esi
    7693:	89 54 37 08          	mov    %edx,0x8(%rdi,%rsi,1)
    7697:	89 d2                	mov    %edx,%edx
    7699:	89 5c 17 0c          	mov    %ebx,0xc(%rdi,%rdx,1)
    769d:	e9 76 01 00 00       	jmpq   7818 <guest_func_10+0x598>
    76a2:	8b 5c 17 18          	mov    0x18(%rdi,%rdx,1),%ebx
    76a6:	44 8b 4c 17 0c       	mov    0xc(%rdi,%rdx,1),%r9d
    76ab:	41 39 f1             	cmp    %esi,%r9d
    76ae:	74 34                	je     76e4 <guest_func_10+0x464>
    76b0:	41 bc 10 05 00 00    	mov    $0x510,%r12d
    76b6:	45 89 e4             	mov    %r12d,%r12d
    76b9:	46 8b 24 27          	mov    (%rdi,%r12,1),%r12d
    76bd:	44 8b 6c 17 08       	mov    0x8(%rdi,%rdx,1),%r13d
    76c2:	45 39 ec             	cmp    %r13d,%r12d
    76c5:	77 08                	ja     76cf <guest_func_10+0x44f>
    76c7:	45 89 ec             	mov    %r13d,%r12d
    76ca:	46 8b 64 27 0c       	mov    0xc(%rdi,%r12,1),%r12d
    76cf:	45 89 cc             	mov    %r9d,%r12d
    76d2:	46 89 6c 27 08       	mov    %r13d,0x8(%rdi,%r12,1)
    76d7:	45 89 ec             	mov    %r13d,%r12d
    76da:	46 89 4c 27 0c       	mov    %r9d,0xc(%rdi,%r12,1)
    76df:	45 89 cc             	mov    %r9d,%r12d
    76e2:	eb 7e                	jmp    7762 <guest_func_10+0x4e2>
    76e4:	41 89 f1             	mov    %esi,%r9d
    76e7:	41 83 c1 14          	add    $0x14,%r9d
    76eb:	45 89 cc             	mov    %r9d,%r12d
    76ee:	46 8b 24 27          	mov    (%rdi,%r12,1),%r12d
    76f2:	45 85 e4             	test   %r12d,%r12d
    76f5:	75 1b                	jne    7712 <guest_func_10+0x492>
    76f7:	41 89 f1             	mov    %esi,%r9d
    76fa:	41 83 c1 10          	add    $0x10,%r9d
    76fe:	45 89 cc             	mov    %r9d,%r12d
    7701:	46 8b 24 27          	mov    (%rdi,%r12,1),%r12d
    7705:	45 85 e4             	test   %r12d,%r12d
    7708:	75 08                	jne    7712 <guest_func_10+0x492>
    770a:	41 89 c1             	mov    %eax,%r9d
    770d:	45 89 cc             	mov    %r9d,%r12d
    7710:	eb 50                	jmp    7762 <guest_func_10+0x4e2>
    7712:	eb 20                	jmp    7734 <guest_func_10+0x4b4>
    7714:	45 89 f1             	mov    %r14d,%r9d
    7717:	45 89 ec             	mov    %r13d,%r12d
    771a:	45 89 e7             	mov    %r12d,%r15d
    771d:	45 89 cc             	mov    %r9d,%r12d
    7720:	45 89 f9             	mov    %r15d,%r9d
    7723:	eb 0f                	jmp    7734 <guest_func_10+0x4b4>
    7725:	45 89 f1             	mov    %r14d,%r9d
    7728:	45 89 ec             	mov    %r13d,%r12d
    772b:	45 89 e7             	mov    %r12d,%r15d
    772e:	45 89 cc             	mov    %r9d,%r12d
    7731:	45 89 f9             	mov    %r15d,%r9d
    7734:	45 89 e5             	mov    %r12d,%r13d
    7737:	41 83 c5 14          	add    $0x14,%r13d
    773b:	45 89 ee             	mov    %r13d,%r14d
    773e:	46 8b 34 37          	mov    (%rdi,%r14,1),%r14d
    7742:	45 85 f6             	test   %r14d,%r14d
    7745:	75 cd                	jne    7714 <guest_func_10+0x494>
    7747:	45 89 e5             	mov    %r12d,%r13d
    774a:	41 83 c5 10          	add    $0x10,%r13d
    774e:	45 89 e6             	mov    %r12d,%r14d
    7751:	46 8b 74 37 10       	mov    0x10(%rdi,%r14,1),%r14d
    7756:	45 85 f6             	test   %r14d,%r14d
    7759:	75 ca                	jne    7725 <guest_func_10+0x4a5>
    775b:	45 89 c9             	mov    %r9d,%r9d
    775e:	42 89 04 0f          	mov    %eax,(%rdi,%r9,1)
    7762:	85 db                	test   %ebx,%ebx
    7764:	0f 84 ae 00 00 00    	je     7818 <guest_func_10+0x598>
    776a:	44 8b 4c 17 1c       	mov    0x1c(%rdi,%rdx,1),%r9d
    776f:	45 89 cd             	mov    %r9d,%r13d
    7772:	41 c1 e5 02          	shl    $0x2,%r13d
    7776:	41 81 c5 30 06 00 00 	add    $0x630,%r13d
    777d:	45 89 ed             	mov    %r13d,%r13d
    7780:	46 8b 34 2f          	mov    (%rdi,%r13,1),%r14d
    7784:	44 39 f6             	cmp    %r14d,%esi
    7787:	75 2d                	jne    77b6 <guest_func_10+0x536>
    7789:	46 89 24 2f          	mov    %r12d,(%rdi,%r13,1)
    778d:	45 85 e4             	test   %r12d,%r12d
    7790:	75 52                	jne    77e4 <guest_func_10+0x564>
    7792:	ba 04 05 00 00       	mov    $0x504,%edx
    7797:	89 d2                	mov    %edx,%edx
    7799:	8b 1c 17             	mov    (%rdi,%rdx,1),%ebx
    779c:	be fe ff ff ff       	mov    $0xfffffffe,%esi
    77a1:	41 89 cc             	mov    %ecx,%r12d
    77a4:	44 89 c9             	mov    %r9d,%ecx
    77a7:	45 89 e1             	mov    %r12d,%r9d
    77aa:	d3 c6                	rol    %cl,%esi
    77ac:	21 f3                	and    %esi,%ebx
    77ae:	89 1c 17             	mov    %ebx,(%rdi,%rdx,1)
    77b1:	44 89 c9             	mov    %r9d,%ecx
    77b4:	eb 62                	jmp    7818 <guest_func_10+0x598>
    77b6:	41 b9 10 00 00 00    	mov    $0x10,%r9d
    77bc:	41 bd 14 00 00 00    	mov    $0x14,%r13d
    77c2:	41 89 de             	mov    %ebx,%r14d
    77c5:	46 8b 74 37 10       	mov    0x10(%rdi,%r14,1),%r14d
    77ca:	41 39 f6             	cmp    %esi,%r14d
    77cd:	74 06                	je     77d5 <guest_func_10+0x555>
    77cf:	44 89 ee             	mov    %r13d,%esi
    77d2:	41 89 f1             	mov    %esi,%r9d
    77d5:	41 01 d9             	add    %ebx,%r9d
    77d8:	44 89 ce             	mov    %r9d,%esi
    77db:	44 89 24 37          	mov    %r12d,(%rdi,%rsi,1)
    77df:	45 85 e4             	test   %r12d,%r12d
    77e2:	74 34                	je     7818 <guest_func_10+0x598>
    77e4:	44 89 e6             	mov    %r12d,%esi
    77e7:	89 5c 37 18          	mov    %ebx,0x18(%rdi,%rsi,1)
    77eb:	8b 5c 17 10          	mov    0x10(%rdi,%rdx,1),%ebx
    77ef:	85 db                	test   %ebx,%ebx
    77f1:	74 0b                	je     77fe <guest_func_10+0x57e>
    77f3:	89 5c 37 10          	mov    %ebx,0x10(%rdi,%rsi,1)
    77f7:	89 db                	mov    %ebx,%ebx
    77f9:	44 89 64 1f 18       	mov    %r12d,0x18(%rdi,%rbx,1)
    77fe:	8b 54 17 14          	mov    0x14(%rdi,%rdx,1),%edx
    7802:	85 d2                	test   %edx,%edx
    7804:	74 12                	je     7818 <guest_func_10+0x598>
    7806:	44 89 e3             	mov    %r12d,%ebx
    7809:	83 c3 14             	add    $0x14,%ebx
    780c:	89 db                	mov    %ebx,%ebx
    780e:	89 14 1f             	mov    %edx,(%rdi,%rbx,1)
    7811:	89 d2                	mov    %edx,%edx
    7813:	44 89 64 17 18       	mov    %r12d,0x18(%rdi,%rdx,1)
    7818:	44 89 da             	mov    %r11d,%edx
    781b:	01 ca                	add    %ecx,%edx
    781d:	89 d2                	mov    %edx,%edx
    781f:	44 89 1c 17          	mov    %r11d,(%rdi,%rdx,1)
    7823:	44 89 da             	mov    %r11d,%edx
    7826:	83 ca 01             	or     $0x1,%edx
    7829:	89 cb                	mov    %ecx,%ebx
    782b:	89 54 1f 04          	mov    %edx,0x4(%rdi,%rbx,1)
    782f:	42 8b 14 17          	mov    (%rdi,%r10,1),%edx
    7833:	39 ca                	cmp    %ecx,%edx
    7835:	75 35                	jne    786c <guest_func_10+0x5ec>
    7837:	b8 08 05 00 00       	mov    $0x508,%eax
    783c:	89 c0                	mov    %eax,%eax
    783e:	44 89 1c 07          	mov    %r11d,(%rdi,%rax,1)
    7842:	41 5f                	pop    %r15
    7844:	41 5e                	pop    %r14
    7846:	41 5d                	pop    %r13
    7848:	41 5c                	pop    %r12
    784a:	5b                   	pop    %rbx
    784b:	5d                   	pop    %rbp
    784c:	c3                   	retq   
    784d:	41 83 e1 fe          	and    $0xfffffffe,%r9d
    7851:	44 89 4c 17 04       	mov    %r9d,0x4(%rdi,%rdx,1)
    7856:	89 da                	mov    %ebx,%edx
    7858:	01 ca                	add    %ecx,%edx
    785a:	89 d2                	mov    %edx,%edx
    785c:	89 1c 17             	mov    %ebx,(%rdi,%rdx,1)
    785f:	89 da                	mov    %ebx,%edx
    7861:	83 ca 01             	or     $0x1,%edx
    7864:	89 ce                	mov    %ecx,%esi
    7866:	89 54 37 04          	mov    %edx,0x4(%rdi,%rsi,1)
    786a:	eb 03                	jmp    786f <guest_func_10+0x5ef>
    786c:	44 89 db             	mov    %r11d,%ebx
    786f:	81 fb ff 00 00 00    	cmp    $0xff,%ebx
    7875:	77 68                	ja     78df <guest_func_10+0x65f>
    7877:	c1 eb 03             	shr    $0x3,%ebx
    787a:	89 d8                	mov    %ebx,%eax
    787c:	c1 e0 03             	shl    $0x3,%eax
    787f:	81 c0 28 05 00 00    	add    $0x528,%eax
    7885:	ba 00 05 00 00       	mov    $0x500,%edx
    788a:	89 d2                	mov    %edx,%edx
    788c:	8b 34 17             	mov    (%rdi,%rdx,1),%esi
    788f:	41 89 c9             	mov    %ecx,%r9d
    7892:	40 89 d9             	rex mov %ebx,%ecx
    7895:	44 89 cb             	mov    %r9d,%ebx
    7898:	41 d3 e0             	shl    %cl,%r8d
    789b:	89 f1                	mov    %esi,%ecx
    789d:	44 21 c1             	and    %r8d,%ecx
    78a0:	41 89 c9             	mov    %ecx,%r9d
    78a3:	40 89 d9             	rex mov %ebx,%ecx
    78a6:	44 89 cb             	mov    %r9d,%ebx
    78a9:	85 db                	test   %ebx,%ebx
    78ab:	75 0b                	jne    78b8 <guest_func_10+0x638>
    78ad:	41 09 f0             	or     %esi,%r8d
    78b0:	44 89 04 17          	mov    %r8d,(%rdi,%rdx,1)
    78b4:	89 c2                	mov    %eax,%edx
    78b6:	eb 06                	jmp    78be <guest_func_10+0x63e>
    78b8:	89 c2                	mov    %eax,%edx
    78ba:	8b 54 17 08          	mov    0x8(%rdi,%rdx,1),%edx
    78be:	89 d3                	mov    %edx,%ebx
    78c0:	89 4c 1f 0c          	mov    %ecx,0xc(%rdi,%rbx,1)
    78c4:	89 c3                	mov    %eax,%ebx
    78c6:	89 4c 1f 08          	mov    %ecx,0x8(%rdi,%rbx,1)
    78ca:	89 c9                	mov    %ecx,%ecx
    78cc:	89 44 0f 0c          	mov    %eax,0xc(%rdi,%rcx,1)
    78d0:	89 54 0f 08          	mov    %edx,0x8(%rdi,%rcx,1)
    78d4:	41 5f                	pop    %r15
    78d6:	41 5e                	pop    %r14
    78d8:	41 5d                	pop    %r13
    78da:	41 5c                	pop    %r12
    78dc:	5b                   	pop    %rbx
    78dd:	5d                   	pop    %rbp
    78de:	c3                   	retq   
    78df:	31 d2                	xor    %edx,%edx
    78e1:	89 ce                	mov    %ecx,%esi
    78e3:	48 89 54 37 10       	mov    %rdx,0x10(%rdi,%rsi,1)
    78e8:	89 ca                	mov    %ecx,%edx
    78ea:	83 c2 1c             	add    $0x1c,%edx
    78ed:	41 89 d9             	mov    %ebx,%r9d
    78f0:	41 c1 e9 08          	shr    $0x8,%r9d
    78f4:	45 85 c9             	test   %r9d,%r9d
    78f7:	0f 84 a2 00 00 00    	je     799f <guest_func_10+0x71f>
    78fd:	41 ba 1f 00 00 00    	mov    $0x1f,%r10d
    7903:	81 fb ff ff ff 00    	cmp    $0xffffff,%ebx
    7909:	0f 87 95 00 00 00    	ja     79a4 <guest_func_10+0x724>
    790f:	45 89 ca             	mov    %r9d,%r10d
    7912:	41 81 c2 00 ff 0f 00 	add    $0xfff00,%r10d
    7919:	41 c1 ea 10          	shr    $0x10,%r10d
    791d:	41 83 e2 08          	and    $0x8,%r10d
    7921:	41 89 cb             	mov    %ecx,%r11d
    7924:	44 89 d1             	mov    %r10d,%ecx
    7927:	45 89 da             	mov    %r11d,%r10d
    792a:	41 d3 e1             	shl    %cl,%r9d
    792d:	45 89 cb             	mov    %r9d,%r11d
    7930:	41 81 c3 00 f0 07 00 	add    $0x7f000,%r11d
    7937:	41 c1 eb 10          	shr    $0x10,%r11d
    793b:	41 83 e3 04          	and    $0x4,%r11d
    793f:	41 89 cc             	mov    %ecx,%r12d
    7942:	44 89 d9             	mov    %r11d,%ecx
    7945:	45 89 e3             	mov    %r12d,%r11d
    7948:	41 d3 e1             	shl    %cl,%r9d
    794b:	45 89 cc             	mov    %r9d,%r12d
    794e:	41 81 c4 00 c0 03 00 	add    $0x3c000,%r12d
    7955:	41 c1 ec 10          	shr    $0x10,%r12d
    7959:	41 83 e4 02          	and    $0x2,%r12d
    795d:	41 89 cd             	mov    %ecx,%r13d
    7960:	44 89 e1             	mov    %r12d,%ecx
    7963:	45 89 ec             	mov    %r13d,%r12d
    7966:	41 d3 e1             	shl    %cl,%r9d
    7969:	41 c1 e9 0f          	shr    $0xf,%r9d
    796d:	45 09 dc             	or     %r11d,%r12d
    7970:	41 09 cc             	or     %ecx,%r12d
    7973:	45 29 e1             	sub    %r12d,%r9d
    7976:	44 89 c9             	mov    %r9d,%ecx
    7979:	c1 e1 01             	shl    $0x1,%ecx
    797c:	41 83 c1 15          	add    $0x15,%r9d
    7980:	41 89 db             	mov    %ebx,%r11d
    7983:	41 89 cc             	mov    %ecx,%r12d
    7986:	44 89 c9             	mov    %r9d,%ecx
    7989:	45 89 e1             	mov    %r12d,%r9d
    798c:	41 d3 eb             	shr    %cl,%r11d
    798f:	41 83 e3 01          	and    $0x1,%r11d
    7993:	45 09 d9             	or     %r11d,%r9d
    7996:	41 83 c1 1c          	add    $0x1c,%r9d
    799a:	44 89 d1             	mov    %r10d,%ecx
    799d:	eb 08                	jmp    79a7 <guest_func_10+0x727>
    799f:	41 89 c1             	mov    %eax,%r9d
    79a2:	eb 03                	jmp    79a7 <guest_func_10+0x727>
    79a4:	45 89 d1             	mov    %r10d,%r9d
    79a7:	89 d2                	mov    %edx,%edx
    79a9:	44 89 0c 17          	mov    %r9d,(%rdi,%rdx,1)
    79ad:	44 89 ca             	mov    %r9d,%edx
    79b0:	c1 e2 02             	shl    $0x2,%edx
    79b3:	81 c2 30 06 00 00    	add    $0x630,%edx
    79b9:	41 ba 04 05 00 00    	mov    $0x504,%r10d
    79bf:	45 89 d2             	mov    %r10d,%r10d
    79c2:	46 8b 1c 17          	mov    (%rdi,%r10,1),%r11d
    79c6:	45 89 c4             	mov    %r8d,%r12d
    79c9:	41 89 c8             	mov    %ecx,%r8d
    79cc:	44 89 c9             	mov    %r9d,%ecx
    79cf:	41 d3 e4             	shl    %cl,%r12d
    79d2:	45 89 d9             	mov    %r11d,%r9d
    79d5:	45 21 e1             	and    %r12d,%r9d
    79d8:	45 89 cd             	mov    %r9d,%r13d
    79db:	41 89 c9             	mov    %ecx,%r9d
    79de:	44 89 c1             	mov    %r8d,%ecx
    79e1:	45 89 e8             	mov    %r13d,%r8d
    79e4:	45 85 c0             	test   %r8d,%r8d
    79e7:	75 23                	jne    7a0c <guest_func_10+0x78c>
    79e9:	89 d0                	mov    %edx,%eax
    79eb:	89 0c 07             	mov    %ecx,(%rdi,%rax,1)
    79ee:	45 09 e3             	or     %r12d,%r11d
    79f1:	46 89 1c 17          	mov    %r11d,(%rdi,%r10,1)
    79f5:	89 c8                	mov    %ecx,%eax
    79f7:	83 c0 18             	add    $0x18,%eax
    79fa:	89 c0                	mov    %eax,%eax
    79fc:	89 14 07             	mov    %edx,(%rdi,%rax,1)
    79ff:	89 4c 37 08          	mov    %ecx,0x8(%rdi,%rsi,1)
    7a03:	89 4c 37 0c          	mov    %ecx,0xc(%rdi,%rsi,1)
    7a07:	e9 a7 00 00 00       	jmpq   7ab3 <guest_func_10+0x833>
    7a0c:	41 b8 19 00 00 00    	mov    $0x19,%r8d
    7a12:	45 89 ca             	mov    %r9d,%r10d
    7a15:	41 c1 ea 01          	shr    $0x1,%r10d
    7a19:	45 29 d0             	sub    %r10d,%r8d
    7a1c:	41 83 f9 1f          	cmp    $0x1f,%r9d
    7a20:	74 02                	je     7a24 <guest_func_10+0x7a4>
    7a22:	eb 03                	jmp    7a27 <guest_func_10+0x7a7>
    7a24:	41 89 c0             	mov    %eax,%r8d
    7a27:	41 89 d9             	mov    %ebx,%r9d
    7a2a:	41 89 ca             	mov    %ecx,%r10d
    7a2d:	44 89 c1             	mov    %r8d,%ecx
    7a30:	45 89 d0             	mov    %r10d,%r8d
    7a33:	41 d3 e1             	shl    %cl,%r9d
    7a36:	89 d1                	mov    %edx,%ecx
    7a38:	8b 0c 0f             	mov    (%rdi,%rcx,1),%ecx
    7a3b:	40 89 ca             	rex mov %ecx,%edx
    7a3e:	44 89 c1             	mov    %r8d,%ecx
    7a41:	eb 03                	jmp    7a46 <guest_func_10+0x7c6>
    7a43:	44 89 d2             	mov    %r10d,%edx
    7a46:	41 89 d0             	mov    %edx,%r8d
    7a49:	46 8b 54 07 04       	mov    0x4(%rdi,%r8,1),%r10d
    7a4e:	41 83 e2 f8          	and    $0xfffffff8,%r10d
    7a52:	41 39 da             	cmp    %ebx,%r10d
    7a55:	74 3a                	je     7a91 <guest_func_10+0x811>
    7a57:	45 89 c8             	mov    %r9d,%r8d
    7a5a:	41 c1 e8 1d          	shr    $0x1d,%r8d
    7a5e:	41 c1 e1 01          	shl    $0x1,%r9d
    7a62:	41 83 e0 04          	and    $0x4,%r8d
    7a66:	41 01 d0             	add    %edx,%r8d
    7a69:	41 83 c0 10          	add    $0x10,%r8d
    7a6d:	45 89 c0             	mov    %r8d,%r8d
    7a70:	46 8b 14 07          	mov    (%rdi,%r8,1),%r10d
    7a74:	45 85 d2             	test   %r10d,%r10d
    7a77:	75 ca                	jne    7a43 <guest_func_10+0x7c3>
    7a79:	42 89 0c 07          	mov    %ecx,(%rdi,%r8,1)
    7a7d:	89 c8                	mov    %ecx,%eax
    7a7f:	83 c0 18             	add    $0x18,%eax
    7a82:	89 c0                	mov    %eax,%eax
    7a84:	89 14 07             	mov    %edx,(%rdi,%rax,1)
    7a87:	89 4c 37 0c          	mov    %ecx,0xc(%rdi,%rsi,1)
    7a8b:	89 4c 37 08          	mov    %ecx,0x8(%rdi,%rsi,1)
    7a8f:	eb 22                	jmp    7ab3 <guest_func_10+0x833>
    7a91:	42 8b 5c 07 08       	mov    0x8(%rdi,%r8,1),%ebx
    7a96:	42 89 4c 07 08       	mov    %ecx,0x8(%rdi,%r8,1)
    7a9b:	41 89 d8             	mov    %ebx,%r8d
    7a9e:	42 89 4c 07 0c       	mov    %ecx,0xc(%rdi,%r8,1)
    7aa3:	83 c1 18             	add    $0x18,%ecx
    7aa6:	89 c9                	mov    %ecx,%ecx
    7aa8:	89 04 0f             	mov    %eax,(%rdi,%rcx,1)
    7aab:	89 5c 37 08          	mov    %ebx,0x8(%rdi,%rsi,1)
    7aaf:	89 54 37 0c          	mov    %edx,0xc(%rdi,%rsi,1)
    7ab3:	b8 20 05 00 00       	mov    $0x520,%eax
    7ab8:	89 c0                	mov    %eax,%eax
    7aba:	8b 0c 07             	mov    (%rdi,%rax,1),%ecx
    7abd:	ba ff ff ff ff       	mov    $0xffffffff,%edx
    7ac2:	83 c1 ff             	add    $0xffffffff,%ecx
    7ac5:	89 0c 07             	mov    %ecx,(%rdi,%rax,1)
    7ac8:	85 c9                	test   %ecx,%ecx
    7aca:	75 1b                	jne    7ae7 <guest_func_10+0x867>
    7acc:	b9 c8 06 00 00       	mov    $0x6c8,%ecx
    7ad1:	eb 03                	jmp    7ad6 <guest_func_10+0x856>
    7ad3:	40 89 d9             	rex mov %ebx,%ecx
    7ad6:	89 c9                	mov    %ecx,%ecx
    7ad8:	8b 0c 0f             	mov    (%rdi,%rcx,1),%ecx
    7adb:	89 cb                	mov    %ecx,%ebx
    7add:	83 c3 08             	add    $0x8,%ebx
    7ae0:	85 c9                	test   %ecx,%ecx
    7ae2:	75 ef                	jne    7ad3 <guest_func_10+0x853>
    7ae4:	89 14 07             	mov    %edx,(%rdi,%rax,1)
    7ae7:	41 5f                	pop    %r15
    7ae9:	41 5e                	pop    %r14
    7aeb:	41 5d                	pop    %r13
    7aed:	41 5c                	pop    %r12
    7aef:	5b                   	pop    %rbx
    7af0:	5d                   	pop    %rbp
    7af1:	c3                   	retq   
	...

0000000000007b00 <lucet_probestack>:
    7b00:	49 89 c3             	mov    %rax,%r11
    7b03:	48 81 ec 00 10 00 00 	sub    $0x1000,%rsp
    7b0a:	48 85 64 24 08       	test   %rsp,0x8(%rsp)
    7b0f:	49 81 eb 00 10 00 00 	sub    $0x1000,%r11
    7b16:	49 81 fb 00 10 00 00 	cmp    $0x1000,%r11
    7b1d:	77 e4                	ja     7b03 <lucet_probestack+0x3>
    7b1f:	4c 29 dc             	sub    %r11,%rsp
    7b22:	48 85 64 24 08       	test   %rsp,0x8(%rsp)
    7b27:	48 01 c4             	add    %rax,%rsp
    7b2a:	c3                   	retq 