ref.so:     file format elf64-x86-64


Disassembly of section .plt:

0000000000000c90 <.plt>:
 c90:	ff 35 72 c3 20 00    	pushq  0x20c372(%rip)        # 20d008 <_GLOBAL_OFFSET_TABLE_+0x8>
 c96:	ff 25 74 c3 20 00    	jmpq   *0x20c374(%rip)        # 20d010 <_GLOBAL_OFFSET_TABLE_+0x10>
 c9c:	0f 1f 40 00          	nopl   0x0(%rax)

0000000000000ca0 <lucet_vmctx_grow_memory@plt>:
 ca0:	ff 25 72 c3 20 00    	jmpq   *0x20c372(%rip)        # 20d018 <lucet_vmctx_grow_memory>
 ca6:	68 00 00 00 00       	pushq  $0x0
 cab:	e9 e0 ff ff ff       	jmpq   c90 <.plt>

0000000000000cb0 <lucet_vmctx_current_memory@plt>:
 cb0:	ff 25 6a c3 20 00    	jmpq   *0x20c36a(%rip)        # 20d020 <lucet_vmctx_current_memory>
 cb6:	68 01 00 00 00       	pushq  $0x1
 cbb:	e9 d0 ff ff ff       	jmpq   c90 <.plt>

Disassembly of section .text:

0000000000000cc0 <guest_func_posix_memalign>:
     cc0:	55                   	push   %rbp
     cc1:	48 89 e5             	mov    %rsp,%rbp
     cc4:	53                   	push   %rbx
     cc5:	41 57                	push   %r15
     cc7:	48 83 ec 10          	sub    $0x10,%rsp
     ccb:	48 89 bc 24 00 00 00 	mov    %rdi,0x0(%rsp)
     cd2:	00 
     cd3:	89 b4 24 0c 00 00 00 	mov    %esi,0xc(%rsp)
     cda:	31 c0                	xor    %eax,%eax
     cdc:	89 84 24 08 00 00 00 	mov    %eax,0x8(%rsp)
     ce3:	b8 10 00 00 00       	mov    $0x10,%eax
     ce8:	83 fa 10             	cmp    $0x10,%edx
     ceb:	75 10                	jne    cfd <guest_func_posix_memalign+0x3d>
     ced:	49 89 ff             	mov    %rdi,%r15
     cf0:	4c 89 ff             	mov    %r15,%rdi
     cf3:	40 89 ce             	rex mov %ecx,%esi
     cf6:	e8 05 12 00 00       	callq  1f00 <guest_func_9>
     cfb:	eb 49                	jmp    d46 <guest_func_posix_memalign+0x86>
     cfd:	bb 1c 00 00 00       	mov    $0x1c,%ebx
     d02:	89 d6                	mov    %edx,%esi
     d04:	83 e6 03             	and    $0x3,%esi
     d07:	85 f6                	test   %esi,%esi
     d09:	75 6f                	jne    d7a <guest_func_posix_memalign+0xba>
     d0b:	89 d6                	mov    %edx,%esi
     d0d:	c1 ee 02             	shr    $0x2,%esi
     d10:	f3 0f b8 f6          	popcnt %esi,%esi
     d14:	83 fe 01             	cmp    $0x1,%esi
     d17:	75 61                	jne    d7a <guest_func_posix_memalign+0xba>
     d19:	bb 30 00 00 00       	mov    $0x30,%ebx
     d1e:	be c0 ff ff ff       	mov    $0xffffffc0,%esi
     d23:	29 d6                	sub    %edx,%esi
     d25:	39 ce                	cmp    %ecx,%esi
     d27:	72 51                	jb     d7a <guest_func_posix_memalign+0xba>
     d29:	83 fa 10             	cmp    $0x10,%edx
     d2c:	77 02                	ja     d30 <guest_func_posix_memalign+0x70>
     d2e:	89 c2                	mov    %eax,%edx
     d30:	4c 8b bc 24 00 00 00 	mov    0x0(%rsp),%r15
     d37:	00 
     d38:	4c 89 ff             	mov    %r15,%rdi
     d3b:	40 89 d6             	rex mov %edx,%esi
     d3e:	40 89 ca             	rex mov %ecx,%edx
     d41:	e8 4a 00 00 00       	callq  d90 <guest_func_16>
     d46:	85 c0                	test   %eax,%eax
     d48:	75 0e                	jne    d58 <guest_func_posix_memalign+0x98>
     d4a:	b8 30 00 00 00       	mov    $0x30,%eax
     d4f:	48 83 c4 10          	add    $0x10,%rsp
     d53:	41 5f                	pop    %r15
     d55:	5b                   	pop    %rbx
     d56:	5d                   	pop    %rbp
     d57:	c3                   	retq   
     d58:	44 8b bc 24 0c 00 00 	mov    0xc(%rsp),%r15d
     d5f:	00 
     d60:	44 89 f9             	mov    %r15d,%ecx
     d63:	4c 8b bc 24 00 00 00 	mov    0x0(%rsp),%r15
     d6a:	00 
     d6b:	41 89 04 0f          	mov    %eax,(%r15,%rcx,1)
     d6f:	44 8b bc 24 08 00 00 	mov    0x8(%rsp),%r15d
     d76:	00 
     d77:	44 89 fb             	mov    %r15d,%ebx
     d7a:	40 89 d8             	rex mov %ebx,%eax
     d7d:	48 83 c4 10          	add    $0x10,%rsp
     d81:	41 5f                	pop    %r15
     d83:	5b                   	pop    %rbx
     d84:	5d                   	pop    %rbp
     d85:	c3                   	retq   
	...

0000000000000d90 <guest_func_16>:
     d90:	55                   	push   %rbp
     d91:	48 89 e5             	mov    %rsp,%rbp
     d94:	53                   	push   %rbx
     d95:	41 55                	push   %r13
     d97:	41 56                	push   %r14
     d99:	41 57                	push   %r15
     d9b:	48 83 ec 20          	sub    $0x20,%rsp
     d9f:	48 89 bc 24 08 00 00 	mov    %rdi,0x8(%rsp)
     da6:	00 
     da7:	31 c0                	xor    %eax,%eax
     da9:	89 84 24 1c 00 00 00 	mov    %eax,0x1c(%rsp)
     db0:	89 f0                	mov    %esi,%eax
     db2:	83 c0 ff             	add    $0xffffffff,%eax
     db5:	21 f0                	and    %esi,%eax
     db7:	85 c0                	test   %eax,%eax
     db9:	75 09                	jne    dc4 <guest_func_16+0x34>
     dbb:	89 b4 24 18 00 00 00 	mov    %esi,0x18(%rsp)
     dc2:	eb 28                	jmp    dec <guest_func_16+0x5c>
     dc4:	b8 20 00 00 00       	mov    $0x20,%eax
     dc9:	89 84 24 18 00 00 00 	mov    %eax,0x18(%rsp)
     dd0:	eb 07                	jmp    dd9 <guest_func_16+0x49>
     dd2:	89 84 24 18 00 00 00 	mov    %eax,0x18(%rsp)
     dd9:	44 8b bc 24 18 00 00 	mov    0x18(%rsp),%r15d
     de0:	00 
     de1:	44 89 f8             	mov    %r15d,%eax
     de4:	c1 e0 01             	shl    $0x1,%eax
     de7:	41 39 f7             	cmp    %esi,%r15d
     dea:	72 e6                	jb     dd2 <guest_func_16+0x42>
     dec:	b8 c0 ff ff ff       	mov    $0xffffffc0,%eax
     df1:	44 8b bc 24 18 00 00 	mov    0x18(%rsp),%r15d
     df8:	00 
     df9:	44 29 f8             	sub    %r15d,%eax
     dfc:	39 d0                	cmp    %edx,%eax
     dfe:	77 30                	ja     e30 <guest_func_16+0xa0>
     e00:	b8 f0 06 00 00       	mov    $0x6f0,%eax
     e05:	b9 30 00 00 00       	mov    $0x30,%ecx
     e0a:	89 c0                	mov    %eax,%eax
     e0c:	4c 8b bc 24 08 00 00 	mov    0x8(%rsp),%r15
     e13:	00 
     e14:	41 89 0c 07          	mov    %ecx,(%r15,%rax,1)
     e18:	44 8b bc 24 1c 00 00 	mov    0x1c(%rsp),%r15d
     e1f:	00 
     e20:	44 89 f8             	mov    %r15d,%eax
     e23:	48 83 c4 20          	add    $0x20,%rsp
     e27:	41 5f                	pop    %r15
     e29:	41 5e                	pop    %r14
     e2b:	41 5d                	pop    %r13
     e2d:	5b                   	pop    %rbx
     e2e:	5d                   	pop    %rbp
     e2f:	c3                   	retq   
     e30:	b8 10 00 00 00       	mov    $0x10,%eax
     e35:	89 84 24 14 00 00 00 	mov    %eax,0x14(%rsp)
     e3c:	89 d0                	mov    %edx,%eax
     e3e:	83 c0 13             	add    $0x13,%eax
     e41:	83 e0 f0             	and    $0xfffffff0,%eax
     e44:	83 fa 0b             	cmp    $0xb,%edx
     e47:	72 07                	jb     e50 <guest_func_16+0xc0>
     e49:	89 84 24 14 00 00 00 	mov    %eax,0x14(%rsp)
     e50:	44 8b bc 24 14 00 00 	mov    0x14(%rsp),%r15d
     e57:	00 
     e58:	41 83 cf 0c          	or     $0xc,%r15d
     e5c:	44 8b b4 24 18 00 00 	mov    0x18(%rsp),%r14d
     e63:	00 
     e64:	45 01 f7             	add    %r14d,%r15d
     e67:	4c 8b b4 24 08 00 00 	mov    0x8(%rsp),%r14
     e6e:	00 
     e6f:	4c 89 f7             	mov    %r14,%rdi
     e72:	44 89 fe             	mov    %r15d,%esi
     e75:	e8 86 10 00 00       	callq  1f00 <guest_func_9>
     e7a:	85 c0                	test   %eax,%eax
     e7c:	75 18                	jne    e96 <guest_func_16+0x106>
     e7e:	44 8b bc 24 1c 00 00 	mov    0x1c(%rsp),%r15d
     e85:	00 
     e86:	44 89 f8             	mov    %r15d,%eax
     e89:	48 83 c4 20          	add    $0x20,%rsp
     e8d:	41 5f                	pop    %r15
     e8f:	41 5e                	pop    %r14
     e91:	41 5d                	pop    %r13
     e93:	5b                   	pop    %rbx
     e94:	5d                   	pop    %rbp
     e95:	c3                   	retq   
     e96:	89 c1                	mov    %eax,%ecx
     e98:	83 c1 f8             	add    $0xfffffff8,%ecx
     e9b:	44 8b bc 24 18 00 00 	mov    0x18(%rsp),%r15d
     ea2:	00 
     ea3:	41 83 c7 ff          	add    $0xffffffff,%r15d
     ea7:	41 21 c7             	and    %eax,%r15d
     eaa:	45 85 ff             	test   %r15d,%r15d
     ead:	75 0c                	jne    ebb <guest_func_16+0x12b>
     eaf:	89 8c 24 10 00 00 00 	mov    %ecx,0x10(%rsp)
     eb6:	e9 0c 01 00 00       	jmpq   fc7 <guest_func_16+0x237>
     ebb:	89 c2                	mov    %eax,%edx
     ebd:	83 c2 fc             	add    $0xfffffffc,%edx
     ec0:	89 d2                	mov    %edx,%edx
     ec2:	4c 8b bc 24 08 00 00 	mov    0x8(%rsp),%r15
     ec9:	00 
     eca:	41 8b 1c 17          	mov    (%r15,%rdx,1),%ebx
     ece:	89 de                	mov    %ebx,%esi
     ed0:	83 e6 f8             	and    $0xfffffff8,%esi
     ed3:	44 8b bc 24 18 00 00 	mov    0x18(%rsp),%r15d
     eda:	00 
     edb:	41 01 c7             	add    %eax,%r15d
     ede:	41 83 c7 ff          	add    $0xffffffff,%r15d
     ee2:	44 8b b4 24 1c 00 00 	mov    0x1c(%rsp),%r14d
     ee9:	00 
     eea:	44 8b ac 24 18 00 00 	mov    0x18(%rsp),%r13d
     ef1:	00 
     ef2:	45 29 ee             	sub    %r13d,%r14d
     ef5:	45 21 f7             	and    %r14d,%r15d
     ef8:	41 83 c7 f8          	add    $0xfffffff8,%r15d
     efc:	44 89 bc 24 10 00 00 	mov    %r15d,0x10(%rsp)
     f03:	00 
     f04:	45 89 ef             	mov    %r13d,%r15d
     f07:	44 8b b4 24 10 00 00 	mov    0x10(%rsp),%r14d
     f0e:	00 
     f0f:	44 89 f8             	mov    %r15d,%eax
     f12:	44 01 f0             	add    %r14d,%eax
     f15:	45 89 f7             	mov    %r14d,%r15d
     f18:	41 29 cf             	sub    %ecx,%r15d
     f1b:	41 83 ff 0f          	cmp    $0xf,%r15d
     f1f:	77 07                	ja     f28 <guest_func_16+0x198>
     f21:	89 84 24 10 00 00 00 	mov    %eax,0x10(%rsp)
     f28:	44 8b bc 24 10 00 00 	mov    0x10(%rsp),%r15d
     f2f:	00 
     f30:	44 89 f8             	mov    %r15d,%eax
     f33:	29 c8                	sub    %ecx,%eax
     f35:	29 c6                	sub    %eax,%esi
     f37:	83 e3 03             	and    $0x3,%ebx
     f3a:	85 db                	test   %ebx,%ebx
     f3c:	75 1e                	jne    f5c <guest_func_16+0x1cc>
     f3e:	44 89 fa             	mov    %r15d,%edx
     f41:	4c 8b bc 24 08 00 00 	mov    0x8(%rsp),%r15
     f48:	00 
     f49:	41 89 74 17 04       	mov    %esi,0x4(%r15,%rdx,1)
     f4e:	89 c9                	mov    %ecx,%ecx
     f50:	41 8b 0c 0f          	mov    (%r15,%rcx,1),%ecx
     f54:	01 c1                	add    %eax,%ecx
     f56:	41 89 0c 17          	mov    %ecx,(%r15,%rdx,1)
     f5a:	eb 6b                	jmp    fc7 <guest_func_16+0x237>
     f5c:	44 89 fb             	mov    %r15d,%ebx
     f5f:	4c 8b bc 24 08 00 00 	mov    0x8(%rsp),%r15
     f66:	00 
     f67:	41 8b 7c 1f 04       	mov    0x4(%r15,%rbx,1),%edi
     f6c:	83 e7 01             	and    $0x1,%edi
     f6f:	09 f7                	or     %esi,%edi
     f71:	83 cf 02             	or     $0x2,%edi
     f74:	41 89 7c 1f 04       	mov    %edi,0x4(%r15,%rbx,1)
     f79:	44 8b bc 24 10 00 00 	mov    0x10(%rsp),%r15d
     f80:	00 
     f81:	41 01 f7             	add    %esi,%r15d
     f84:	44 89 fe             	mov    %r15d,%esi
     f87:	4c 8b bc 24 08 00 00 	mov    0x8(%rsp),%r15
     f8e:	00 
     f8f:	41 8b 7c 37 04       	mov    0x4(%r15,%rsi,1),%edi
     f94:	83 cf 01             	or     $0x1,%edi
     f97:	41 89 7c 37 04       	mov    %edi,0x4(%r15,%rsi,1)
     f9c:	41 8b 34 17          	mov    (%r15,%rdx,1),%esi
     fa0:	83 e6 01             	and    $0x1,%esi
     fa3:	09 c6                	or     %eax,%esi
     fa5:	83 ce 02             	or     $0x2,%esi
     fa8:	41 89 34 17          	mov    %esi,(%r15,%rdx,1)
     fac:	41 8b 54 1f 04       	mov    0x4(%r15,%rbx,1),%edx
     fb1:	83 ca 01             	or     $0x1,%edx
     fb4:	41 89 54 1f 04       	mov    %edx,0x4(%r15,%rbx,1)
     fb9:	4c 89 ff             	mov    %r15,%rdi
     fbc:	40 89 ce             	rex mov %ecx,%esi
     fbf:	40 89 c2             	rex mov %eax,%edx
     fc2:	e8 19 51 00 00       	callq  60e0 <guest_func_14>
     fc7:	44 8b bc 24 10 00 00 	mov    0x10(%rsp),%r15d
     fce:	00 
     fcf:	44 89 f8             	mov    %r15d,%eax
     fd2:	4c 8b bc 24 08 00 00 	mov    0x8(%rsp),%r15
     fd9:	00 
     fda:	41 8b 4c 07 04       	mov    0x4(%r15,%rax,1),%ecx
     fdf:	89 ca                	mov    %ecx,%edx
     fe1:	83 e2 03             	and    $0x3,%edx
     fe4:	85 d2                	test   %edx,%edx
     fe6:	0f 84 9e 00 00 00    	je     108a <guest_func_16+0x2fa>
     fec:	89 ca                	mov    %ecx,%edx
     fee:	83 e2 f8             	and    $0xfffffff8,%edx
     ff1:	44 8b bc 24 14 00 00 	mov    0x14(%rsp),%r15d
     ff8:	00 
     ff9:	41 83 c7 10          	add    $0x10,%r15d
     ffd:	44 39 fa             	cmp    %r15d,%edx
    1000:	0f 86 84 00 00 00    	jbe    108a <guest_func_16+0x2fa>
    1006:	83 e1 01             	and    $0x1,%ecx
    1009:	44 8b bc 24 14 00 00 	mov    0x14(%rsp),%r15d
    1010:	00 
    1011:	44 09 f9             	or     %r15d,%ecx
    1014:	83 c9 02             	or     $0x2,%ecx
    1017:	4c 8b bc 24 08 00 00 	mov    0x8(%rsp),%r15
    101e:	00 
    101f:	41 89 4c 07 04       	mov    %ecx,0x4(%r15,%rax,1)
    1024:	44 8b bc 24 14 00 00 	mov    0x14(%rsp),%r15d
    102b:	00 
    102c:	44 8b b4 24 10 00 00 	mov    0x10(%rsp),%r14d
    1033:	00 
    1034:	45 01 f7             	add    %r14d,%r15d
    1037:	89 d0                	mov    %edx,%eax
    1039:	44 8b b4 24 14 00 00 	mov    0x14(%rsp),%r14d
    1040:	00 
    1041:	44 29 f0             	sub    %r14d,%eax
    1044:	89 c1                	mov    %eax,%ecx
    1046:	83 c9 03             	or     $0x3,%ecx
    1049:	44 89 fb             	mov    %r15d,%ebx
    104c:	4c 8b b4 24 08 00 00 	mov    0x8(%rsp),%r14
    1053:	00 
    1054:	41 89 4c 1e 04       	mov    %ecx,0x4(%r14,%rbx,1)
    1059:	44 8b b4 24 10 00 00 	mov    0x10(%rsp),%r14d
    1060:	00 
    1061:	41 01 d6             	add    %edx,%r14d
    1064:	44 89 f1             	mov    %r14d,%ecx
    1067:	4c 8b b4 24 08 00 00 	mov    0x8(%rsp),%r14
    106e:	00 
    106f:	41 8b 54 0e 04       	mov    0x4(%r14,%rcx,1),%edx
    1074:	83 ca 01             	or     $0x1,%edx
    1077:	41 89 54 0e 04       	mov    %edx,0x4(%r14,%rcx,1)
    107c:	4c 89 f7             	mov    %r14,%rdi
    107f:	44 89 fe             	mov    %r15d,%esi
    1082:	40 89 c2             	rex mov %eax,%edx
    1085:	e8 56 50 00 00       	callq  60e0 <guest_func_14>
    108a:	44 8b bc 24 10 00 00 	mov    0x10(%rsp),%r15d
    1091:	00 
    1092:	41 83 c7 08          	add    $0x8,%r15d
    1096:	44 89 f8             	mov    %r15d,%eax
    1099:	48 83 c4 20          	add    $0x20,%rsp
    109d:	41 5f                	pop    %r15
    109f:	41 5e                	pop    %r14
    10a1:	41 5d                	pop    %r13
    10a3:	5b                   	pop    %rbx
    10a4:	5d                   	pop    %rbp
    10a5:	c3                   	retq   
	...

00000000000010b0 <guest_func_blake2b_final>:
    10b0:	55                   	push   %rbp
    10b1:	48 89 e5             	mov    %rsp,%rbp
    10b4:	53                   	push   %rbx
    10b5:	41 54                	push   %r12
    10b7:	41 55                	push   %r13
    10b9:	41 56                	push   %r14
    10bb:	41 57                	push   %r15
    10bd:	48 83 ec 18          	sub    $0x18,%rsp
    10c1:	48 89 bc 24 00 00 00 	mov    %rdi,0x0(%rsp)
    10c8:	00 
    10c9:	89 b4 24 0c 00 00 00 	mov    %esi,0xc(%rsp)
    10d0:	89 94 24 14 00 00 00 	mov    %edx,0x14(%rsp)
    10d7:	31 c0                	xor    %eax,%eax
    10d9:	89 84 24 10 00 00 00 	mov    %eax,0x10(%rsp)
    10e0:	41 89 f7             	mov    %esi,%r15d
    10e3:	44 89 f8             	mov    %r15d,%eax
    10e6:	49 89 ff             	mov    %rdi,%r15
    10e9:	49 8b 8c 07 c0 00 00 	mov    0xc0(%r15,%rax,1),%rcx
    10f0:	00 
    10f1:	41 8b 94 07 d0 00 00 	mov    0xd0(%r15,%rax,1),%edx
    10f8:	00 
    10f9:	89 d3                	mov    %edx,%ebx
    10fb:	48 89 ce             	mov    %rcx,%rsi
    10fe:	48 01 de             	add    %rbx,%rsi
    1101:	49 89 b4 07 c0 00 00 	mov    %rsi,0xc0(%r15,%rax,1)
    1108:	00 
    1109:	48 39 ce             	cmp    %rcx,%rsi
    110c:	73 21                	jae    112f <guest_func_blake2b_final+0x7f>
    110e:	44 8b bc 24 0c 00 00 	mov    0xc(%rsp),%r15d
    1115:	00 
    1116:	41 81 c7 c8 00 00 00 	add    $0xc8,%r15d
    111d:	44 89 f9             	mov    %r15d,%ecx
    1120:	49 89 ff             	mov    %rdi,%r15
    1123:	49 8b 1c 0f          	mov    (%r15,%rcx,1),%rbx
    1127:	48 83 c3 01          	add    $0x1,%rbx
    112b:	49 89 1c 0f          	mov    %rbx,(%r15,%rcx,1)
    112f:	83 fa 7f             	cmp    $0x7f,%edx
    1132:	77 52                	ja     1186 <guest_func_blake2b_final+0xd6>
    1134:	eb 03                	jmp    1139 <guest_func_blake2b_final+0x89>
    1136:	40 89 ca             	rex mov %ecx,%edx
    1139:	89 d1                	mov    %edx,%ecx
    113b:	83 c1 01             	add    $0x1,%ecx
    113e:	4c 8b bc 24 00 00 00 	mov    0x0(%rsp),%r15
    1145:	00 
    1146:	41 89 8c 07 d0 00 00 	mov    %ecx,0xd0(%r15,%rax,1)
    114d:	00 
    114e:	44 8b bc 24 0c 00 00 	mov    0xc(%rsp),%r15d
    1155:	00 
    1156:	41 01 d7             	add    %edx,%r15d
    1159:	44 89 f9             	mov    %r15d,%ecx
    115c:	44 8b bc 24 10 00 00 	mov    0x10(%rsp),%r15d
    1163:	00 
    1164:	4c 8b b4 24 00 00 00 	mov    0x0(%rsp),%r14
    116b:	00 
    116c:	44 89 fa             	mov    %r15d,%edx
    116f:	41 88 14 0e          	mov    %dl,(%r14,%rcx,1)
    1173:	4d 89 f7             	mov    %r14,%r15
    1176:	41 8b 8c 07 d0 00 00 	mov    0xd0(%r15,%rax,1),%ecx
    117d:	00 
    117e:	81 f9 80 00 00 00    	cmp    $0x80,%ecx
    1184:	72 b0                	jb     1136 <guest_func_blake2b_final+0x86>
    1186:	b8 01 00 00 00       	mov    $0x1,%eax
    118b:	4c 8b bc 24 00 00 00 	mov    0x0(%rsp),%r15
    1192:	00 
    1193:	44 8b b4 24 0c 00 00 	mov    0xc(%rsp),%r14d
    119a:	00 
    119b:	4c 89 ff             	mov    %r15,%rdi
    119e:	44 89 f6             	mov    %r14d,%esi
    11a1:	40 89 c2             	rex mov %eax,%edx
    11a4:	e8 d7 41 00 00       	callq  5380 <guest_func_2>
    11a9:	44 8b bc 24 0c 00 00 	mov    0xc(%rsp),%r15d
    11b0:	00 
    11b1:	44 89 f8             	mov    %r15d,%eax
    11b4:	4c 8b bc 24 00 00 00 	mov    0x0(%rsp),%r15
    11bb:	00 
    11bc:	41 8b 8c 07 d4 00 00 	mov    0xd4(%r15,%rax,1),%ecx
    11c3:	00 
    11c4:	85 c9                	test   %ecx,%ecx
    11c6:	74 7d                	je     1245 <guest_func_blake2b_final+0x195>
    11c8:	44 8b bc 24 10 00 00 	mov    0x10(%rsp),%r15d
    11cf:	00 
    11d0:	45 89 fe             	mov    %r15d,%r14d
    11d3:	eb 06                	jmp    11db <guest_func_blake2b_final+0x12b>
    11d5:	41 89 d7             	mov    %edx,%r15d
    11d8:	41 89 ce             	mov    %ecx,%r14d
    11db:	44 8b ac 24 14 00 00 	mov    0x14(%rsp),%r13d
    11e2:	00 
    11e3:	45 01 fd             	add    %r15d,%r13d
    11e6:	44 89 f9             	mov    %r15d,%ecx
    11e9:	83 e1 f8             	and    $0xfffffff8,%ecx
    11ec:	44 8b a4 24 0c 00 00 	mov    0xc(%rsp),%r12d
    11f3:	00 
    11f4:	44 01 e1             	add    %r12d,%ecx
    11f7:	81 c1 80 00 00 00    	add    $0x80,%ecx
    11fd:	89 c9                	mov    %ecx,%ecx
    11ff:	4c 8b a4 24 00 00 00 	mov    0x0(%rsp),%r12
    1206:	00 
    1207:	49 8b 0c 0c          	mov    (%r12,%rcx,1),%rcx
    120b:	44 89 f2             	mov    %r14d,%edx
    120e:	83 e2 38             	and    $0x38,%edx
    1211:	89 d2                	mov    %edx,%edx
    1213:	48 89 cb             	mov    %rcx,%rbx
    1216:	48 89 d1             	mov    %rdx,%rcx
    1219:	48 89 da             	mov    %rbx,%rdx
    121c:	48 d3 ea             	shr    %cl,%rdx
    121f:	44 89 e9             	mov    %r13d,%ecx
    1222:	4d 89 e5             	mov    %r12,%r13
    1225:	41 88 54 0d 00       	mov    %dl,0x0(%r13,%rcx,1)
    122a:	44 89 f1             	mov    %r14d,%ecx
    122d:	83 c1 08             	add    $0x8,%ecx
    1230:	44 89 fa             	mov    %r15d,%edx
    1233:	83 c2 01             	add    $0x1,%edx
    1236:	4d 89 e7             	mov    %r12,%r15
    1239:	41 8b 9c 07 d4 00 00 	mov    0xd4(%r15,%rax,1),%ebx
    1240:	00 
    1241:	39 da                	cmp    %ebx,%edx
    1243:	72 90                	jb     11d5 <guest_func_blake2b_final+0x125>
    1245:	44 8b bc 24 10 00 00 	mov    0x10(%rsp),%r15d
    124c:	00 
    124d:	44 89 f8             	mov    %r15d,%eax
    1250:	48 83 c4 18          	add    $0x18,%rsp
    1254:	41 5f                	pop    %r15
    1256:	41 5e                	pop    %r14
    1258:	41 5d                	pop    %r13
    125a:	41 5c                	pop    %r12
    125c:	5b                   	pop    %rbx
    125d:	5d                   	pop    %rbp
    125e:	c3                   	retq   
	...

0000000000001260 <guest_func_malloc>:
    1260:	55                   	push   %rbp
    1261:	48 89 e5             	mov    %rsp,%rbp
    1264:	e8 97 0c 00 00       	callq  1f00 <guest_func_9>
    1269:	5d                   	pop    %rbp
    126a:	c3                   	retq   
    126b:	00 00                	add    %al,(%rax)
    126d:	00 00                	add    %al,(%rax)
	...

0000000000001270 <guest_func_11>:
    1270:	55                   	push   %rbp
    1271:	48 89 e5             	mov    %rsp,%rbp
    1274:	53                   	push   %rbx
    1275:	41 54                	push   %r12
    1277:	41 55                	push   %r13
    1279:	41 56                	push   %r14
    127b:	41 57                	push   %r15
    127d:	31 c0                	xor    %eax,%eax
    127f:	85 f6                	test   %esi,%esi
    1281:	0f 84 50 08 00 00    	je     1ad7 <guest_func_11+0x867>
    1287:	89 f1                	mov    %esi,%ecx
    1289:	83 c1 f8             	add    $0xfffffff8,%ecx
    128c:	83 c6 fc             	add    $0xfffffffc,%esi
    128f:	89 f2                	mov    %esi,%edx
    1291:	8b 14 17             	mov    (%rdi,%rdx,1),%edx
    1294:	89 d3                	mov    %edx,%ebx
    1296:	83 e3 f8             	and    $0xfffffff8,%ebx
    1299:	89 ce                	mov    %ecx,%esi
    129b:	01 de                	add    %ebx,%esi
    129d:	41 b8 01 00 00 00    	mov    $0x1,%r8d
    12a3:	41 89 d1             	mov    %edx,%r9d
    12a6:	41 83 e1 01          	and    $0x1,%r9d
    12aa:	45 85 c9             	test   %r9d,%r9d
    12ad:	0f 85 79 02 00 00    	jne    152c <guest_func_11+0x2bc>
    12b3:	83 e2 03             	and    $0x3,%edx
    12b6:	85 d2                	test   %edx,%edx
    12b8:	0f 84 19 08 00 00    	je     1ad7 <guest_func_11+0x867>
    12be:	89 ca                	mov    %ecx,%edx
    12c0:	8b 14 17             	mov    (%rdi,%rdx,1),%edx
    12c3:	29 d1                	sub    %edx,%ecx
    12c5:	41 b9 10 05 00 00    	mov    $0x510,%r9d
    12cb:	45 89 c9             	mov    %r9d,%r9d
    12ce:	46 8b 0c 0f          	mov    (%rdi,%r9,1),%r9d
    12d2:	44 39 c9             	cmp    %r9d,%ecx
    12d5:	0f 82 fc 07 00 00    	jb     1ad7 <guest_func_11+0x867>
    12db:	01 d3                	add    %edx,%ebx
    12dd:	41 ba 14 05 00 00    	mov    $0x514,%r10d
    12e3:	45 89 d2             	mov    %r10d,%r10d
    12e6:	46 8b 14 17          	mov    (%rdi,%r10,1),%r10d
    12ea:	44 39 d1             	cmp    %r10d,%ecx
    12ed:	0f 84 f5 01 00 00    	je     14e8 <guest_func_11+0x278>
    12f3:	81 fa ff 00 00 00    	cmp    $0xff,%edx
    12f9:	77 70                	ja     136b <guest_func_11+0xfb>
    12fb:	41 89 c9             	mov    %ecx,%r9d
    12fe:	46 8b 54 0f 0c       	mov    0xc(%rdi,%r9,1),%r10d
    1303:	46 8b 4c 0f 08       	mov    0x8(%rdi,%r9,1),%r9d
    1308:	c1 ea 03             	shr    $0x3,%edx
    130b:	41 89 d3             	mov    %edx,%r11d
    130e:	41 c1 e3 03          	shl    $0x3,%r11d
    1312:	41 81 c3 28 05 00 00 	add    $0x528,%r11d
    1319:	45 39 d9             	cmp    %r11d,%r9d
    131c:	74 00                	je     131e <guest_func_11+0xae>
    131e:	45 39 ca             	cmp    %r9d,%r10d
    1321:	75 2e                	jne    1351 <guest_func_11+0xe1>
    1323:	41 b9 00 05 00 00    	mov    $0x500,%r9d
    1329:	45 89 c9             	mov    %r9d,%r9d
    132c:	46 8b 14 0f          	mov    (%rdi,%r9,1),%r10d
    1330:	41 bb fe ff ff ff    	mov    $0xfffffffe,%r11d
    1336:	41 89 cc             	mov    %ecx,%r12d
    1339:	40 89 d1             	rex mov %edx,%ecx
    133c:	44 89 e2             	mov    %r12d,%edx
    133f:	41 d3 c3             	rol    %cl,%r11d
    1342:	45 21 da             	and    %r11d,%r10d
    1345:	46 89 14 0f          	mov    %r10d,(%rdi,%r9,1)
    1349:	40 89 d1             	rex mov %edx,%ecx
    134c:	e9 db 01 00 00       	jmpq   152c <guest_func_11+0x2bc>
    1351:	45 39 da             	cmp    %r11d,%r10d
    1354:	74 00                	je     1356 <guest_func_11+0xe6>
    1356:	44 89 d2             	mov    %r10d,%edx
    1359:	44 89 4c 17 08       	mov    %r9d,0x8(%rdi,%rdx,1)
    135e:	44 89 ca             	mov    %r9d,%edx
    1361:	44 89 54 17 0c       	mov    %r10d,0xc(%rdi,%rdx,1)
    1366:	e9 c1 01 00 00       	jmpq   152c <guest_func_11+0x2bc>
    136b:	89 ca                	mov    %ecx,%edx
    136d:	44 8b 54 17 18       	mov    0x18(%rdi,%rdx,1),%r10d
    1372:	44 8b 5c 17 0c       	mov    0xc(%rdi,%rdx,1),%r11d
    1377:	44 39 d9             	cmp    %r11d,%ecx
    137a:	74 24                	je     13a0 <guest_func_11+0x130>
    137c:	44 8b 64 17 08       	mov    0x8(%rdi,%rdx,1),%r12d
    1381:	45 39 e1             	cmp    %r12d,%r9d
    1384:	77 08                	ja     138e <guest_func_11+0x11e>
    1386:	45 89 e1             	mov    %r12d,%r9d
    1389:	46 8b 4c 0f 0c       	mov    0xc(%rdi,%r9,1),%r9d
    138e:	45 89 d9             	mov    %r11d,%r9d
    1391:	46 89 64 0f 08       	mov    %r12d,0x8(%rdi,%r9,1)
    1396:	45 89 e1             	mov    %r12d,%r9d
    1399:	46 89 5c 0f 0c       	mov    %r11d,0xc(%rdi,%r9,1)
    139e:	eb 7e                	jmp    141e <guest_func_11+0x1ae>
    13a0:	41 89 c9             	mov    %ecx,%r9d
    13a3:	41 83 c1 14          	add    $0x14,%r9d
    13a7:	45 89 cb             	mov    %r9d,%r11d
    13aa:	46 8b 1c 1f          	mov    (%rdi,%r11,1),%r11d
    13ae:	45 85 db             	test   %r11d,%r11d
    13b1:	75 1b                	jne    13ce <guest_func_11+0x15e>
    13b3:	41 89 c9             	mov    %ecx,%r9d
    13b6:	41 83 c1 10          	add    $0x10,%r9d
    13ba:	45 89 cb             	mov    %r9d,%r11d
    13bd:	46 8b 1c 1f          	mov    (%rdi,%r11,1),%r11d
    13c1:	45 85 db             	test   %r11d,%r11d
    13c4:	75 08                	jne    13ce <guest_func_11+0x15e>
    13c6:	41 89 c1             	mov    %eax,%r9d
    13c9:	45 89 cb             	mov    %r9d,%r11d
    13cc:	eb 50                	jmp    141e <guest_func_11+0x1ae>
    13ce:	eb 20                	jmp    13f0 <guest_func_11+0x180>
    13d0:	45 89 e9             	mov    %r13d,%r9d
    13d3:	45 89 e3             	mov    %r12d,%r11d
    13d6:	45 89 de             	mov    %r11d,%r14d
    13d9:	45 89 cb             	mov    %r9d,%r11d
    13dc:	45 89 f1             	mov    %r14d,%r9d
    13df:	eb 0f                	jmp    13f0 <guest_func_11+0x180>
    13e1:	45 89 e9             	mov    %r13d,%r9d
    13e4:	45 89 e3             	mov    %r12d,%r11d
    13e7:	45 89 de             	mov    %r11d,%r14d
    13ea:	45 89 cb             	mov    %r9d,%r11d
    13ed:	45 89 f1             	mov    %r14d,%r9d
    13f0:	45 89 dc             	mov    %r11d,%r12d
    13f3:	41 83 c4 14          	add    $0x14,%r12d
    13f7:	45 89 e5             	mov    %r12d,%r13d
    13fa:	46 8b 2c 2f          	mov    (%rdi,%r13,1),%r13d
    13fe:	45 85 ed             	test   %r13d,%r13d
    1401:	75 cd                	jne    13d0 <guest_func_11+0x160>
    1403:	45 89 dc             	mov    %r11d,%r12d
    1406:	41 83 c4 10          	add    $0x10,%r12d
    140a:	45 89 dd             	mov    %r11d,%r13d
    140d:	46 8b 6c 2f 10       	mov    0x10(%rdi,%r13,1),%r13d
    1412:	45 85 ed             	test   %r13d,%r13d
    1415:	75 ca                	jne    13e1 <guest_func_11+0x171>
    1417:	45 89 c9             	mov    %r9d,%r9d
    141a:	42 89 04 0f          	mov    %eax,(%rdi,%r9,1)
    141e:	45 85 d2             	test   %r10d,%r10d
    1421:	0f 84 05 01 00 00    	je     152c <guest_func_11+0x2bc>
    1427:	44 8b 4c 17 1c       	mov    0x1c(%rdi,%rdx,1),%r9d
    142c:	45 89 cc             	mov    %r9d,%r12d
    142f:	41 c1 e4 02          	shl    $0x2,%r12d
    1433:	41 81 c4 30 06 00 00 	add    $0x630,%r12d
    143a:	45 89 e4             	mov    %r12d,%r12d
    143d:	46 8b 2c 27          	mov    (%rdi,%r12,1),%r13d
    1441:	44 39 e9             	cmp    %r13d,%ecx
    1444:	75 35                	jne    147b <guest_func_11+0x20b>
    1446:	46 89 1c 27          	mov    %r11d,(%rdi,%r12,1)
    144a:	45 85 db             	test   %r11d,%r11d
    144d:	75 5b                	jne    14aa <guest_func_11+0x23a>
    144f:	ba 04 05 00 00       	mov    $0x504,%edx
    1454:	89 d2                	mov    %edx,%edx
    1456:	44 8b 14 17          	mov    (%rdi,%rdx,1),%r10d
    145a:	41 bb fe ff ff ff    	mov    $0xfffffffe,%r11d
    1460:	41 89 cc             	mov    %ecx,%r12d
    1463:	44 89 c9             	mov    %r9d,%ecx
    1466:	45 89 e1             	mov    %r12d,%r9d
    1469:	41 d3 c3             	rol    %cl,%r11d
    146c:	45 21 da             	and    %r11d,%r10d
    146f:	44 89 14 17          	mov    %r10d,(%rdi,%rdx,1)
    1473:	44 89 c9             	mov    %r9d,%ecx
    1476:	e9 b1 00 00 00       	jmpq   152c <guest_func_11+0x2bc>
    147b:	41 b9 10 00 00 00    	mov    $0x10,%r9d
    1481:	41 bc 14 00 00 00    	mov    $0x14,%r12d
    1487:	45 89 d5             	mov    %r10d,%r13d
    148a:	46 8b 6c 2f 10       	mov    0x10(%rdi,%r13,1),%r13d
    148f:	41 39 cd             	cmp    %ecx,%r13d
    1492:	74 03                	je     1497 <guest_func_11+0x227>
    1494:	45 89 e1             	mov    %r12d,%r9d
    1497:	45 01 d1             	add    %r10d,%r9d
    149a:	45 89 c9             	mov    %r9d,%r9d
    149d:	46 89 1c 0f          	mov    %r11d,(%rdi,%r9,1)
    14a1:	45 85 db             	test   %r11d,%r11d
    14a4:	0f 84 82 00 00 00    	je     152c <guest_func_11+0x2bc>
    14aa:	45 89 d9             	mov    %r11d,%r9d
    14ad:	46 89 54 0f 18       	mov    %r10d,0x18(%rdi,%r9,1)
    14b2:	44 8b 54 17 10       	mov    0x10(%rdi,%rdx,1),%r10d
    14b7:	45 85 d2             	test   %r10d,%r10d
    14ba:	74 0d                	je     14c9 <guest_func_11+0x259>
    14bc:	46 89 54 0f 10       	mov    %r10d,0x10(%rdi,%r9,1)
    14c1:	45 89 d1             	mov    %r10d,%r9d
    14c4:	46 89 5c 0f 18       	mov    %r11d,0x18(%rdi,%r9,1)
    14c9:	8b 54 17 14          	mov    0x14(%rdi,%rdx,1),%edx
    14cd:	85 d2                	test   %edx,%edx
    14cf:	74 5b                	je     152c <guest_func_11+0x2bc>
    14d1:	45 89 d9             	mov    %r11d,%r9d
    14d4:	41 83 c1 14          	add    $0x14,%r9d
    14d8:	45 89 c9             	mov    %r9d,%r9d
    14db:	42 89 14 0f          	mov    %edx,(%rdi,%r9,1)
    14df:	89 d2                	mov    %edx,%edx
    14e1:	44 89 5c 17 18       	mov    %r11d,0x18(%rdi,%rdx,1)
    14e6:	eb 44                	jmp    152c <guest_func_11+0x2bc>
    14e8:	89 f2                	mov    %esi,%edx
    14ea:	44 8b 4c 17 04       	mov    0x4(%rdi,%rdx,1),%r9d
    14ef:	45 89 ca             	mov    %r9d,%r10d
    14f2:	41 83 e2 03          	and    $0x3,%r10d
    14f6:	41 83 fa 03          	cmp    $0x3,%r10d
    14fa:	75 30                	jne    152c <guest_func_11+0x2bc>
    14fc:	41 83 e1 fe          	and    $0xfffffffe,%r9d
    1500:	44 89 4c 17 04       	mov    %r9d,0x4(%rdi,%rdx,1)
    1505:	b8 08 05 00 00       	mov    $0x508,%eax
    150a:	89 c0                	mov    %eax,%eax
    150c:	89 1c 07             	mov    %ebx,(%rdi,%rax,1)
    150f:	89 d8                	mov    %ebx,%eax
    1511:	01 c8                	add    %ecx,%eax
    1513:	89 c0                	mov    %eax,%eax
    1515:	89 1c 07             	mov    %ebx,(%rdi,%rax,1)
    1518:	83 cb 01             	or     $0x1,%ebx
    151b:	89 c8                	mov    %ecx,%eax
    151d:	89 5c 07 04          	mov    %ebx,0x4(%rdi,%rax,1)
    1521:	41 5f                	pop    %r15
    1523:	41 5e                	pop    %r14
    1525:	41 5d                	pop    %r13
    1527:	41 5c                	pop    %r12
    1529:	5b                   	pop    %rbx
    152a:	5d                   	pop    %rbp
    152b:	c3                   	retq   
    152c:	39 ce                	cmp    %ecx,%esi
    152e:	0f 86 a3 05 00 00    	jbe    1ad7 <guest_func_11+0x867>
    1534:	89 f2                	mov    %esi,%edx
    1536:	44 8b 4c 17 04       	mov    0x4(%rdi,%rdx,1),%r9d
    153b:	45 89 ca             	mov    %r9d,%r10d
    153e:	41 83 e2 01          	and    $0x1,%r10d
    1542:	45 85 d2             	test   %r10d,%r10d
    1545:	0f 84 8c 05 00 00    	je     1ad7 <guest_func_11+0x867>
    154b:	45 89 ca             	mov    %r9d,%r10d
    154e:	41 83 e2 02          	and    $0x2,%r10d
    1552:	45 85 d2             	test   %r10d,%r10d
    1555:	0f 85 e2 02 00 00    	jne    183d <guest_func_11+0x5cd>
    155b:	41 ba 18 05 00 00    	mov    $0x518,%r10d
    1561:	45 89 d2             	mov    %r10d,%r10d
    1564:	46 8b 14 17          	mov    (%rdi,%r10,1),%r10d
    1568:	44 39 d6             	cmp    %r10d,%esi
    156b:	75 4c                	jne    15b9 <guest_func_11+0x349>
    156d:	ba 18 05 00 00       	mov    $0x518,%edx
    1572:	89 d2                	mov    %edx,%edx
    1574:	89 0c 17             	mov    %ecx,(%rdi,%rdx,1)
    1577:	ba 0c 05 00 00       	mov    $0x50c,%edx
    157c:	89 d2                	mov    %edx,%edx
    157e:	8b 34 17             	mov    (%rdi,%rdx,1),%esi
    1581:	01 de                	add    %ebx,%esi
    1583:	89 34 17             	mov    %esi,(%rdi,%rdx,1)
    1586:	83 ce 01             	or     $0x1,%esi
    1589:	89 ca                	mov    %ecx,%edx
    158b:	89 74 17 04          	mov    %esi,0x4(%rdi,%rdx,1)
    158f:	ba 14 05 00 00       	mov    $0x514,%edx
    1594:	89 d2                	mov    %edx,%edx
    1596:	8b 1c 17             	mov    (%rdi,%rdx,1),%ebx
    1599:	39 cb                	cmp    %ecx,%ebx
    159b:	0f 85 36 05 00 00    	jne    1ad7 <guest_func_11+0x867>
    15a1:	b9 08 05 00 00       	mov    $0x508,%ecx
    15a6:	89 c9                	mov    %ecx,%ecx
    15a8:	89 04 0f             	mov    %eax,(%rdi,%rcx,1)
    15ab:	89 04 17             	mov    %eax,(%rdi,%rdx,1)
    15ae:	41 5f                	pop    %r15
    15b0:	41 5e                	pop    %r14
    15b2:	41 5d                	pop    %r13
    15b4:	41 5c                	pop    %r12
    15b6:	5b                   	pop    %rbx
    15b7:	5d                   	pop    %rbp
    15b8:	c3                   	retq   
    15b9:	41 ba 14 05 00 00    	mov    $0x514,%r10d
    15bf:	45 89 d2             	mov    %r10d,%r10d
    15c2:	46 8b 1c 17          	mov    (%rdi,%r10,1),%r11d
    15c6:	44 39 de             	cmp    %r11d,%esi
    15c9:	75 38                	jne    1603 <guest_func_11+0x393>
    15cb:	b8 14 05 00 00       	mov    $0x514,%eax
    15d0:	89 c0                	mov    %eax,%eax
    15d2:	89 0c 07             	mov    %ecx,(%rdi,%rax,1)
    15d5:	b8 08 05 00 00       	mov    $0x508,%eax
    15da:	89 c0                	mov    %eax,%eax
    15dc:	8b 14 07             	mov    (%rdi,%rax,1),%edx
    15df:	01 da                	add    %ebx,%edx
    15e1:	89 14 07             	mov    %edx,(%rdi,%rax,1)
    15e4:	89 d0                	mov    %edx,%eax
    15e6:	83 c8 01             	or     $0x1,%eax
    15e9:	89 cb                	mov    %ecx,%ebx
    15eb:	89 44 1f 04          	mov    %eax,0x4(%rdi,%rbx,1)
    15ef:	89 d0                	mov    %edx,%eax
    15f1:	01 c8                	add    %ecx,%eax
    15f3:	89 c0                	mov    %eax,%eax
    15f5:	89 14 07             	mov    %edx,(%rdi,%rax,1)
    15f8:	41 5f                	pop    %r15
    15fa:	41 5e                	pop    %r14
    15fc:	41 5d                	pop    %r13
    15fe:	41 5c                	pop    %r12
    1600:	5b                   	pop    %rbx
    1601:	5d                   	pop    %rbp
    1602:	c3                   	retq   
    1603:	45 89 cb             	mov    %r9d,%r11d
    1606:	41 83 e3 f8          	and    $0xfffffff8,%r11d
    160a:	41 01 db             	add    %ebx,%r11d
    160d:	41 81 f9 ff 00 00 00 	cmp    $0xff,%r9d
    1614:	77 7c                	ja     1692 <guest_func_11+0x422>
    1616:	8b 5c 17 0c          	mov    0xc(%rdi,%rdx,1),%ebx
    161a:	8b 54 17 08          	mov    0x8(%rdi,%rdx,1),%edx
    161e:	44 89 ce             	mov    %r9d,%esi
    1621:	c1 ee 03             	shr    $0x3,%esi
    1624:	41 89 f1             	mov    %esi,%r9d
    1627:	41 c1 e1 03          	shl    $0x3,%r9d
    162b:	41 81 c1 28 05 00 00 	add    $0x528,%r9d
    1632:	44 39 ca             	cmp    %r9d,%edx
    1635:	74 0d                	je     1644 <guest_func_11+0x3d4>
    1637:	41 bc 10 05 00 00    	mov    $0x510,%r12d
    163d:	45 89 e4             	mov    %r12d,%r12d
    1640:	46 8b 24 27          	mov    (%rdi,%r12,1),%r12d
    1644:	39 d3                	cmp    %edx,%ebx
    1646:	75 2a                	jne    1672 <guest_func_11+0x402>
    1648:	ba 00 05 00 00       	mov    $0x500,%edx
    164d:	89 d2                	mov    %edx,%edx
    164f:	8b 1c 17             	mov    (%rdi,%rdx,1),%ebx
    1652:	41 b9 fe ff ff ff    	mov    $0xfffffffe,%r9d
    1658:	41 89 cc             	mov    %ecx,%r12d
    165b:	40 89 f1             	rex mov %esi,%ecx
    165e:	44 89 e6             	mov    %r12d,%esi
    1661:	41 d3 c1             	rol    %cl,%r9d
    1664:	44 21 cb             	and    %r9d,%ebx
    1667:	89 1c 17             	mov    %ebx,(%rdi,%rdx,1)
    166a:	40 89 f1             	rex mov %esi,%ecx
    166d:	e9 96 01 00 00       	jmpq   1808 <guest_func_11+0x598>
    1672:	44 39 cb             	cmp    %r9d,%ebx
    1675:	74 0a                	je     1681 <guest_func_11+0x411>
    1677:	be 10 05 00 00       	mov    $0x510,%esi
    167c:	89 f6                	mov    %esi,%esi
    167e:	8b 34 37             	mov    (%rdi,%rsi,1),%esi
    1681:	89 de                	mov    %ebx,%esi
    1683:	89 54 37 08          	mov    %edx,0x8(%rdi,%rsi,1)
    1687:	89 d2                	mov    %edx,%edx
    1689:	89 5c 17 0c          	mov    %ebx,0xc(%rdi,%rdx,1)
    168d:	e9 76 01 00 00       	jmpq   1808 <guest_func_11+0x598>
    1692:	8b 5c 17 18          	mov    0x18(%rdi,%rdx,1),%ebx
    1696:	44 8b 4c 17 0c       	mov    0xc(%rdi,%rdx,1),%r9d
    169b:	41 39 f1             	cmp    %esi,%r9d
    169e:	74 34                	je     16d4 <guest_func_11+0x464>
    16a0:	41 bc 10 05 00 00    	mov    $0x510,%r12d
    16a6:	45 89 e4             	mov    %r12d,%r12d
    16a9:	46 8b 24 27          	mov    (%rdi,%r12,1),%r12d
    16ad:	44 8b 6c 17 08       	mov    0x8(%rdi,%rdx,1),%r13d
    16b2:	45 39 ec             	cmp    %r13d,%r12d
    16b5:	77 08                	ja     16bf <guest_func_11+0x44f>
    16b7:	45 89 ec             	mov    %r13d,%r12d
    16ba:	46 8b 64 27 0c       	mov    0xc(%rdi,%r12,1),%r12d
    16bf:	45 89 cc             	mov    %r9d,%r12d
    16c2:	46 89 6c 27 08       	mov    %r13d,0x8(%rdi,%r12,1)
    16c7:	45 89 ec             	mov    %r13d,%r12d
    16ca:	46 89 4c 27 0c       	mov    %r9d,0xc(%rdi,%r12,1)
    16cf:	45 89 cc             	mov    %r9d,%r12d
    16d2:	eb 7e                	jmp    1752 <guest_func_11+0x4e2>
    16d4:	41 89 f1             	mov    %esi,%r9d
    16d7:	41 83 c1 14          	add    $0x14,%r9d
    16db:	45 89 cc             	mov    %r9d,%r12d
    16de:	46 8b 24 27          	mov    (%rdi,%r12,1),%r12d
    16e2:	45 85 e4             	test   %r12d,%r12d
    16e5:	75 1b                	jne    1702 <guest_func_11+0x492>
    16e7:	41 89 f1             	mov    %esi,%r9d
    16ea:	41 83 c1 10          	add    $0x10,%r9d
    16ee:	45 89 cc             	mov    %r9d,%r12d
    16f1:	46 8b 24 27          	mov    (%rdi,%r12,1),%r12d
    16f5:	45 85 e4             	test   %r12d,%r12d
    16f8:	75 08                	jne    1702 <guest_func_11+0x492>
    16fa:	41 89 c1             	mov    %eax,%r9d
    16fd:	45 89 cc             	mov    %r9d,%r12d
    1700:	eb 50                	jmp    1752 <guest_func_11+0x4e2>
    1702:	eb 20                	jmp    1724 <guest_func_11+0x4b4>
    1704:	45 89 f1             	mov    %r14d,%r9d
    1707:	45 89 ec             	mov    %r13d,%r12d
    170a:	45 89 e7             	mov    %r12d,%r15d
    170d:	45 89 cc             	mov    %r9d,%r12d
    1710:	45 89 f9             	mov    %r15d,%r9d
    1713:	eb 0f                	jmp    1724 <guest_func_11+0x4b4>
    1715:	45 89 f1             	mov    %r14d,%r9d
    1718:	45 89 ec             	mov    %r13d,%r12d
    171b:	45 89 e7             	mov    %r12d,%r15d
    171e:	45 89 cc             	mov    %r9d,%r12d
    1721:	45 89 f9             	mov    %r15d,%r9d
    1724:	45 89 e5             	mov    %r12d,%r13d
    1727:	41 83 c5 14          	add    $0x14,%r13d
    172b:	45 89 ee             	mov    %r13d,%r14d
    172e:	46 8b 34 37          	mov    (%rdi,%r14,1),%r14d
    1732:	45 85 f6             	test   %r14d,%r14d
    1735:	75 cd                	jne    1704 <guest_func_11+0x494>
    1737:	45 89 e5             	mov    %r12d,%r13d
    173a:	41 83 c5 10          	add    $0x10,%r13d
    173e:	45 89 e6             	mov    %r12d,%r14d
    1741:	46 8b 74 37 10       	mov    0x10(%rdi,%r14,1),%r14d
    1746:	45 85 f6             	test   %r14d,%r14d
    1749:	75 ca                	jne    1715 <guest_func_11+0x4a5>
    174b:	45 89 c9             	mov    %r9d,%r9d
    174e:	42 89 04 0f          	mov    %eax,(%rdi,%r9,1)
    1752:	85 db                	test   %ebx,%ebx
    1754:	0f 84 ae 00 00 00    	je     1808 <guest_func_11+0x598>
    175a:	44 8b 4c 17 1c       	mov    0x1c(%rdi,%rdx,1),%r9d
    175f:	45 89 cd             	mov    %r9d,%r13d
    1762:	41 c1 e5 02          	shl    $0x2,%r13d
    1766:	41 81 c5 30 06 00 00 	add    $0x630,%r13d
    176d:	45 89 ed             	mov    %r13d,%r13d
    1770:	46 8b 34 2f          	mov    (%rdi,%r13,1),%r14d
    1774:	44 39 f6             	cmp    %r14d,%esi
    1777:	75 2d                	jne    17a6 <guest_func_11+0x536>
    1779:	46 89 24 2f          	mov    %r12d,(%rdi,%r13,1)
    177d:	45 85 e4             	test   %r12d,%r12d
    1780:	75 52                	jne    17d4 <guest_func_11+0x564>
    1782:	ba 04 05 00 00       	mov    $0x504,%edx
    1787:	89 d2                	mov    %edx,%edx
    1789:	8b 1c 17             	mov    (%rdi,%rdx,1),%ebx
    178c:	be fe ff ff ff       	mov    $0xfffffffe,%esi
    1791:	41 89 cc             	mov    %ecx,%r12d
    1794:	44 89 c9             	mov    %r9d,%ecx
    1797:	45 89 e1             	mov    %r12d,%r9d
    179a:	d3 c6                	rol    %cl,%esi
    179c:	21 f3                	and    %esi,%ebx
    179e:	89 1c 17             	mov    %ebx,(%rdi,%rdx,1)
    17a1:	44 89 c9             	mov    %r9d,%ecx
    17a4:	eb 62                	jmp    1808 <guest_func_11+0x598>
    17a6:	41 b9 10 00 00 00    	mov    $0x10,%r9d
    17ac:	41 bd 14 00 00 00    	mov    $0x14,%r13d
    17b2:	41 89 de             	mov    %ebx,%r14d
    17b5:	46 8b 74 37 10       	mov    0x10(%rdi,%r14,1),%r14d
    17ba:	41 39 f6             	cmp    %esi,%r14d
    17bd:	74 06                	je     17c5 <guest_func_11+0x555>
    17bf:	44 89 ee             	mov    %r13d,%esi
    17c2:	41 89 f1             	mov    %esi,%r9d
    17c5:	41 01 d9             	add    %ebx,%r9d
    17c8:	44 89 ce             	mov    %r9d,%esi
    17cb:	44 89 24 37          	mov    %r12d,(%rdi,%rsi,1)
    17cf:	45 85 e4             	test   %r12d,%r12d
    17d2:	74 34                	je     1808 <guest_func_11+0x598>
    17d4:	44 89 e6             	mov    %r12d,%esi
    17d7:	89 5c 37 18          	mov    %ebx,0x18(%rdi,%rsi,1)
    17db:	8b 5c 17 10          	mov    0x10(%rdi,%rdx,1),%ebx
    17df:	85 db                	test   %ebx,%ebx
    17e1:	74 0b                	je     17ee <guest_func_11+0x57e>
    17e3:	89 5c 37 10          	mov    %ebx,0x10(%rdi,%rsi,1)
    17e7:	89 db                	mov    %ebx,%ebx
    17e9:	44 89 64 1f 18       	mov    %r12d,0x18(%rdi,%rbx,1)
    17ee:	8b 54 17 14          	mov    0x14(%rdi,%rdx,1),%edx
    17f2:	85 d2                	test   %edx,%edx
    17f4:	74 12                	je     1808 <guest_func_11+0x598>
    17f6:	44 89 e3             	mov    %r12d,%ebx
    17f9:	83 c3 14             	add    $0x14,%ebx
    17fc:	89 db                	mov    %ebx,%ebx
    17fe:	89 14 1f             	mov    %edx,(%rdi,%rbx,1)
    1801:	89 d2                	mov    %edx,%edx
    1803:	44 89 64 17 18       	mov    %r12d,0x18(%rdi,%rdx,1)
    1808:	44 89 da             	mov    %r11d,%edx
    180b:	01 ca                	add    %ecx,%edx
    180d:	89 d2                	mov    %edx,%edx
    180f:	44 89 1c 17          	mov    %r11d,(%rdi,%rdx,1)
    1813:	44 89 da             	mov    %r11d,%edx
    1816:	83 ca 01             	or     $0x1,%edx
    1819:	89 cb                	mov    %ecx,%ebx
    181b:	89 54 1f 04          	mov    %edx,0x4(%rdi,%rbx,1)
    181f:	42 8b 14 17          	mov    (%rdi,%r10,1),%edx
    1823:	39 ca                	cmp    %ecx,%edx
    1825:	75 35                	jne    185c <guest_func_11+0x5ec>
    1827:	b8 08 05 00 00       	mov    $0x508,%eax
    182c:	89 c0                	mov    %eax,%eax
    182e:	44 89 1c 07          	mov    %r11d,(%rdi,%rax,1)
    1832:	41 5f                	pop    %r15
    1834:	41 5e                	pop    %r14
    1836:	41 5d                	pop    %r13
    1838:	41 5c                	pop    %r12
    183a:	5b                   	pop    %rbx
    183b:	5d                   	pop    %rbp
    183c:	c3                   	retq   
    183d:	41 83 e1 fe          	and    $0xfffffffe,%r9d
    1841:	44 89 4c 17 04       	mov    %r9d,0x4(%rdi,%rdx,1)
    1846:	89 da                	mov    %ebx,%edx
    1848:	01 ca                	add    %ecx,%edx
    184a:	89 d2                	mov    %edx,%edx
    184c:	89 1c 17             	mov    %ebx,(%rdi,%rdx,1)
    184f:	89 da                	mov    %ebx,%edx
    1851:	83 ca 01             	or     $0x1,%edx
    1854:	89 ce                	mov    %ecx,%esi
    1856:	89 54 37 04          	mov    %edx,0x4(%rdi,%rsi,1)
    185a:	eb 03                	jmp    185f <guest_func_11+0x5ef>
    185c:	44 89 db             	mov    %r11d,%ebx
    185f:	81 fb ff 00 00 00    	cmp    $0xff,%ebx
    1865:	77 68                	ja     18cf <guest_func_11+0x65f>
    1867:	c1 eb 03             	shr    $0x3,%ebx
    186a:	89 d8                	mov    %ebx,%eax
    186c:	c1 e0 03             	shl    $0x3,%eax
    186f:	81 c0 28 05 00 00    	add    $0x528,%eax
    1875:	ba 00 05 00 00       	mov    $0x500,%edx
    187a:	89 d2                	mov    %edx,%edx
    187c:	8b 34 17             	mov    (%rdi,%rdx,1),%esi
    187f:	41 89 c9             	mov    %ecx,%r9d
    1882:	40 89 d9             	rex mov %ebx,%ecx
    1885:	44 89 cb             	mov    %r9d,%ebx
    1888:	41 d3 e0             	shl    %cl,%r8d
    188b:	89 f1                	mov    %esi,%ecx
    188d:	44 21 c1             	and    %r8d,%ecx
    1890:	41 89 c9             	mov    %ecx,%r9d
    1893:	40 89 d9             	rex mov %ebx,%ecx
    1896:	44 89 cb             	mov    %r9d,%ebx
    1899:	85 db                	test   %ebx,%ebx
    189b:	75 0b                	jne    18a8 <guest_func_11+0x638>
    189d:	41 09 f0             	or     %esi,%r8d
    18a0:	44 89 04 17          	mov    %r8d,(%rdi,%rdx,1)
    18a4:	89 c2                	mov    %eax,%edx
    18a6:	eb 06                	jmp    18ae <guest_func_11+0x63e>
    18a8:	89 c2                	mov    %eax,%edx
    18aa:	8b 54 17 08          	mov    0x8(%rdi,%rdx,1),%edx
    18ae:	89 d3                	mov    %edx,%ebx
    18b0:	89 4c 1f 0c          	mov    %ecx,0xc(%rdi,%rbx,1)
    18b4:	89 c3                	mov    %eax,%ebx
    18b6:	89 4c 1f 08          	mov    %ecx,0x8(%rdi,%rbx,1)
    18ba:	89 c9                	mov    %ecx,%ecx
    18bc:	89 44 0f 0c          	mov    %eax,0xc(%rdi,%rcx,1)
    18c0:	89 54 0f 08          	mov    %edx,0x8(%rdi,%rcx,1)
    18c4:	41 5f                	pop    %r15
    18c6:	41 5e                	pop    %r14
    18c8:	41 5d                	pop    %r13
    18ca:	41 5c                	pop    %r12
    18cc:	5b                   	pop    %rbx
    18cd:	5d                   	pop    %rbp
    18ce:	c3                   	retq   
    18cf:	31 d2                	xor    %edx,%edx
    18d1:	89 ce                	mov    %ecx,%esi
    18d3:	48 89 54 37 10       	mov    %rdx,0x10(%rdi,%rsi,1)
    18d8:	89 ca                	mov    %ecx,%edx
    18da:	83 c2 1c             	add    $0x1c,%edx
    18dd:	41 89 d9             	mov    %ebx,%r9d
    18e0:	41 c1 e9 08          	shr    $0x8,%r9d
    18e4:	45 85 c9             	test   %r9d,%r9d
    18e7:	0f 84 a2 00 00 00    	je     198f <guest_func_11+0x71f>
    18ed:	41 ba 1f 00 00 00    	mov    $0x1f,%r10d
    18f3:	81 fb ff ff ff 00    	cmp    $0xffffff,%ebx
    18f9:	0f 87 95 00 00 00    	ja     1994 <guest_func_11+0x724>
    18ff:	45 89 ca             	mov    %r9d,%r10d
    1902:	41 81 c2 00 ff 0f 00 	add    $0xfff00,%r10d
    1909:	41 c1 ea 10          	shr    $0x10,%r10d
    190d:	41 83 e2 08          	and    $0x8,%r10d
    1911:	41 89 cb             	mov    %ecx,%r11d
    1914:	44 89 d1             	mov    %r10d,%ecx
    1917:	45 89 da             	mov    %r11d,%r10d
    191a:	41 d3 e1             	shl    %cl,%r9d
    191d:	45 89 cb             	mov    %r9d,%r11d
    1920:	41 81 c3 00 f0 07 00 	add    $0x7f000,%r11d
    1927:	41 c1 eb 10          	shr    $0x10,%r11d
    192b:	41 83 e3 04          	and    $0x4,%r11d
    192f:	41 89 cc             	mov    %ecx,%r12d
    1932:	44 89 d9             	mov    %r11d,%ecx
    1935:	45 89 e3             	mov    %r12d,%r11d
    1938:	41 d3 e1             	shl    %cl,%r9d
    193b:	45 89 cc             	mov    %r9d,%r12d
    193e:	41 81 c4 00 c0 03 00 	add    $0x3c000,%r12d
    1945:	41 c1 ec 10          	shr    $0x10,%r12d
    1949:	41 83 e4 02          	and    $0x2,%r12d
    194d:	41 89 cd             	mov    %ecx,%r13d
    1950:	44 89 e1             	mov    %r12d,%ecx
    1953:	45 89 ec             	mov    %r13d,%r12d
    1956:	41 d3 e1             	shl    %cl,%r9d
    1959:	41 c1 e9 0f          	shr    $0xf,%r9d
    195d:	45 09 dc             	or     %r11d,%r12d
    1960:	41 09 cc             	or     %ecx,%r12d
    1963:	45 29 e1             	sub    %r12d,%r9d
    1966:	44 89 c9             	mov    %r9d,%ecx
    1969:	c1 e1 01             	shl    $0x1,%ecx
    196c:	41 83 c1 15          	add    $0x15,%r9d
    1970:	41 89 db             	mov    %ebx,%r11d
    1973:	41 89 cc             	mov    %ecx,%r12d
    1976:	44 89 c9             	mov    %r9d,%ecx
    1979:	45 89 e1             	mov    %r12d,%r9d
    197c:	41 d3 eb             	shr    %cl,%r11d
    197f:	41 83 e3 01          	and    $0x1,%r11d
    1983:	45 09 d9             	or     %r11d,%r9d
    1986:	41 83 c1 1c          	add    $0x1c,%r9d
    198a:	44 89 d1             	mov    %r10d,%ecx
    198d:	eb 08                	jmp    1997 <guest_func_11+0x727>
    198f:	41 89 c1             	mov    %eax,%r9d
    1992:	eb 03                	jmp    1997 <guest_func_11+0x727>
    1994:	45 89 d1             	mov    %r10d,%r9d
    1997:	89 d2                	mov    %edx,%edx
    1999:	44 89 0c 17          	mov    %r9d,(%rdi,%rdx,1)
    199d:	44 89 ca             	mov    %r9d,%edx
    19a0:	c1 e2 02             	shl    $0x2,%edx
    19a3:	81 c2 30 06 00 00    	add    $0x630,%edx
    19a9:	41 ba 04 05 00 00    	mov    $0x504,%r10d
    19af:	45 89 d2             	mov    %r10d,%r10d
    19b2:	46 8b 1c 17          	mov    (%rdi,%r10,1),%r11d
    19b6:	45 89 c4             	mov    %r8d,%r12d
    19b9:	41 89 c8             	mov    %ecx,%r8d
    19bc:	44 89 c9             	mov    %r9d,%ecx
    19bf:	41 d3 e4             	shl    %cl,%r12d
    19c2:	45 89 d9             	mov    %r11d,%r9d
    19c5:	45 21 e1             	and    %r12d,%r9d
    19c8:	45 89 cd             	mov    %r9d,%r13d
    19cb:	41 89 c9             	mov    %ecx,%r9d
    19ce:	44 89 c1             	mov    %r8d,%ecx
    19d1:	45 89 e8             	mov    %r13d,%r8d
    19d4:	45 85 c0             	test   %r8d,%r8d
    19d7:	75 23                	jne    19fc <guest_func_11+0x78c>
    19d9:	89 d0                	mov    %edx,%eax
    19db:	89 0c 07             	mov    %ecx,(%rdi,%rax,1)
    19de:	45 09 e3             	or     %r12d,%r11d
    19e1:	46 89 1c 17          	mov    %r11d,(%rdi,%r10,1)
    19e5:	89 c8                	mov    %ecx,%eax
    19e7:	83 c0 18             	add    $0x18,%eax
    19ea:	89 c0                	mov    %eax,%eax
    19ec:	89 14 07             	mov    %edx,(%rdi,%rax,1)
    19ef:	89 4c 37 08          	mov    %ecx,0x8(%rdi,%rsi,1)
    19f3:	89 4c 37 0c          	mov    %ecx,0xc(%rdi,%rsi,1)
    19f7:	e9 a7 00 00 00       	jmpq   1aa3 <guest_func_11+0x833>
    19fc:	41 b8 19 00 00 00    	mov    $0x19,%r8d
    1a02:	45 89 ca             	mov    %r9d,%r10d
    1a05:	41 c1 ea 01          	shr    $0x1,%r10d
    1a09:	45 29 d0             	sub    %r10d,%r8d
    1a0c:	41 83 f9 1f          	cmp    $0x1f,%r9d
    1a10:	74 02                	je     1a14 <guest_func_11+0x7a4>
    1a12:	eb 03                	jmp    1a17 <guest_func_11+0x7a7>
    1a14:	41 89 c0             	mov    %eax,%r8d
    1a17:	41 89 d9             	mov    %ebx,%r9d
    1a1a:	41 89 ca             	mov    %ecx,%r10d
    1a1d:	44 89 c1             	mov    %r8d,%ecx
    1a20:	45 89 d0             	mov    %r10d,%r8d
    1a23:	41 d3 e1             	shl    %cl,%r9d
    1a26:	89 d1                	mov    %edx,%ecx
    1a28:	8b 0c 0f             	mov    (%rdi,%rcx,1),%ecx
    1a2b:	40 89 ca             	rex mov %ecx,%edx
    1a2e:	44 89 c1             	mov    %r8d,%ecx
    1a31:	eb 03                	jmp    1a36 <guest_func_11+0x7c6>
    1a33:	44 89 d2             	mov    %r10d,%edx
    1a36:	41 89 d0             	mov    %edx,%r8d
    1a39:	46 8b 54 07 04       	mov    0x4(%rdi,%r8,1),%r10d
    1a3e:	41 83 e2 f8          	and    $0xfffffff8,%r10d
    1a42:	41 39 da             	cmp    %ebx,%r10d
    1a45:	74 3a                	je     1a81 <guest_func_11+0x811>
    1a47:	45 89 c8             	mov    %r9d,%r8d
    1a4a:	41 c1 e8 1d          	shr    $0x1d,%r8d
    1a4e:	41 c1 e1 01          	shl    $0x1,%r9d
    1a52:	41 83 e0 04          	and    $0x4,%r8d
    1a56:	41 01 d0             	add    %edx,%r8d
    1a59:	41 83 c0 10          	add    $0x10,%r8d
    1a5d:	45 89 c0             	mov    %r8d,%r8d
    1a60:	46 8b 14 07          	mov    (%rdi,%r8,1),%r10d
    1a64:	45 85 d2             	test   %r10d,%r10d
    1a67:	75 ca                	jne    1a33 <guest_func_11+0x7c3>
    1a69:	42 89 0c 07          	mov    %ecx,(%rdi,%r8,1)
    1a6d:	89 c8                	mov    %ecx,%eax
    1a6f:	83 c0 18             	add    $0x18,%eax
    1a72:	89 c0                	mov    %eax,%eax
    1a74:	89 14 07             	mov    %edx,(%rdi,%rax,1)
    1a77:	89 4c 37 0c          	mov    %ecx,0xc(%rdi,%rsi,1)
    1a7b:	89 4c 37 08          	mov    %ecx,0x8(%rdi,%rsi,1)
    1a7f:	eb 22                	jmp    1aa3 <guest_func_11+0x833>
    1a81:	42 8b 5c 07 08       	mov    0x8(%rdi,%r8,1),%ebx
    1a86:	42 89 4c 07 08       	mov    %ecx,0x8(%rdi,%r8,1)
    1a8b:	41 89 d8             	mov    %ebx,%r8d
    1a8e:	42 89 4c 07 0c       	mov    %ecx,0xc(%rdi,%r8,1)
    1a93:	83 c1 18             	add    $0x18,%ecx
    1a96:	89 c9                	mov    %ecx,%ecx
    1a98:	89 04 0f             	mov    %eax,(%rdi,%rcx,1)
    1a9b:	89 5c 37 08          	mov    %ebx,0x8(%rdi,%rsi,1)
    1a9f:	89 54 37 0c          	mov    %edx,0xc(%rdi,%rsi,1)
    1aa3:	b8 20 05 00 00       	mov    $0x520,%eax
    1aa8:	89 c0                	mov    %eax,%eax
    1aaa:	8b 0c 07             	mov    (%rdi,%rax,1),%ecx
    1aad:	ba ff ff ff ff       	mov    $0xffffffff,%edx
    1ab2:	83 c1 ff             	add    $0xffffffff,%ecx
    1ab5:	89 0c 07             	mov    %ecx,(%rdi,%rax,1)
    1ab8:	85 c9                	test   %ecx,%ecx
    1aba:	75 1b                	jne    1ad7 <guest_func_11+0x867>
    1abc:	b9 c8 06 00 00       	mov    $0x6c8,%ecx
    1ac1:	eb 03                	jmp    1ac6 <guest_func_11+0x856>
    1ac3:	40 89 d9             	rex mov %ebx,%ecx
    1ac6:	89 c9                	mov    %ecx,%ecx
    1ac8:	8b 0c 0f             	mov    (%rdi,%rcx,1),%ecx
    1acb:	89 cb                	mov    %ecx,%ebx
    1acd:	83 c3 08             	add    $0x8,%ebx
    1ad0:	85 c9                	test   %ecx,%ecx
    1ad2:	75 ef                	jne    1ac3 <guest_func_11+0x853>
    1ad4:	89 14 07             	mov    %edx,(%rdi,%rax,1)
    1ad7:	41 5f                	pop    %r15
    1ad9:	41 5e                	pop    %r14
    1adb:	41 5d                	pop    %r13
    1add:	41 5c                	pop    %r12
    1adf:	5b                   	pop    %rbx
    1ae0:	5d                   	pop    %rbp
    1ae1:	c3                   	retq   
	...

0000000000001af0 <guest_func___wasm_call_ctors>:
    1af0:	55                   	push   %rbp
    1af1:	48 89 e5             	mov    %rsp,%rbp
    1af4:	5d                   	pop    %rbp
    1af5:	c3                   	retq   
	...

0000000000001b00 <guest_func_blake2b_init>:
    1b00:	55                   	push   %rbp
    1b01:	48 89 e5             	mov    %rsp,%rbp
    1b04:	53                   	push   %rbx
    1b05:	41 54                	push   %r12
    1b07:	41 55                	push   %r13
    1b09:	41 56                	push   %r14
    1b0b:	41 57                	push   %r15
    1b0d:	48 83 ec 38          	sub    $0x38,%rsp
    1b11:	48 89 bc 24 18 00 00 	mov    %rdi,0x18(%rsp)
    1b18:	00 
    1b19:	89 b4 24 34 00 00 00 	mov    %esi,0x34(%rsp)
    1b20:	89 8c 24 2c 00 00 00 	mov    %ecx,0x2c(%rsp)
    1b27:	44 89 84 24 28 00 00 	mov    %r8d,0x28(%rsp)
    1b2e:	00 
    1b2f:	31 c0                	xor    %eax,%eax
    1b31:	89 84 24 24 00 00 00 	mov    %eax,0x24(%rsp)
    1b38:	31 c0                	xor    %eax,%eax
    1b3a:	b9 ff ff ff ff       	mov    $0xffffffff,%ecx
    1b3f:	89 d3                	mov    %edx,%ebx
    1b41:	83 c3 ff             	add    $0xffffffff,%ebx
    1b44:	83 fb 3f             	cmp    $0x3f,%ebx
    1b47:	0f 87 86 03 00 00    	ja     1ed3 <guest_func_blake2b_init+0x3d3>
    1b4d:	45 89 c7             	mov    %r8d,%r15d
    1b50:	41 83 ff 40          	cmp    $0x40,%r15d
    1b54:	0f 87 82 03 00 00    	ja     1edc <guest_func_blake2b_init+0x3dc>
    1b5a:	b9 80 00 00 00       	mov    $0x80,%ecx
    1b5f:	89 8c 24 30 00 00 00 	mov    %ecx,0x30(%rsp)
    1b66:	41 89 f7             	mov    %esi,%r15d
    1b69:	41 81 c7 80 00 00 00 	add    $0x80,%r15d
    1b70:	b9 00 04 00 00       	mov    $0x400,%ecx
    1b75:	89 c9                	mov    %ecx,%ecx
    1b77:	49 89 fe             	mov    %rdi,%r14
    1b7a:	49 8b 0c 0e          	mov    (%r14,%rcx,1),%rcx
    1b7e:	44 89 fb             	mov    %r15d,%ebx
    1b81:	49 89 ff             	mov    %rdi,%r15
    1b84:	49 89 0c 1f          	mov    %rcx,(%r15,%rbx,1)
    1b88:	41 89 f7             	mov    %esi,%r15d
    1b8b:	44 89 f9             	mov    %r15d,%ecx
    1b8e:	49 89 ff             	mov    %rdi,%r15
    1b91:	49 89 84 0f c0 00 00 	mov    %rax,0xc0(%r15,%rcx,1)
    1b98:	00 
    1b99:	41 89 f7             	mov    %esi,%r15d
    1b9c:	41 81 c7 b8 00 00 00 	add    $0xb8,%r15d
    1ba3:	be 38 04 00 00       	mov    $0x438,%esi
    1ba8:	89 f6                	mov    %esi,%esi
    1baa:	49 8b 34 36          	mov    (%r14,%rsi,1),%rsi
    1bae:	44 89 ff             	mov    %r15d,%edi
    1bb1:	4d 89 f7             	mov    %r14,%r15
    1bb4:	49 89 34 3f          	mov    %rsi,(%r15,%rdi,1)
    1bb8:	44 8b bc 24 34 00 00 	mov    0x34(%rsp),%r15d
    1bbf:	00 
    1bc0:	41 81 c7 b0 00 00 00 	add    $0xb0,%r15d
    1bc7:	be 30 04 00 00       	mov    $0x430,%esi
    1bcc:	89 f6                	mov    %esi,%esi
    1bce:	49 8b 34 36          	mov    (%r14,%rsi,1),%rsi
    1bd2:	44 89 ff             	mov    %r15d,%edi
    1bd5:	4d 89 f7             	mov    %r14,%r15
    1bd8:	49 89 34 3f          	mov    %rsi,(%r15,%rdi,1)
    1bdc:	44 8b bc 24 34 00 00 	mov    0x34(%rsp),%r15d
    1be3:	00 
    1be4:	41 81 c7 a8 00 00 00 	add    $0xa8,%r15d
    1beb:	be 28 04 00 00       	mov    $0x428,%esi
    1bf0:	89 f6                	mov    %esi,%esi
    1bf2:	49 8b 34 36          	mov    (%r14,%rsi,1),%rsi
    1bf6:	44 89 ff             	mov    %r15d,%edi
    1bf9:	4d 89 f7             	mov    %r14,%r15
    1bfc:	49 89 34 3f          	mov    %rsi,(%r15,%rdi,1)
    1c00:	44 8b bc 24 34 00 00 	mov    0x34(%rsp),%r15d
    1c07:	00 
    1c08:	41 81 c7 a0 00 00 00 	add    $0xa0,%r15d
    1c0f:	be 20 04 00 00       	mov    $0x420,%esi
    1c14:	89 f6                	mov    %esi,%esi
    1c16:	49 8b 34 36          	mov    (%r14,%rsi,1),%rsi
    1c1a:	44 89 ff             	mov    %r15d,%edi
    1c1d:	4d 89 f7             	mov    %r14,%r15
    1c20:	49 89 34 3f          	mov    %rsi,(%r15,%rdi,1)
    1c24:	44 8b bc 24 34 00 00 	mov    0x34(%rsp),%r15d
    1c2b:	00 
    1c2c:	41 81 c7 98 00 00 00 	add    $0x98,%r15d
    1c33:	be 18 04 00 00       	mov    $0x418,%esi
    1c38:	89 f6                	mov    %esi,%esi
    1c3a:	49 8b 34 36          	mov    (%r14,%rsi,1),%rsi
    1c3e:	44 89 ff             	mov    %r15d,%edi
    1c41:	4d 89 f7             	mov    %r14,%r15
    1c44:	49 89 34 3f          	mov    %rsi,(%r15,%rdi,1)
    1c48:	44 8b bc 24 34 00 00 	mov    0x34(%rsp),%r15d
    1c4f:	00 
    1c50:	41 81 c7 90 00 00 00 	add    $0x90,%r15d
    1c57:	be 10 04 00 00       	mov    $0x410,%esi
    1c5c:	89 f6                	mov    %esi,%esi
    1c5e:	49 8b 34 36          	mov    (%r14,%rsi,1),%rsi
    1c62:	44 89 ff             	mov    %r15d,%edi
    1c65:	4d 89 f7             	mov    %r14,%r15
    1c68:	49 89 34 3f          	mov    %rsi,(%r15,%rdi,1)
    1c6c:	44 8b bc 24 34 00 00 	mov    0x34(%rsp),%r15d
    1c73:	00 
    1c74:	41 81 c7 88 00 00 00 	add    $0x88,%r15d
    1c7b:	be 08 04 00 00       	mov    $0x408,%esi
    1c80:	89 f6                	mov    %esi,%esi
    1c82:	49 8b 34 36          	mov    (%r14,%rsi,1),%rsi
    1c86:	44 89 ff             	mov    %r15d,%edi
    1c89:	4d 89 f7             	mov    %r14,%r15
    1c8c:	49 89 34 3f          	mov    %rsi,(%r15,%rdi,1)
    1c90:	44 8b bc 24 34 00 00 	mov    0x34(%rsp),%r15d
    1c97:	00 
    1c98:	41 81 c7 c8 00 00 00 	add    $0xc8,%r15d
    1c9f:	44 89 fe             	mov    %r15d,%esi
    1ca2:	4d 89 f7             	mov    %r14,%r15
    1ca5:	49 89 04 37          	mov    %rax,(%r15,%rsi,1)
    1ca9:	44 8b bc 24 34 00 00 	mov    0x34(%rsp),%r15d
    1cb0:	00 
    1cb1:	41 81 c7 d0 00 00 00 	add    $0xd0,%r15d
    1cb8:	44 89 f8             	mov    %r15d,%eax
    1cbb:	44 8b bc 24 24 00 00 	mov    0x24(%rsp),%r15d
    1cc2:	00 
    1cc3:	45 89 3c 06          	mov    %r15d,(%r14,%rax,1)
    1cc7:	45 89 c7             	mov    %r8d,%r15d
    1cca:	41 c1 e7 08          	shl    $0x8,%r15d
    1cce:	41 31 d7             	xor    %edx,%r15d
    1cd1:	41 81 f7 00 00 01 01 	xor    $0x1010000,%r15d
    1cd8:	44 89 f8             	mov    %r15d,%eax
    1cdb:	48 be 08 c9 bc f3 67 	movabs $0x6a09e667f3bcc908,%rsi
    1ce2:	e6 09 6a 
    1ce5:	48 31 f0             	xor    %rsi,%rax
    1ce8:	4d 89 f7             	mov    %r14,%r15
    1ceb:	49 89 04 1f          	mov    %rax,(%r15,%rbx,1)
    1cef:	41 89 94 0f d4 00 00 	mov    %edx,0xd4(%r15,%rcx,1)
    1cf6:	00 
    1cf7:	44 8b bc 24 34 00 00 	mov    0x34(%rsp),%r15d
    1cfe:	00 
    1cff:	45 89 c6             	mov    %r8d,%r14d
    1d02:	45 01 f7             	add    %r14d,%r15d
    1d05:	44 8b b4 24 30 00 00 	mov    0x30(%rsp),%r14d
    1d0c:	00 
    1d0d:	45 89 c5             	mov    %r8d,%r13d
    1d10:	45 29 ee             	sub    %r13d,%r14d
    1d13:	4c 8b ac 24 18 00 00 	mov    0x18(%rsp),%r13
    1d1a:	00 
    1d1b:	44 8b a4 24 24 00 00 	mov    0x24(%rsp),%r12d
    1d22:	00 
    1d23:	4c 89 ef             	mov    %r13,%rdi
    1d26:	44 89 fe             	mov    %r15d,%esi
    1d29:	44 89 e2             	mov    %r12d,%edx
    1d2c:	44 89 f1             	mov    %r14d,%ecx
    1d2f:	e8 0c 5c 00 00       	callq  7940 <guest_func_memset>
    1d34:	44 8b bc 24 28 00 00 	mov    0x28(%rsp),%r15d
    1d3b:	00 
    1d3c:	45 85 ff             	test   %r15d,%r15d
    1d3f:	0f 84 9e 01 00 00    	je     1ee3 <guest_func_blake2b_init+0x3e3>
    1d45:	44 8b bc 24 34 00 00 	mov    0x34(%rsp),%r15d
    1d4c:	00 
    1d4d:	41 81 c7 c0 00 00 00 	add    $0xc0,%r15d
    1d54:	44 89 f8             	mov    %r15d,%eax
    1d57:	48 89 84 24 10 00 00 	mov    %rax,0x10(%rsp)
    1d5e:	00 
    1d5f:	44 8b bc 24 24 00 00 	mov    0x24(%rsp),%r15d
    1d66:	00 
    1d67:	44 89 bc 24 20 00 00 	mov    %r15d,0x20(%rsp)
    1d6e:	00 
    1d6f:	44 8b bc 24 34 00 00 	mov    0x34(%rsp),%r15d
    1d76:	00 
    1d77:	44 89 f8             	mov    %r15d,%eax
    1d7a:	48 89 84 24 08 00 00 	mov    %rax,0x8(%rsp)
    1d81:	00 
    1d82:	4c 8b bc 24 18 00 00 	mov    0x18(%rsp),%r15
    1d89:	00 
    1d8a:	49 89 c6             	mov    %rax,%r14
    1d8d:	43 8b 84 37 d0 00 00 	mov    0xd0(%r15,%r14,1),%eax
    1d94:	00 
    1d95:	81 f8 80 00 00 00    	cmp    $0x80,%eax
    1d9b:	0f 85 85 00 00 00    	jne    1e26 <guest_func_blake2b_init+0x326>
    1da1:	4c 8b b4 24 10 00 00 	mov    0x10(%rsp),%r14
    1da8:	00 
    1da9:	4b 8b 04 37          	mov    (%r15,%r14,1),%rax
    1dad:	48 89 c1             	mov    %rax,%rcx
    1db0:	48 81 c1 80 00 00 00 	add    $0x80,%rcx
    1db7:	4b 89 0c 37          	mov    %rcx,(%r15,%r14,1)
    1dbb:	48 83 f8 80          	cmp    $0xffffffffffffff80,%rax
    1dbf:	72 1c                	jb     1ddd <guest_func_blake2b_init+0x2dd>
    1dc1:	4c 8b b4 24 08 00 00 	mov    0x8(%rsp),%r14
    1dc8:	00 
    1dc9:	4b 8b 84 37 c8 00 00 	mov    0xc8(%r15,%r14,1),%rax
    1dd0:	00 
    1dd1:	48 83 c0 01          	add    $0x1,%rax
    1dd5:	4b 89 84 37 c8 00 00 	mov    %rax,0xc8(%r15,%r14,1)
    1ddc:	00 
    1ddd:	4c 8b bc 24 18 00 00 	mov    0x18(%rsp),%r15
    1de4:	00 
    1de5:	44 8b b4 24 34 00 00 	mov    0x34(%rsp),%r14d
    1dec:	00 
    1ded:	44 8b ac 24 24 00 00 	mov    0x24(%rsp),%r13d
    1df4:	00 
    1df5:	4c 89 ff             	mov    %r15,%rdi
    1df8:	44 89 f6             	mov    %r14d,%esi
    1dfb:	44 89 ea             	mov    %r13d,%edx
    1dfe:	e8 7d 35 00 00       	callq  5380 <guest_func_2>
    1e03:	44 8b bc 24 24 00 00 	mov    0x24(%rsp),%r15d
    1e0a:	00 
    1e0b:	4c 8b b4 24 18 00 00 	mov    0x18(%rsp),%r14
    1e12:	00 
    1e13:	4c 8b ac 24 08 00 00 	mov    0x8(%rsp),%r13
    1e1a:	00 
    1e1b:	47 89 bc 2e d0 00 00 	mov    %r15d,0xd0(%r14,%r13,1)
    1e22:	00 
    1e23:	44 89 f8             	mov    %r15d,%eax
    1e26:	44 8b bc 24 2c 00 00 	mov    0x2c(%rsp),%r15d
    1e2d:	00 
    1e2e:	44 89 f9             	mov    %r15d,%ecx
    1e31:	4c 8b bc 24 18 00 00 	mov    0x18(%rsp),%r15
    1e38:	00 
    1e39:	41 0f b6 0c 0f       	movzbl (%r15,%rcx,1),%ecx
    1e3e:	89 c2                	mov    %eax,%edx
    1e40:	83 c2 01             	add    $0x1,%edx
    1e43:	44 8b bc 24 34 00 00 	mov    0x34(%rsp),%r15d
    1e4a:	00 
    1e4b:	44 89 fb             	mov    %r15d,%ebx
    1e4e:	4c 8b bc 24 18 00 00 	mov    0x18(%rsp),%r15
    1e55:	00 
    1e56:	41 89 94 1f d0 00 00 	mov    %edx,0xd0(%r15,%rbx,1)
    1e5d:	00 
    1e5e:	44 8b bc 24 34 00 00 	mov    0x34(%rsp),%r15d
    1e65:	00 
    1e66:	41 01 c7             	add    %eax,%r15d
    1e69:	44 89 f8             	mov    %r15d,%eax
    1e6c:	4c 8b bc 24 18 00 00 	mov    0x18(%rsp),%r15
    1e73:	00 
    1e74:	41 88 0c 07          	mov    %cl,(%r15,%rax,1)
    1e78:	44 8b bc 24 2c 00 00 	mov    0x2c(%rsp),%r15d
    1e7f:	00 
    1e80:	41 83 c7 01          	add    $0x1,%r15d
    1e84:	44 89 bc 24 2c 00 00 	mov    %r15d,0x2c(%rsp)
    1e8b:	00 
    1e8c:	44 8b bc 24 28 00 00 	mov    0x28(%rsp),%r15d
    1e93:	00 
    1e94:	41 83 c7 ff          	add    $0xffffffff,%r15d
    1e98:	44 89 bc 24 28 00 00 	mov    %r15d,0x28(%rsp)
    1e9f:	00 
    1ea0:	45 85 ff             	test   %r15d,%r15d
    1ea3:	0f 85 c6 fe ff ff    	jne    1d6f <guest_func_blake2b_init+0x26f>
    1ea9:	44 8b bc 24 30 00 00 	mov    0x30(%rsp),%r15d
    1eb0:	00 
    1eb1:	4c 8b b4 24 18 00 00 	mov    0x18(%rsp),%r14
    1eb8:	00 
    1eb9:	45 89 bc 1e d0 00 00 	mov    %r15d,0xd0(%r14,%rbx,1)
    1ec0:	00 
    1ec1:	44 8b bc 24 20 00 00 	mov    0x20(%rsp),%r15d
    1ec8:	00 
    1ec9:	44 89 bc 24 24 00 00 	mov    %r15d,0x24(%rsp)
    1ed0:	00 
    1ed1:	eb 10                	jmp    1ee3 <guest_func_blake2b_init+0x3e3>
    1ed3:	89 8c 24 24 00 00 00 	mov    %ecx,0x24(%rsp)
    1eda:	eb 07                	jmp    1ee3 <guest_func_blake2b_init+0x3e3>
    1edc:	89 8c 24 24 00 00 00 	mov    %ecx,0x24(%rsp)
    1ee3:	44 8b bc 24 24 00 00 	mov    0x24(%rsp),%r15d
    1eea:	00 
    1eeb:	44 89 f8             	mov    %r15d,%eax
    1eee:	48 83 c4 38          	add    $0x38,%rsp
    1ef2:	41 5f                	pop    %r15
    1ef4:	41 5e                	pop    %r14
    1ef6:	41 5d                	pop    %r13
    1ef8:	41 5c                	pop    %r12
    1efa:	5b                   	pop    %rbx
    1efb:	5d                   	pop    %rbp
    1efc:	c3                   	retq   
    1efd:	00 00                	add    %al,(%rax)
	...

0000000000001f00 <guest_func_9>:
    1f00:	55                   	push   %rbp
    1f01:	48 89 e5             	mov    %rsp,%rbp
    1f04:	53                   	push   %rbx
    1f05:	41 54                	push   %r12
    1f07:	41 55                	push   %r13
    1f09:	41 56                	push   %r14
    1f0b:	41 57                	push   %r15
    1f0d:	48 83 ec 78          	sub    $0x78,%rsp
    1f11:	48 89 bc 24 38 00 00 	mov    %rdi,0x38(%rsp)
    1f18:	00 
    1f19:	89 b4 24 74 00 00 00 	mov    %esi,0x74(%rsp)
    1f20:	31 c0                	xor    %eax,%eax
    1f22:	89 84 24 70 00 00 00 	mov    %eax,0x70(%rsp)
    1f29:	49 89 ff             	mov    %rdi,%r15
    1f2c:	49 8b 47 f0          	mov    -0x10(%r15),%rax
    1f30:	8b 00                	mov    (%rax),%eax
    1f32:	89 84 24 6c 00 00 00 	mov    %eax,0x6c(%rsp)
    1f39:	b8 10 00 00 00       	mov    $0x10,%eax
    1f3e:	89 84 24 68 00 00 00 	mov    %eax,0x68(%rsp)
    1f45:	44 8b bc 24 6c 00 00 	mov    0x6c(%rsp),%r15d
    1f4c:	00 
    1f4d:	41 83 c7 f0          	add    $0xfffffff0,%r15d
    1f51:	44 89 bc 24 64 00 00 	mov    %r15d,0x64(%rsp)
    1f58:	00 
    1f59:	49 89 ff             	mov    %rdi,%r15
    1f5c:	49 8b 47 f0          	mov    -0x10(%r15),%rax
    1f60:	44 8b bc 24 64 00 00 	mov    0x64(%rsp),%r15d
    1f67:	00 
    1f68:	44 89 38             	mov    %r15d,(%rax)
    1f6b:	b8 18 05 00 00       	mov    $0x518,%eax
    1f70:	89 c0                	mov    %eax,%eax
    1f72:	48 89 84 24 30 00 00 	mov    %rax,0x30(%rsp)
    1f79:	00 
    1f7a:	49 89 ff             	mov    %rdi,%r15
    1f7d:	49 89 c6             	mov    %rax,%r14
    1f80:	43 8b 04 37          	mov    (%r15,%r14,1),%eax
    1f84:	85 c0                	test   %eax,%eax
    1f86:	0f 85 9e 01 00 00    	jne    212a <guest_func_9+0x22a>
    1f8c:	44 8b b4 24 70 00 00 	mov    0x70(%rsp),%r14d
    1f93:	00 
    1f94:	4c 89 ff             	mov    %r15,%rdi
    1f97:	44 89 f6             	mov    %r14d,%esi
    1f9a:	e8 e1 50 00 00       	callq  7080 <guest_func_sbrk>
    1f9f:	b9 00 07 01 00       	mov    $0x10700,%ecx
    1fa4:	89 c2                	mov    %eax,%edx
    1fa6:	81 c2 00 f9 fe ff    	add    $0xfffef900,%edx
    1fac:	83 fa 59             	cmp    $0x59,%edx
    1faf:	0f 82 75 01 00 00    	jb     212a <guest_func_9+0x22a>
    1fb5:	bb d8 06 00 00       	mov    $0x6d8,%ebx
    1fba:	89 db                	mov    %ebx,%ebx
    1fbc:	4c 8b bc 24 38 00 00 	mov    0x38(%rsp),%r15
    1fc3:	00 
    1fc4:	41 8b 34 1f          	mov    (%r15,%rbx,1),%esi
    1fc8:	85 f6                	test   %esi,%esi
    1fca:	75 75                	jne    2041 <guest_func_9+0x141>
    1fcc:	be e4 06 00 00       	mov    $0x6e4,%esi
    1fd1:	48 c7 c7 ff ff ff ff 	mov    $0xffffffffffffffff,%rdi
    1fd8:	89 f6                	mov    %esi,%esi
    1fda:	49 89 3c 37          	mov    %rdi,(%r15,%rsi,1)
    1fde:	be dc 06 00 00       	mov    $0x6dc,%esi
    1fe3:	48 bf 00 00 01 00 00 	movabs $0x1000000010000,%rdi
    1fea:	00 01 00 
    1fed:	89 f6                	mov    %esi,%esi
    1fef:	49 89 3c 37          	mov    %rdi,(%r15,%rsi,1)
    1ff3:	44 8b bc 24 6c 00 00 	mov    0x6c(%rsp),%r15d
    1ffa:	00 
    1ffb:	41 83 c7 f8          	add    $0xfffffff8,%r15d
    1fff:	41 83 e7 f0          	and    $0xfffffff0,%r15d
    2003:	41 81 f7 58 55 55 55 	xor    $0x55555558,%r15d
    200a:	4c 8b b4 24 38 00 00 	mov    0x38(%rsp),%r14
    2011:	00 
    2012:	45 89 3c 1e          	mov    %r15d,(%r14,%rbx,1)
    2016:	bb ec 06 00 00       	mov    $0x6ec,%ebx
    201b:	89 db                	mov    %ebx,%ebx
    201d:	44 8b b4 24 70 00 00 	mov    0x70(%rsp),%r14d
    2024:	00 
    2025:	4c 8b ac 24 38 00 00 	mov    0x38(%rsp),%r13
    202c:	00 
    202d:	45 89 74 1d 00       	mov    %r14d,0x0(%r13,%rbx,1)
    2032:	bb bc 06 00 00       	mov    $0x6bc,%ebx
    2037:	89 db                	mov    %ebx,%ebx
    2039:	45 89 74 1d 00       	mov    %r14d,0x0(%r13,%rbx,1)
    203e:	44 89 fe             	mov    %r15d,%esi
    2041:	bb c4 06 00 00       	mov    $0x6c4,%ebx
    2046:	89 db                	mov    %ebx,%ebx
    2048:	4c 8b bc 24 38 00 00 	mov    0x38(%rsp),%r15
    204f:	00 
    2050:	41 89 14 1f          	mov    %edx,(%r15,%rbx,1)
    2054:	ba c0 06 00 00       	mov    $0x6c0,%edx
    2059:	89 d2                	mov    %edx,%edx
    205b:	41 89 0c 17          	mov    %ecx,(%r15,%rdx,1)
    205f:	ba 10 05 00 00       	mov    $0x510,%edx
    2064:	89 d2                	mov    %edx,%edx
    2066:	41 89 0c 17          	mov    %ecx,(%r15,%rdx,1)
    206a:	b9 24 05 00 00       	mov    $0x524,%ecx
    206f:	89 c9                	mov    %ecx,%ecx
    2071:	41 89 34 0f          	mov    %esi,(%r15,%rcx,1)
    2075:	b9 20 05 00 00       	mov    $0x520,%ecx
    207a:	ba ff ff ff ff       	mov    $0xffffffff,%edx
    207f:	89 c9                	mov    %ecx,%ecx
    2081:	41 89 14 0f          	mov    %edx,(%r15,%rcx,1)
    2085:	44 8b bc 24 70 00 00 	mov    0x70(%rsp),%r15d
    208c:	00 
    208d:	eb 03                	jmp    2092 <guest_func_9+0x192>
    208f:	41 89 cf             	mov    %ecx,%r15d
    2092:	44 89 f9             	mov    %r15d,%ecx
    2095:	81 c1 30 05 00 00    	add    $0x530,%ecx
    209b:	44 89 fa             	mov    %r15d,%edx
    209e:	81 c2 28 05 00 00    	add    $0x528,%edx
    20a4:	89 c9                	mov    %ecx,%ecx
    20a6:	4c 8b b4 24 38 00 00 	mov    0x38(%rsp),%r14
    20ad:	00 
    20ae:	41 89 14 0e          	mov    %edx,(%r14,%rcx,1)
    20b2:	44 89 f9             	mov    %r15d,%ecx
    20b5:	81 c1 34 05 00 00    	add    $0x534,%ecx
    20bb:	89 c9                	mov    %ecx,%ecx
    20bd:	41 89 14 0e          	mov    %edx,(%r14,%rcx,1)
    20c1:	44 89 f9             	mov    %r15d,%ecx
    20c4:	83 c1 08             	add    $0x8,%ecx
    20c7:	81 f9 00 01 00 00    	cmp    $0x100,%ecx
    20cd:	75 c0                	jne    208f <guest_func_9+0x18f>
    20cf:	b9 0c 07 01 00       	mov    $0x1070c,%ecx
    20d4:	89 c2                	mov    %eax,%edx
    20d6:	81 c2 c0 f8 fe ff    	add    $0xfffef8c0,%edx
    20dc:	89 d3                	mov    %edx,%ebx
    20de:	83 cb 01             	or     $0x1,%ebx
    20e1:	89 c9                	mov    %ecx,%ecx
    20e3:	4d 89 f7             	mov    %r14,%r15
    20e6:	41 89 1c 0f          	mov    %ebx,(%r15,%rcx,1)
    20ea:	b9 1c 05 00 00       	mov    $0x51c,%ecx
    20ef:	bb e8 06 00 00       	mov    $0x6e8,%ebx
    20f4:	89 db                	mov    %ebx,%ebx
    20f6:	41 8b 1c 1f          	mov    (%r15,%rbx,1),%ebx
    20fa:	89 c9                	mov    %ecx,%ecx
    20fc:	41 89 1c 0f          	mov    %ebx,(%r15,%rcx,1)
    2100:	b9 08 07 01 00       	mov    $0x10708,%ecx
    2105:	4c 8b b4 24 30 00 00 	mov    0x30(%rsp),%r14
    210c:	00 
    210d:	43 89 0c 37          	mov    %ecx,(%r15,%r14,1)
    2111:	b9 0c 05 00 00       	mov    $0x50c,%ecx
    2116:	89 c9                	mov    %ecx,%ecx
    2118:	41 89 14 0f          	mov    %edx,(%r15,%rcx,1)
    211c:	83 c0 cc             	add    $0xffffffcc,%eax
    211f:	b9 38 00 00 00       	mov    $0x38,%ecx
    2124:	89 c0                	mov    %eax,%eax
    2126:	41 89 0c 07          	mov    %ecx,(%r15,%rax,1)
    212a:	44 8b bc 24 74 00 00 	mov    0x74(%rsp),%r15d
    2131:	00 
    2132:	41 81 ff ec 00 00 00 	cmp    $0xec,%r15d
    2139:	0f 87 f6 05 00 00    	ja     2735 <guest_func_9+0x835>
    213f:	b8 00 05 00 00       	mov    $0x500,%eax
    2144:	89 c0                	mov    %eax,%eax
    2146:	4c 8b bc 24 38 00 00 	mov    0x38(%rsp),%r15
    214d:	00 
    214e:	41 8b 04 07          	mov    (%r15,%rax,1),%eax
    2152:	89 84 24 60 00 00 00 	mov    %eax,0x60(%rsp)
    2159:	44 8b bc 24 74 00 00 	mov    0x74(%rsp),%r15d
    2160:	00 
    2161:	41 83 c7 13          	add    $0x13,%r15d
    2165:	41 83 e7 f0          	and    $0xfffffff0,%r15d
    2169:	44 89 bc 24 54 00 00 	mov    %r15d,0x54(%rsp)
    2170:	00 
    2171:	44 8b bc 24 74 00 00 	mov    0x74(%rsp),%r15d
    2178:	00 
    2179:	41 83 ff 0b          	cmp    $0xb,%r15d
    217d:	72 02                	jb     2181 <guest_func_9+0x281>
    217f:	eb 10                	jmp    2191 <guest_func_9+0x291>
    2181:	44 8b bc 24 68 00 00 	mov    0x68(%rsp),%r15d
    2188:	00 
    2189:	44 89 bc 24 54 00 00 	mov    %r15d,0x54(%rsp)
    2190:	00 
    2191:	44 8b bc 24 54 00 00 	mov    0x54(%rsp),%r15d
    2198:	00 
    2199:	44 89 f8             	mov    %r15d,%eax
    219c:	c1 e8 03             	shr    $0x3,%eax
    219f:	44 8b bc 24 60 00 00 	mov    0x60(%rsp),%r15d
    21a6:	00 
    21a7:	44 89 fa             	mov    %r15d,%edx
    21aa:	40 89 c1             	rex mov %eax,%ecx
    21ad:	d3 ea                	shr    %cl,%edx
    21af:	89 d0                	mov    %edx,%eax
    21b1:	83 e0 03             	and    $0x3,%eax
    21b4:	40 89 c3             	rex mov %eax,%ebx
    21b7:	40 89 c8             	rex mov %ecx,%eax
    21ba:	40 89 d9             	rex mov %ebx,%ecx
    21bd:	85 c9                	test   %ecx,%ecx
    21bf:	0f 84 b9 00 00 00    	je     227e <guest_func_9+0x37e>
    21c5:	83 e2 01             	and    $0x1,%edx
    21c8:	09 c2                	or     %eax,%edx
    21ca:	40 89 d0             	rex mov %edx,%eax
    21cd:	83 f0 01             	xor    $0x1,%eax
    21d0:	89 c1                	mov    %eax,%ecx
    21d2:	c1 e1 03             	shl    $0x3,%ecx
    21d5:	89 ca                	mov    %ecx,%edx
    21d7:	81 c2 30 05 00 00    	add    $0x530,%edx
    21dd:	89 d2                	mov    %edx,%edx
    21df:	4c 8b bc 24 38 00 00 	mov    0x38(%rsp),%r15
    21e6:	00 
    21e7:	41 8b 14 17          	mov    (%r15,%rdx,1),%edx
    21eb:	89 d3                	mov    %edx,%ebx
    21ed:	83 c3 08             	add    $0x8,%ebx
    21f0:	89 9c 24 70 00 00 00 	mov    %ebx,0x70(%rsp)
    21f7:	89 d3                	mov    %edx,%ebx
    21f9:	41 8b 74 1f 08       	mov    0x8(%r15,%rbx,1),%esi
    21fe:	89 cf                	mov    %ecx,%edi
    2200:	81 c7 28 05 00 00    	add    $0x528,%edi
    2206:	39 fe                	cmp    %edi,%esi
    2208:	75 33                	jne    223d <guest_func_9+0x33d>
    220a:	be 00 05 00 00       	mov    $0x500,%esi
    220f:	bf fe ff ff ff       	mov    $0xfffffffe,%edi
    2214:	41 89 c8             	mov    %ecx,%r8d
    2217:	40 89 c1             	rex mov %eax,%ecx
    221a:	44 89 c0             	mov    %r8d,%eax
    221d:	d3 c7                	rol    %cl,%edi
    221f:	44 8b bc 24 60 00 00 	mov    0x60(%rsp),%r15d
    2226:	00 
    2227:	44 21 ff             	and    %r15d,%edi
    222a:	89 f1                	mov    %esi,%ecx
    222c:	4c 8b bc 24 38 00 00 	mov    0x38(%rsp),%r15
    2233:	00 
    2234:	41 89 3c 0f          	mov    %edi,(%r15,%rcx,1)
    2238:	40 89 c1             	rex mov %eax,%ecx
    223b:	eb 19                	jmp    2256 <guest_func_9+0x356>
    223d:	b8 10 05 00 00       	mov    $0x510,%eax
    2242:	89 c0                	mov    %eax,%eax
    2244:	41 8b 04 07          	mov    (%r15,%rax,1),%eax
    2248:	89 f8                	mov    %edi,%eax
    224a:	41 89 74 07 08       	mov    %esi,0x8(%r15,%rax,1)
    224f:	89 f0                	mov    %esi,%eax
    2251:	41 89 7c 07 0c       	mov    %edi,0xc(%r15,%rax,1)
    2256:	89 c8                	mov    %ecx,%eax
    2258:	83 c8 03             	or     $0x3,%eax
    225b:	4c 8b bc 24 38 00 00 	mov    0x38(%rsp),%r15
    2262:	00 
    2263:	41 89 44 1f 04       	mov    %eax,0x4(%r15,%rbx,1)
    2268:	01 d1                	add    %edx,%ecx
    226a:	89 c8                	mov    %ecx,%eax
    226c:	41 8b 4c 07 04       	mov    0x4(%r15,%rax,1),%ecx
    2271:	83 c9 01             	or     $0x1,%ecx
    2274:	41 89 4c 07 04       	mov    %ecx,0x4(%r15,%rax,1)
    2279:	e9 af 26 00 00       	jmpq   492d <guest_func_9+0x2a2d>
    227e:	b9 08 05 00 00       	mov    $0x508,%ecx
    2283:	89 c9                	mov    %ecx,%ecx
    2285:	4c 8b bc 24 38 00 00 	mov    0x38(%rsp),%r15
    228c:	00 
    228d:	41 8b 0c 0f          	mov    (%r15,%rcx,1),%ecx
    2291:	89 8c 24 5c 00 00 00 	mov    %ecx,0x5c(%rsp)
    2298:	44 8b bc 24 54 00 00 	mov    0x54(%rsp),%r15d
    229f:	00 
    22a0:	41 89 ce             	mov    %ecx,%r14d
    22a3:	45 39 f7             	cmp    %r14d,%r15d
    22a6:	0f 86 4c 09 00 00    	jbe    2bf8 <guest_func_9+0xcf8>
    22ac:	85 d2                	test   %edx,%edx
    22ae:	0f 84 2f 02 00 00    	je     24e3 <guest_func_9+0x5e3>
    22b4:	40 89 c1             	rex mov %eax,%ecx
    22b7:	d3 e2                	shl    %cl,%edx
    22b9:	b8 02 00 00 00       	mov    $0x2,%eax
    22be:	d3 e0                	shl    %cl,%eax
    22c0:	44 8b bc 24 70 00 00 	mov    0x70(%rsp),%r15d
    22c7:	00 
    22c8:	41 29 c7             	sub    %eax,%r15d
    22cb:	44 09 f8             	or     %r15d,%eax
    22ce:	21 c2                	and    %eax,%edx
    22d0:	44 8b bc 24 70 00 00 	mov    0x70(%rsp),%r15d
    22d7:	00 
    22d8:	41 29 d7             	sub    %edx,%r15d
    22db:	44 21 fa             	and    %r15d,%edx
    22de:	83 c2 ff             	add    $0xffffffff,%edx
    22e1:	89 d0                	mov    %edx,%eax
    22e3:	c1 e8 0c             	shr    $0xc,%eax
    22e6:	83 e0 10             	and    $0x10,%eax
    22e9:	40 89 c1             	rex mov %eax,%ecx
    22ec:	d3 ea                	shr    %cl,%edx
    22ee:	89 d0                	mov    %edx,%eax
    22f0:	c1 e8 05             	shr    $0x5,%eax
    22f3:	83 e0 08             	and    $0x8,%eax
    22f6:	40 89 cb             	rex mov %ecx,%ebx
    22f9:	40 89 c1             	rex mov %eax,%ecx
    22fc:	40 89 d8             	rex mov %ebx,%eax
    22ff:	d3 ea                	shr    %cl,%edx
    2301:	89 d3                	mov    %edx,%ebx
    2303:	c1 eb 02             	shr    $0x2,%ebx
    2306:	83 e3 04             	and    $0x4,%ebx
    2309:	40 89 ce             	rex mov %ecx,%esi
    230c:	40 89 d9             	rex mov %ebx,%ecx
    230f:	40 89 f3             	rex mov %esi,%ebx
    2312:	d3 ea                	shr    %cl,%edx
    2314:	be 01 00 00 00       	mov    $0x1,%esi
    2319:	89 d7                	mov    %edx,%edi
    231b:	c1 ef 01             	shr    $0x1,%edi
    231e:	83 e7 02             	and    $0x2,%edi
    2321:	41 89 c8             	mov    %ecx,%r8d
    2324:	40 89 f9             	rex mov %edi,%ecx
    2327:	44 89 c7             	mov    %r8d,%edi
    232a:	d3 ea                	shr    %cl,%edx
    232c:	41 89 d0             	mov    %edx,%r8d
    232f:	41 c1 e8 01          	shr    $0x1,%r8d
    2333:	41 83 e0 01          	and    $0x1,%r8d
    2337:	09 c3                	or     %eax,%ebx
    2339:	09 fb                	or     %edi,%ebx
    233b:	09 cb                	or     %ecx,%ebx
    233d:	44 89 c0             	mov    %r8d,%eax
    2340:	09 d8                	or     %ebx,%eax
    2342:	44 89 c1             	mov    %r8d,%ecx
    2345:	d3 ea                	shr    %cl,%edx
    2347:	01 d0                	add    %edx,%eax
    2349:	89 c1                	mov    %eax,%ecx
    234b:	c1 e1 03             	shl    $0x3,%ecx
    234e:	89 ca                	mov    %ecx,%edx
    2350:	81 c2 30 05 00 00    	add    $0x530,%edx
    2356:	89 d2                	mov    %edx,%edx
    2358:	4c 8b bc 24 38 00 00 	mov    0x38(%rsp),%r15
    235f:	00 
    2360:	41 8b 14 17          	mov    (%r15,%rdx,1),%edx
    2364:	89 d3                	mov    %edx,%ebx
    2366:	41 8b 7c 1f 08       	mov    0x8(%r15,%rbx,1),%edi
    236b:	41 89 c8             	mov    %ecx,%r8d
    236e:	41 81 c0 28 05 00 00 	add    $0x528,%r8d
    2375:	44 39 c7             	cmp    %r8d,%edi
    2378:	75 40                	jne    23ba <guest_func_9+0x4ba>
    237a:	bf 00 05 00 00       	mov    $0x500,%edi
    237f:	41 b8 fe ff ff ff    	mov    $0xfffffffe,%r8d
    2385:	41 89 c9             	mov    %ecx,%r9d
    2388:	40 89 c1             	rex mov %eax,%ecx
    238b:	44 89 c8             	mov    %r9d,%eax
    238e:	41 d3 c0             	rol    %cl,%r8d
    2391:	44 8b bc 24 60 00 00 	mov    0x60(%rsp),%r15d
    2398:	00 
    2399:	45 21 f8             	and    %r15d,%r8d
    239c:	44 89 84 24 60 00 00 	mov    %r8d,0x60(%rsp)
    23a3:	00 
    23a4:	89 f9                	mov    %edi,%ecx
    23a6:	45 89 c7             	mov    %r8d,%r15d
    23a9:	4c 8b b4 24 38 00 00 	mov    0x38(%rsp),%r14
    23b0:	00 
    23b1:	45 89 3c 0e          	mov    %r15d,(%r14,%rcx,1)
    23b5:	40 89 c1             	rex mov %eax,%ecx
    23b8:	eb 1a                	jmp    23d4 <guest_func_9+0x4d4>
    23ba:	b8 10 05 00 00       	mov    $0x510,%eax
    23bf:	89 c0                	mov    %eax,%eax
    23c1:	41 8b 04 07          	mov    (%r15,%rax,1),%eax
    23c5:	44 89 c0             	mov    %r8d,%eax
    23c8:	41 89 7c 07 08       	mov    %edi,0x8(%r15,%rax,1)
    23cd:	89 f8                	mov    %edi,%eax
    23cf:	45 89 44 07 0c       	mov    %r8d,0xc(%r15,%rax,1)
    23d4:	89 d0                	mov    %edx,%eax
    23d6:	83 c0 08             	add    $0x8,%eax
    23d9:	89 84 24 70 00 00 00 	mov    %eax,0x70(%rsp)
    23e0:	44 8b bc 24 54 00 00 	mov    0x54(%rsp),%r15d
    23e7:	00 
    23e8:	41 83 cf 03          	or     $0x3,%r15d
    23ec:	4c 8b b4 24 38 00 00 	mov    0x38(%rsp),%r14
    23f3:	00 
    23f4:	45 89 7c 1e 04       	mov    %r15d,0x4(%r14,%rbx,1)
    23f9:	89 c8                	mov    %ecx,%eax
    23fb:	44 8b bc 24 54 00 00 	mov    0x54(%rsp),%r15d
    2402:	00 
    2403:	44 29 f8             	sub    %r15d,%eax
    2406:	01 d1                	add    %edx,%ecx
    2408:	89 c9                	mov    %ecx,%ecx
    240a:	4d 89 f7             	mov    %r14,%r15
    240d:	41 89 04 0f          	mov    %eax,(%r15,%rcx,1)
    2411:	44 8b bc 24 54 00 00 	mov    0x54(%rsp),%r15d
    2418:	00 
    2419:	40 89 d1             	rex mov %edx,%ecx
    241c:	44 01 f9             	add    %r15d,%ecx
    241f:	89 c2                	mov    %eax,%edx
    2421:	83 ca 01             	or     $0x1,%edx
    2424:	89 cb                	mov    %ecx,%ebx
    2426:	4d 89 f7             	mov    %r14,%r15
    2429:	41 89 54 1f 04       	mov    %edx,0x4(%r15,%rbx,1)
    242e:	44 8b bc 24 5c 00 00 	mov    0x5c(%rsp),%r15d
    2435:	00 
    2436:	45 85 ff             	test   %r15d,%r15d
    2439:	0f 84 81 00 00 00    	je     24c0 <guest_func_9+0x5c0>
    243f:	41 c1 ef 03          	shr    $0x3,%r15d
    2443:	44 89 fa             	mov    %r15d,%edx
    2446:	c1 e2 03             	shl    $0x3,%edx
    2449:	81 c2 28 05 00 00    	add    $0x528,%edx
    244f:	bb 14 05 00 00       	mov    $0x514,%ebx
    2454:	89 db                	mov    %ebx,%ebx
    2456:	41 8b 1c 1e          	mov    (%r14,%rbx,1),%ebx
    245a:	40 89 f7             	rex mov %esi,%edi
    245d:	40 89 ce             	rex mov %ecx,%esi
    2460:	44 89 f9             	mov    %r15d,%ecx
    2463:	d3 e7                	shl    %cl,%edi
    2465:	89 f9                	mov    %edi,%ecx
    2467:	44 8b bc 24 60 00 00 	mov    0x60(%rsp),%r15d
    246e:	00 
    246f:	44 21 f9             	and    %r15d,%ecx
    2472:	41 89 c8             	mov    %ecx,%r8d
    2475:	40 89 f1             	rex mov %esi,%ecx
    2478:	44 89 c6             	mov    %r8d,%esi
    247b:	85 f6                	test   %esi,%esi
    247d:	75 15                	jne    2494 <guest_func_9+0x594>
    247f:	be 00 05 00 00       	mov    $0x500,%esi
    2484:	44 09 ff             	or     %r15d,%edi
    2487:	89 f6                	mov    %esi,%esi
    2489:	4d 89 f7             	mov    %r14,%r15
    248c:	41 89 3c 37          	mov    %edi,(%r15,%rsi,1)
    2490:	89 d6                	mov    %edx,%esi
    2492:	eb 0a                	jmp    249e <guest_func_9+0x59e>
    2494:	89 d6                	mov    %edx,%esi
    2496:	4d 89 f7             	mov    %r14,%r15
    2499:	41 8b 74 37 08       	mov    0x8(%r15,%rsi,1),%esi
    249e:	89 f7                	mov    %esi,%edi
    24a0:	4c 8b bc 24 38 00 00 	mov    0x38(%rsp),%r15
    24a7:	00 
    24a8:	41 89 5c 3f 0c       	mov    %ebx,0xc(%r15,%rdi,1)
    24ad:	89 d7                	mov    %edx,%edi
    24af:	41 89 5c 3f 08       	mov    %ebx,0x8(%r15,%rdi,1)
    24b4:	89 db                	mov    %ebx,%ebx
    24b6:	41 89 54 1f 0c       	mov    %edx,0xc(%r15,%rbx,1)
    24bb:	41 89 74 1f 08       	mov    %esi,0x8(%r15,%rbx,1)
    24c0:	ba 14 05 00 00       	mov    $0x514,%edx
    24c5:	89 d2                	mov    %edx,%edx
    24c7:	4c 8b bc 24 38 00 00 	mov    0x38(%rsp),%r15
    24ce:	00 
    24cf:	41 89 0c 17          	mov    %ecx,(%r15,%rdx,1)
    24d3:	b9 08 05 00 00       	mov    $0x508,%ecx
    24d8:	89 c9                	mov    %ecx,%ecx
    24da:	41 89 04 0f          	mov    %eax,(%r15,%rcx,1)
    24de:	e9 4a 24 00 00       	jmpq   492d <guest_func_9+0x2a2d>
    24e3:	b8 04 05 00 00       	mov    $0x504,%eax
    24e8:	89 c0                	mov    %eax,%eax
    24ea:	4c 8b bc 24 38 00 00 	mov    0x38(%rsp),%r15
    24f1:	00 
    24f2:	41 8b 0c 07          	mov    (%r15,%rax,1),%ecx
    24f6:	85 c9                	test   %ecx,%ecx
    24f8:	0f 84 fa 06 00 00    	je     2bf8 <guest_func_9+0xcf8>
    24fe:	44 8b bc 24 70 00 00 	mov    0x70(%rsp),%r15d
    2505:	00 
    2506:	41 29 cf             	sub    %ecx,%r15d
    2509:	41 21 cf             	and    %ecx,%r15d
    250c:	41 83 c7 ff          	add    $0xffffffff,%r15d
    2510:	44 89 fa             	mov    %r15d,%edx
    2513:	c1 ea 0c             	shr    $0xc,%edx
    2516:	83 e2 10             	and    $0x10,%edx
    2519:	40 89 cb             	rex mov %ecx,%ebx
    251c:	40 89 d1             	rex mov %edx,%ecx
    251f:	40 89 da             	rex mov %ebx,%edx
    2522:	41 d3 ef             	shr    %cl,%r15d
    2525:	44 89 fb             	mov    %r15d,%ebx
    2528:	c1 eb 05             	shr    $0x5,%ebx
    252b:	83 e3 08             	and    $0x8,%ebx
    252e:	40 89 ce             	rex mov %ecx,%esi
    2531:	40 89 d9             	rex mov %ebx,%ecx
    2534:	40 89 f3             	rex mov %esi,%ebx
    2537:	41 d3 ef             	shr    %cl,%r15d
    253a:	44 89 fe             	mov    %r15d,%esi
    253d:	c1 ee 02             	shr    $0x2,%esi
    2540:	83 e6 04             	and    $0x4,%esi
    2543:	40 89 cf             	rex mov %ecx,%edi
    2546:	40 89 f1             	rex mov %esi,%ecx
    2549:	40 89 fe             	rex mov %edi,%esi
    254c:	41 d3 ef             	shr    %cl,%r15d
    254f:	bf 01 00 00 00       	mov    $0x1,%edi
    2554:	45 89 f8             	mov    %r15d,%r8d
    2557:	41 c1 e8 01          	shr    $0x1,%r8d
    255b:	41 83 e0 02          	and    $0x2,%r8d
    255f:	41 89 c9             	mov    %ecx,%r9d
    2562:	44 89 c1             	mov    %r8d,%ecx
    2565:	45 89 c8             	mov    %r9d,%r8d
    2568:	41 d3 ef             	shr    %cl,%r15d
    256b:	45 89 f9             	mov    %r15d,%r9d
    256e:	41 c1 e9 01          	shr    $0x1,%r9d
    2572:	41 83 e1 01          	and    $0x1,%r9d
    2576:	09 de                	or     %ebx,%esi
    2578:	44 09 c6             	or     %r8d,%esi
    257b:	09 ce                	or     %ecx,%esi
    257d:	44 89 c9             	mov    %r9d,%ecx
    2580:	09 f1                	or     %esi,%ecx
    2582:	40 89 cb             	rex mov %ecx,%ebx
    2585:	44 89 c9             	mov    %r9d,%ecx
    2588:	41 d3 ef             	shr    %cl,%r15d
    258b:	44 01 fb             	add    %r15d,%ebx
    258e:	c1 e3 02             	shl    $0x2,%ebx
    2591:	81 c3 30 06 00 00    	add    $0x630,%ebx
    2597:	89 d9                	mov    %ebx,%ecx
    2599:	4c 8b bc 24 38 00 00 	mov    0x38(%rsp),%r15
    25a0:	00 
    25a1:	41 8b 0c 0f          	mov    (%r15,%rcx,1),%ecx
    25a5:	89 cb                	mov    %ecx,%ebx
    25a7:	41 8b 5c 1f 04       	mov    0x4(%r15,%rbx,1),%ebx
    25ac:	83 e3 f8             	and    $0xfffffff8,%ebx
    25af:	44 8b bc 24 54 00 00 	mov    0x54(%rsp),%r15d
    25b6:	00 
    25b7:	44 29 fb             	sub    %r15d,%ebx
    25ba:	be 14 00 00 00       	mov    $0x14,%esi
    25bf:	41 89 c8             	mov    %ecx,%r8d
    25c2:	41 89 c9             	mov    %ecx,%r9d
    25c5:	40 89 d1             	rex mov %edx,%ecx
    25c8:	44 89 ca             	mov    %r9d,%edx
    25cb:	45 89 c1             	mov    %r8d,%r9d
    25ce:	4c 8b bc 24 38 00 00 	mov    0x38(%rsp),%r15
    25d5:	00 
    25d6:	47 8b 4c 0f 10       	mov    0x10(%r15,%r9,1),%r9d
    25db:	45 85 c9             	test   %r9d,%r9d
    25de:	75 13                	jne    25f3 <guest_func_9+0x6f3>
    25e0:	41 83 c0 14          	add    $0x14,%r8d
    25e4:	45 89 c0             	mov    %r8d,%r8d
    25e7:	47 8b 04 07          	mov    (%r15,%r8,1),%r8d
    25eb:	45 85 c0             	test   %r8d,%r8d
    25ee:	74 49                	je     2639 <guest_func_9+0x739>
    25f0:	45 89 c1             	mov    %r8d,%r9d
    25f3:	45 89 c8             	mov    %r9d,%r8d
    25f6:	4c 8b bc 24 38 00 00 	mov    0x38(%rsp),%r15
    25fd:	00 
    25fe:	47 8b 44 07 04       	mov    0x4(%r15,%r8,1),%r8d
    2603:	41 83 e0 f8          	and    $0xfffffff8,%r8d
    2607:	44 8b bc 24 54 00 00 	mov    0x54(%rsp),%r15d
    260e:	00 
    260f:	45 29 f8             	sub    %r15d,%r8d
    2612:	41 39 d8             	cmp    %ebx,%r8d
    2615:	41 0f 92 c2          	setb   %r10b
    2619:	72 03                	jb     261e <guest_func_9+0x71e>
    261b:	41 89 d8             	mov    %ebx,%r8d
    261e:	45 84 d2             	test   %r10b,%r10b
    2621:	75 02                	jne    2625 <guest_func_9+0x725>
    2623:	eb 03                	jmp    2628 <guest_func_9+0x728>
    2625:	44 89 ca             	mov    %r9d,%edx
    2628:	44 89 c3             	mov    %r8d,%ebx
    262b:	45 89 ca             	mov    %r9d,%r10d
    262e:	45 89 c3             	mov    %r8d,%r11d
    2631:	45 89 d0             	mov    %r10d,%r8d
    2634:	45 89 da             	mov    %r11d,%r10d
    2637:	eb 92                	jmp    25cb <guest_func_9+0x6cb>
    2639:	41 89 d0             	mov    %edx,%r8d
    263c:	47 8b 4c 07 18       	mov    0x18(%r15,%r8,1),%r9d
    2641:	47 8b 54 07 0c       	mov    0xc(%r15,%r8,1),%r10d
    2646:	44 39 d2             	cmp    %r10d,%edx
    2649:	74 44                	je     268f <guest_func_9+0x78f>
    264b:	41 bb 10 05 00 00    	mov    $0x510,%r11d
    2651:	45 89 db             	mov    %r11d,%r11d
    2654:	47 8b 1c 1f          	mov    (%r15,%r11,1),%r11d
    2658:	47 8b 64 07 08       	mov    0x8(%r15,%r8,1),%r12d
    265d:	45 39 e3             	cmp    %r12d,%r11d
    2660:	77 08                	ja     266a <guest_func_9+0x76a>
    2662:	45 89 e3             	mov    %r12d,%r11d
    2665:	47 8b 5c 1f 0c       	mov    0xc(%r15,%r11,1),%r11d
    266a:	45 89 d3             	mov    %r10d,%r11d
    266d:	4c 8b bc 24 38 00 00 	mov    0x38(%rsp),%r15
    2674:	00 
    2675:	47 89 64 1f 08       	mov    %r12d,0x8(%r15,%r11,1)
    267a:	45 89 e3             	mov    %r12d,%r11d
    267d:	47 89 54 1f 0c       	mov    %r10d,0xc(%r15,%r11,1)
    2682:	44 89 94 24 70 00 00 	mov    %r10d,0x70(%rsp)
    2689:	00 
    268a:	e9 15 20 00 00       	jmpq   46a4 <guest_func_9+0x27a4>
    268f:	41 89 d2             	mov    %edx,%r10d
    2692:	41 83 c2 14          	add    $0x14,%r10d
    2696:	45 89 d3             	mov    %r10d,%r11d
    2699:	47 8b 1c 1f          	mov    (%r15,%r11,1),%r11d
    269d:	45 85 db             	test   %r11d,%r11d
    26a0:	75 1e                	jne    26c0 <guest_func_9+0x7c0>
    26a2:	47 8b 54 07 10       	mov    0x10(%r15,%r8,1),%r10d
    26a7:	45 85 d2             	test   %r10d,%r10d
    26aa:	0f 84 f4 1f 00 00    	je     46a4 <guest_func_9+0x27a4>
    26b0:	41 89 d3             	mov    %edx,%r11d
    26b3:	41 83 c3 10          	add    $0x10,%r11d
    26b7:	45 89 dc             	mov    %r11d,%r12d
    26ba:	45 89 d3             	mov    %r10d,%r11d
    26bd:	45 89 e2             	mov    %r12d,%r10d
    26c0:	eb 20                	jmp    26e2 <guest_func_9+0x7e2>
    26c2:	45 89 ea             	mov    %r13d,%r10d
    26c5:	45 89 e3             	mov    %r12d,%r11d
    26c8:	45 89 de             	mov    %r11d,%r14d
    26cb:	45 89 d3             	mov    %r10d,%r11d
    26ce:	45 89 f2             	mov    %r14d,%r10d
    26d1:	eb 0f                	jmp    26e2 <guest_func_9+0x7e2>
    26d3:	45 89 ea             	mov    %r13d,%r10d
    26d6:	45 89 e3             	mov    %r12d,%r11d
    26d9:	45 89 de             	mov    %r11d,%r14d
    26dc:	45 89 d3             	mov    %r10d,%r11d
    26df:	45 89 f2             	mov    %r14d,%r10d
    26e2:	45 89 dc             	mov    %r11d,%r12d
    26e5:	41 83 c4 14          	add    $0x14,%r12d
    26e9:	45 89 e5             	mov    %r12d,%r13d
    26ec:	4c 8b bc 24 38 00 00 	mov    0x38(%rsp),%r15
    26f3:	00 
    26f4:	47 8b 2c 2f          	mov    (%r15,%r13,1),%r13d
    26f8:	45 85 ed             	test   %r13d,%r13d
    26fb:	75 c5                	jne    26c2 <guest_func_9+0x7c2>
    26fd:	45 89 dc             	mov    %r11d,%r12d
    2700:	41 83 c4 10          	add    $0x10,%r12d
    2704:	45 89 dd             	mov    %r11d,%r13d
    2707:	47 8b 6c 2f 10       	mov    0x10(%r15,%r13,1),%r13d
    270c:	45 85 ed             	test   %r13d,%r13d
    270f:	75 c2                	jne    26d3 <guest_func_9+0x7d3>
    2711:	45 89 d2             	mov    %r10d,%r10d
    2714:	44 8b bc 24 70 00 00 	mov    0x70(%rsp),%r15d
    271b:	00 
    271c:	4c 8b b4 24 38 00 00 	mov    0x38(%rsp),%r14
    2723:	00 
    2724:	47 89 3c 16          	mov    %r15d,(%r14,%r10,1)
    2728:	44 89 9c 24 70 00 00 	mov    %r11d,0x70(%rsp)
    272f:	00 
    2730:	e9 6f 1f 00 00       	jmpq   46a4 <guest_func_9+0x27a4>
    2735:	b8 ff ff ff ff       	mov    $0xffffffff,%eax
    273a:	89 84 24 54 00 00 00 	mov    %eax,0x54(%rsp)
    2741:	41 83 ff bf          	cmp    $0xffffffbf,%r15d
    2745:	0f 87 ad 04 00 00    	ja     2bf8 <guest_func_9+0xcf8>
    274b:	44 89 f8             	mov    %r15d,%eax
    274e:	83 c0 13             	add    $0x13,%eax
    2751:	89 c1                	mov    %eax,%ecx
    2753:	83 e1 f0             	and    $0xfffffff0,%ecx
    2756:	89 8c 24 54 00 00 00 	mov    %ecx,0x54(%rsp)
    275d:	b9 04 05 00 00       	mov    $0x504,%ecx
    2762:	89 c9                	mov    %ecx,%ecx
    2764:	4c 8b bc 24 38 00 00 	mov    0x38(%rsp),%r15
    276b:	00 
    276c:	41 8b 14 0f          	mov    (%r15,%rcx,1),%edx
    2770:	85 d2                	test   %edx,%edx
    2772:	0f 84 80 04 00 00    	je     2bf8 <guest_func_9+0xcf8>
    2778:	c1 e8 08             	shr    $0x8,%eax
    277b:	85 c0                	test   %eax,%eax
    277d:	0f 84 94 00 00 00    	je     2817 <guest_func_9+0x917>
    2783:	bb 1f 00 00 00       	mov    $0x1f,%ebx
    2788:	44 8b bc 24 54 00 00 	mov    0x54(%rsp),%r15d
    278f:	00 
    2790:	41 81 ff ff ff ff 00 	cmp    $0xffffff,%r15d
    2797:	0f 87 84 00 00 00    	ja     2821 <guest_func_9+0x921>
    279d:	89 c3                	mov    %eax,%ebx
    279f:	81 c3 00 ff 0f 00    	add    $0xfff00,%ebx
    27a5:	c1 eb 10             	shr    $0x10,%ebx
    27a8:	83 e3 08             	and    $0x8,%ebx
    27ab:	48 89 ce             	mov    %rcx,%rsi
    27ae:	40 89 d9             	rex mov %ebx,%ecx
    27b1:	48 89 f3             	mov    %rsi,%rbx
    27b4:	d3 e0                	shl    %cl,%eax
    27b6:	89 c6                	mov    %eax,%esi
    27b8:	81 c6 00 f0 07 00    	add    $0x7f000,%esi
    27be:	c1 ee 10             	shr    $0x10,%esi
    27c1:	83 e6 04             	and    $0x4,%esi
    27c4:	40 89 cf             	rex mov %ecx,%edi
    27c7:	40 89 f1             	rex mov %esi,%ecx
    27ca:	40 89 fe             	rex mov %edi,%esi
    27cd:	d3 e0                	shl    %cl,%eax
    27cf:	89 c7                	mov    %eax,%edi
    27d1:	81 c7 00 c0 03 00    	add    $0x3c000,%edi
    27d7:	c1 ef 10             	shr    $0x10,%edi
    27da:	83 e7 02             	and    $0x2,%edi
    27dd:	41 89 c8             	mov    %ecx,%r8d
    27e0:	40 89 f9             	rex mov %edi,%ecx
    27e3:	44 89 c7             	mov    %r8d,%edi
    27e6:	d3 e0                	shl    %cl,%eax
    27e8:	c1 e8 0f             	shr    $0xf,%eax
    27eb:	09 fe                	or     %edi,%esi
    27ed:	09 ce                	or     %ecx,%esi
    27ef:	29 f0                	sub    %esi,%eax
    27f1:	89 c1                	mov    %eax,%ecx
    27f3:	c1 e1 01             	shl    $0x1,%ecx
    27f6:	83 c0 15             	add    $0x15,%eax
    27f9:	40 89 ce             	rex mov %ecx,%esi
    27fc:	40 89 c1             	rex mov %eax,%ecx
    27ff:	40 89 f0             	rex mov %esi,%eax
    2802:	41 d3 ef             	shr    %cl,%r15d
    2805:	41 83 e7 01          	and    $0x1,%r15d
    2809:	44 09 f8             	or     %r15d,%eax
    280c:	83 c0 1c             	add    $0x1c,%eax
    280f:	48 89 d9             	mov    %rbx,%rcx
    2812:	41 89 c7             	mov    %eax,%r15d
    2815:	eb 0d                	jmp    2824 <guest_func_9+0x924>
    2817:	44 8b bc 24 70 00 00 	mov    0x70(%rsp),%r15d
    281e:	00 
    281f:	eb 03                	jmp    2824 <guest_func_9+0x924>
    2821:	41 89 df             	mov    %ebx,%r15d
    2824:	44 8b b4 24 70 00 00 	mov    0x70(%rsp),%r14d
    282b:	00 
    282c:	44 8b ac 24 54 00 00 	mov    0x54(%rsp),%r13d
    2833:	00 
    2834:	44 89 f0             	mov    %r14d,%eax
    2837:	44 29 e8             	sub    %r13d,%eax
    283a:	bb 02 00 00 00       	mov    $0x2,%ebx
    283f:	44 89 fe             	mov    %r15d,%esi
    2842:	c1 e6 02             	shl    $0x2,%esi
    2845:	81 c6 30 06 00 00    	add    $0x630,%esi
    284b:	89 f6                	mov    %esi,%esi
    284d:	4c 8b b4 24 38 00 00 	mov    0x38(%rsp),%r14
    2854:	00 
    2855:	41 8b 34 36          	mov    (%r14,%rsi,1),%esi
    2859:	85 f6                	test   %esi,%esi
    285b:	75 1f                	jne    287c <guest_func_9+0x97c>
    285d:	44 8b b4 24 70 00 00 	mov    0x70(%rsp),%r14d
    2864:	00 
    2865:	45 89 f5             	mov    %r14d,%r13d
    2868:	45 89 f1             	mov    %r14d,%r9d
    286b:	44 89 ee             	mov    %r13d,%esi
    286e:	41 89 c0             	mov    %eax,%r8d
    2871:	40 89 d0             	rex mov %edx,%eax
    2874:	44 89 fa             	mov    %r15d,%edx
    2877:	e9 0f 01 00 00       	jmpq   298b <guest_func_9+0xa8b>
    287c:	bf 19 00 00 00       	mov    $0x19,%edi
    2881:	45 89 f8             	mov    %r15d,%r8d
    2884:	41 c1 e8 01          	shr    $0x1,%r8d
    2888:	44 29 c7             	sub    %r8d,%edi
    288b:	41 83 ff 1f          	cmp    $0x1f,%r15d
    288f:	74 05                	je     2896 <guest_func_9+0x996>
    2891:	41 89 fe             	mov    %edi,%r14d
    2894:	eb 08                	jmp    289e <guest_func_9+0x99e>
    2896:	44 8b b4 24 70 00 00 	mov    0x70(%rsp),%r14d
    289d:	00 
    289e:	44 8b ac 24 54 00 00 	mov    0x54(%rsp),%r13d
    28a5:	00 
    28a6:	48 89 cf             	mov    %rcx,%rdi
    28a9:	44 89 f1             	mov    %r14d,%ecx
    28ac:	41 d3 e5             	shl    %cl,%r13d
    28af:	44 8b b4 24 70 00 00 	mov    0x70(%rsp),%r14d
    28b6:	00 
    28b7:	45 89 f4             	mov    %r14d,%r12d
    28ba:	89 c1                	mov    %eax,%ecx
    28bc:	41 89 c8             	mov    %ecx,%r8d
    28bf:	48 89 f9             	mov    %rdi,%rcx
    28c2:	44 89 c7             	mov    %r8d,%edi
    28c5:	eb 15                	jmp    28dc <guest_func_9+0x9dc>
    28c7:	44 89 cf             	mov    %r9d,%edi
    28ca:	45 89 c3             	mov    %r8d,%r11d
    28cd:	41 89 fe             	mov    %edi,%r14d
    28d0:	44 89 df             	mov    %r11d,%edi
    28d3:	45 89 d5             	mov    %r10d,%r13d
    28d6:	41 89 d7             	mov    %edx,%r15d
    28d9:	40 89 c2             	rex mov %eax,%edx
    28dc:	89 d0                	mov    %edx,%eax
    28de:	44 89 fa             	mov    %r15d,%edx
    28e1:	41 89 f0             	mov    %esi,%r8d
    28e4:	4c 8b bc 24 38 00 00 	mov    0x38(%rsp),%r15
    28eb:	00 
    28ec:	47 8b 44 07 04       	mov    0x4(%r15,%r8,1),%r8d
    28f1:	41 83 e0 f8          	and    $0xfffffff8,%r8d
    28f5:	44 8b bc 24 54 00 00 	mov    0x54(%rsp),%r15d
    28fc:	00 
    28fd:	45 29 f8             	sub    %r15d,%r8d
    2900:	41 39 f8             	cmp    %edi,%r8d
    2903:	73 14                	jae    2919 <guest_func_9+0xa19>
    2905:	45 85 c0             	test   %r8d,%r8d
    2908:	75 14                	jne    291e <guest_func_9+0xa1e>
    290a:	44 8b bc 24 70 00 00 	mov    0x70(%rsp),%r15d
    2911:	00 
    2912:	89 f2                	mov    %esi,%edx
    2914:	e9 4f 01 00 00       	jmpq   2a68 <guest_func_9+0xb68>
    2919:	41 89 f8             	mov    %edi,%r8d
    291c:	eb 05                	jmp    2923 <guest_func_9+0xa23>
    291e:	89 f7                	mov    %esi,%edi
    2920:	41 89 fc             	mov    %edi,%r12d
    2923:	89 f7                	mov    %esi,%edi
    2925:	83 c7 14             	add    $0x14,%edi
    2928:	89 ff                	mov    %edi,%edi
    292a:	4c 8b bc 24 38 00 00 	mov    0x38(%rsp),%r15
    2931:	00 
    2932:	41 8b 3c 3f          	mov    (%r15,%rdi,1),%edi
    2936:	45 89 e9             	mov    %r13d,%r9d
    2939:	41 c1 e9 1d          	shr    $0x1d,%r9d
    293d:	41 83 e1 04          	and    $0x4,%r9d
    2941:	41 01 f1             	add    %esi,%r9d
    2944:	41 83 c1 10          	add    $0x10,%r9d
    2948:	44 89 ce             	mov    %r9d,%esi
    294b:	41 8b 34 37          	mov    (%r15,%rsi,1),%esi
    294f:	39 f7                	cmp    %esi,%edi
    2951:	74 05                	je     2958 <guest_func_9+0xa58>
    2953:	41 89 f9             	mov    %edi,%r9d
    2956:	eb 03                	jmp    295b <guest_func_9+0xa5b>
    2958:	45 89 f1             	mov    %r14d,%r9d
    295b:	85 ff                	test   %edi,%edi
    295d:	75 06                	jne    2965 <guest_func_9+0xa65>
    295f:	44 89 f7             	mov    %r14d,%edi
    2962:	41 89 f9             	mov    %edi,%r9d
    2965:	40 89 f7             	rex mov %esi,%edi
    2968:	48 89 ce             	mov    %rcx,%rsi
    296b:	83 ff 00             	cmp    $0x0,%edi
    296e:	0f 95 c1             	setne  %cl
    2971:	0f b6 c9             	movzbl %cl,%ecx
    2974:	45 89 ea             	mov    %r13d,%r10d
    2977:	41 d3 e2             	shl    %cl,%r10d
    297a:	48 89 f1             	mov    %rsi,%rcx
    297d:	40 89 fe             	rex mov %edi,%esi
    2980:	85 f6                	test   %esi,%esi
    2982:	0f 85 3f ff ff ff    	jne    28c7 <guest_func_9+0x9c7>
    2988:	44 89 e6             	mov    %r12d,%esi
    298b:	44 89 cf             	mov    %r9d,%edi
    298e:	09 f7                	or     %esi,%edi
    2990:	85 ff                	test   %edi,%edi
    2992:	0f 85 c2 00 00 00    	jne    2a5a <guest_func_9+0xb5a>
    2998:	48 89 cf             	mov    %rcx,%rdi
    299b:	40 89 d1             	rex mov %edx,%ecx
    299e:	48 89 fa             	mov    %rdi,%rdx
    29a1:	d3 e3                	shl    %cl,%ebx
    29a3:	44 8b bc 24 70 00 00 	mov    0x70(%rsp),%r15d
    29aa:	00 
    29ab:	41 29 df             	sub    %ebx,%r15d
    29ae:	44 09 fb             	or     %r15d,%ebx
    29b1:	21 c3                	and    %eax,%ebx
    29b3:	85 db                	test   %ebx,%ebx
    29b5:	0f 84 3d 02 00 00    	je     2bf8 <guest_func_9+0xcf8>
    29bb:	44 8b bc 24 70 00 00 	mov    0x70(%rsp),%r15d
    29c2:	00 
    29c3:	41 29 df             	sub    %ebx,%r15d
    29c6:	41 21 df             	and    %ebx,%r15d
    29c9:	41 83 c7 ff          	add    $0xffffffff,%r15d
    29cd:	44 89 f9             	mov    %r15d,%ecx
    29d0:	c1 e9 0c             	shr    $0xc,%ecx
    29d3:	83 e1 10             	and    $0x10,%ecx
    29d6:	41 d3 ef             	shr    %cl,%r15d
    29d9:	44 89 fb             	mov    %r15d,%ebx
    29dc:	c1 eb 05             	shr    $0x5,%ebx
    29df:	83 e3 08             	and    $0x8,%ebx
    29e2:	40 89 cf             	rex mov %ecx,%edi
    29e5:	40 89 d9             	rex mov %ebx,%ecx
    29e8:	40 89 fb             	rex mov %edi,%ebx
    29eb:	41 d3 ef             	shr    %cl,%r15d
    29ee:	44 89 ff             	mov    %r15d,%edi
    29f1:	c1 ef 02             	shr    $0x2,%edi
    29f4:	83 e7 04             	and    $0x4,%edi
    29f7:	41 89 c9             	mov    %ecx,%r9d
    29fa:	40 89 f9             	rex mov %edi,%ecx
    29fd:	44 89 cf             	mov    %r9d,%edi
    2a00:	41 d3 ef             	shr    %cl,%r15d
    2a03:	45 89 f9             	mov    %r15d,%r9d
    2a06:	41 c1 e9 01          	shr    $0x1,%r9d
    2a0a:	41 83 e1 02          	and    $0x2,%r9d
    2a0e:	41 89 ca             	mov    %ecx,%r10d
    2a11:	44 89 c9             	mov    %r9d,%ecx
    2a14:	45 89 d1             	mov    %r10d,%r9d
    2a17:	41 d3 ef             	shr    %cl,%r15d
    2a1a:	45 89 fa             	mov    %r15d,%r10d
    2a1d:	41 c1 ea 01          	shr    $0x1,%r10d
    2a21:	41 83 e2 01          	and    $0x1,%r10d
    2a25:	09 df                	or     %ebx,%edi
    2a27:	44 09 cf             	or     %r9d,%edi
    2a2a:	09 cf                	or     %ecx,%edi
    2a2c:	44 89 d1             	mov    %r10d,%ecx
    2a2f:	09 f9                	or     %edi,%ecx
    2a31:	40 89 cb             	rex mov %ecx,%ebx
    2a34:	44 89 d1             	mov    %r10d,%ecx
    2a37:	41 d3 ef             	shr    %cl,%r15d
    2a3a:	44 01 fb             	add    %r15d,%ebx
    2a3d:	c1 e3 02             	shl    $0x2,%ebx
    2a40:	81 c3 30 06 00 00    	add    $0x630,%ebx
    2a46:	89 d9                	mov    %ebx,%ecx
    2a48:	4c 8b bc 24 38 00 00 	mov    0x38(%rsp),%r15
    2a4f:	00 
    2a50:	41 8b 0c 0f          	mov    (%r15,%rcx,1),%ecx
    2a54:	41 89 c9             	mov    %ecx,%r9d
    2a57:	48 89 d1             	mov    %rdx,%rcx
    2a5a:	45 85 c9             	test   %r9d,%r9d
    2a5d:	74 76                	je     2ad5 <guest_func_9+0xbd5>
    2a5f:	44 89 c2             	mov    %r8d,%edx
    2a62:	41 89 d7             	mov    %edx,%r15d
    2a65:	44 89 ca             	mov    %r9d,%edx
    2a68:	eb 11                	jmp    2a7b <guest_func_9+0xb7b>
    2a6a:	89 d3                	mov    %edx,%ebx
    2a6c:	41 89 f8             	mov    %edi,%r8d
    2a6f:	45 89 c7             	mov    %r8d,%r15d
    2a72:	41 89 d8             	mov    %ebx,%r8d
    2a75:	40 89 d3             	rex mov %edx,%ebx
    2a78:	44 89 c2             	mov    %r8d,%edx
    2a7b:	89 c0                	mov    %eax,%eax
    2a7d:	89 d3                	mov    %edx,%ebx
    2a7f:	4c 8b b4 24 38 00 00 	mov    0x38(%rsp),%r14
    2a86:	00 
    2a87:	41 8b 7c 1e 04       	mov    0x4(%r14,%rbx,1),%edi
    2a8c:	83 e7 f8             	and    $0xfffffff8,%edi
    2a8f:	44 8b b4 24 54 00 00 	mov    0x54(%rsp),%r14d
    2a96:	00 
    2a97:	44 29 f7             	sub    %r14d,%edi
    2a9a:	44 39 ff             	cmp    %r15d,%edi
    2a9d:	41 0f 92 c0          	setb   %r8b
    2aa1:	72 03                	jb     2aa6 <guest_func_9+0xba6>
    2aa3:	44 89 ff             	mov    %r15d,%edi
    2aa6:	45 84 c0             	test   %r8b,%r8b
    2aa9:	75 02                	jne    2aad <guest_func_9+0xbad>
    2aab:	eb 02                	jmp    2aaf <guest_func_9+0xbaf>
    2aad:	89 d6                	mov    %edx,%esi
    2aaf:	4c 8b bc 24 38 00 00 	mov    0x38(%rsp),%r15
    2ab6:	00 
    2ab7:	41 8b 5c 1f 10       	mov    0x10(%r15,%rbx,1),%ebx
    2abc:	85 db                	test   %ebx,%ebx
    2abe:	74 05                	je     2ac5 <guest_func_9+0xbc5>
    2ac0:	40 89 da             	rex mov %ebx,%edx
    2ac3:	eb 09                	jmp    2ace <guest_func_9+0xbce>
    2ac5:	83 c2 14             	add    $0x14,%edx
    2ac8:	89 d2                	mov    %edx,%edx
    2aca:	41 8b 14 17          	mov    (%r15,%rdx,1),%edx
    2ace:	85 d2                	test   %edx,%edx
    2ad0:	75 98                	jne    2a6a <guest_func_9+0xb6a>
    2ad2:	41 89 f8             	mov    %edi,%r8d
    2ad5:	85 f6                	test   %esi,%esi
    2ad7:	0f 84 1b 01 00 00    	je     2bf8 <guest_func_9+0xcf8>
    2add:	ba 08 05 00 00       	mov    $0x508,%edx
    2ae2:	89 d2                	mov    %edx,%edx
    2ae4:	4c 8b bc 24 38 00 00 	mov    0x38(%rsp),%r15
    2aeb:	00 
    2aec:	41 8b 14 17          	mov    (%r15,%rdx,1),%edx
    2af0:	44 8b bc 24 54 00 00 	mov    0x54(%rsp),%r15d
    2af7:	00 
    2af8:	44 29 fa             	sub    %r15d,%edx
    2afb:	41 39 d0             	cmp    %edx,%r8d
    2afe:	0f 83 f4 00 00 00    	jae    2bf8 <guest_func_9+0xcf8>
    2b04:	89 f2                	mov    %esi,%edx
    2b06:	4c 8b bc 24 38 00 00 	mov    0x38(%rsp),%r15
    2b0d:	00 
    2b0e:	41 8b 5c 17 18       	mov    0x18(%r15,%rdx,1),%ebx
    2b13:	41 8b 7c 17 0c       	mov    0xc(%r15,%rdx,1),%edi
    2b18:	39 f7                	cmp    %esi,%edi
    2b1a:	74 3f                	je     2b5b <guest_func_9+0xc5b>
    2b1c:	41 b9 10 05 00 00    	mov    $0x510,%r9d
    2b22:	45 89 c9             	mov    %r9d,%r9d
    2b25:	47 8b 0c 0f          	mov    (%r15,%r9,1),%r9d
    2b29:	45 8b 54 17 08       	mov    0x8(%r15,%rdx,1),%r10d
    2b2e:	45 39 d1             	cmp    %r10d,%r9d
    2b31:	77 08                	ja     2b3b <guest_func_9+0xc3b>
    2b33:	45 89 d1             	mov    %r10d,%r9d
    2b36:	47 8b 4c 0f 0c       	mov    0xc(%r15,%r9,1),%r9d
    2b3b:	41 89 f9             	mov    %edi,%r9d
    2b3e:	4c 8b bc 24 38 00 00 	mov    0x38(%rsp),%r15
    2b45:	00 
    2b46:	47 89 54 0f 08       	mov    %r10d,0x8(%r15,%r9,1)
    2b4b:	45 89 d1             	mov    %r10d,%r9d
    2b4e:	43 89 7c 0f 0c       	mov    %edi,0xc(%r15,%r9,1)
    2b53:	41 89 ff             	mov    %edi,%r15d
    2b56:	e9 4b 17 00 00       	jmpq   42a6 <guest_func_9+0x23a6>
    2b5b:	89 f7                	mov    %esi,%edi
    2b5d:	83 c7 14             	add    $0x14,%edi
    2b60:	41 89 f9             	mov    %edi,%r9d
    2b63:	47 8b 0c 0f          	mov    (%r15,%r9,1),%r9d
    2b67:	45 85 c9             	test   %r9d,%r9d
    2b6a:	75 1d                	jne    2b89 <guest_func_9+0xc89>
    2b6c:	41 8b 7c 17 10       	mov    0x10(%r15,%rdx,1),%edi
    2b71:	85 ff                	test   %edi,%edi
    2b73:	0f 84 b2 06 00 00    	je     322b <guest_func_9+0x132b>
    2b79:	41 89 f1             	mov    %esi,%r9d
    2b7c:	41 83 c1 10          	add    $0x10,%r9d
    2b80:	45 89 ca             	mov    %r9d,%r10d
    2b83:	41 89 f9             	mov    %edi,%r9d
    2b86:	44 89 d7             	mov    %r10d,%edi
    2b89:	eb 20                	jmp    2bab <guest_func_9+0xcab>
    2b8b:	44 89 df             	mov    %r11d,%edi
    2b8e:	45 89 d1             	mov    %r10d,%r9d
    2b91:	45 89 cc             	mov    %r9d,%r12d
    2b94:	41 89 f9             	mov    %edi,%r9d
    2b97:	44 89 e7             	mov    %r12d,%edi
    2b9a:	eb 0f                	jmp    2bab <guest_func_9+0xcab>
    2b9c:	44 89 df             	mov    %r11d,%edi
    2b9f:	45 89 d1             	mov    %r10d,%r9d
    2ba2:	45 89 cc             	mov    %r9d,%r12d
    2ba5:	41 89 f9             	mov    %edi,%r9d
    2ba8:	44 89 e7             	mov    %r12d,%edi
    2bab:	45 89 ca             	mov    %r9d,%r10d
    2bae:	41 83 c2 14          	add    $0x14,%r10d
    2bb2:	45 89 d3             	mov    %r10d,%r11d
    2bb5:	4c 8b bc 24 38 00 00 	mov    0x38(%rsp),%r15
    2bbc:	00 
    2bbd:	47 8b 1c 1f          	mov    (%r15,%r11,1),%r11d
    2bc1:	45 85 db             	test   %r11d,%r11d
    2bc4:	75 c5                	jne    2b8b <guest_func_9+0xc8b>
    2bc6:	45 89 ca             	mov    %r9d,%r10d
    2bc9:	41 83 c2 10          	add    $0x10,%r10d
    2bcd:	45 89 cb             	mov    %r9d,%r11d
    2bd0:	47 8b 5c 1f 10       	mov    0x10(%r15,%r11,1),%r11d
    2bd5:	45 85 db             	test   %r11d,%r11d
    2bd8:	75 c2                	jne    2b9c <guest_func_9+0xc9c>
    2bda:	89 ff                	mov    %edi,%edi
    2bdc:	44 8b bc 24 70 00 00 	mov    0x70(%rsp),%r15d
    2be3:	00 
    2be4:	4c 8b b4 24 38 00 00 	mov    0x38(%rsp),%r14
    2beb:	00 
    2bec:	45 89 3c 3e          	mov    %r15d,(%r14,%rdi,1)
    2bf0:	45 89 cf             	mov    %r9d,%r15d
    2bf3:	e9 ae 16 00 00       	jmpq   42a6 <guest_func_9+0x23a6>
    2bf8:	b8 08 05 00 00       	mov    $0x508,%eax
    2bfd:	89 c0                	mov    %eax,%eax
    2bff:	48 89 84 24 28 00 00 	mov    %rax,0x28(%rsp)
    2c06:	00 
    2c07:	4c 8b bc 24 38 00 00 	mov    0x38(%rsp),%r15
    2c0e:	00 
    2c0f:	49 89 c6             	mov    %rax,%r14
    2c12:	43 8b 04 37          	mov    (%r15,%r14,1),%eax
    2c16:	44 8b bc 24 54 00 00 	mov    0x54(%rsp),%r15d
    2c1d:	00 
    2c1e:	44 39 f8             	cmp    %r15d,%eax
    2c21:	0f 82 c0 00 00 00    	jb     2ce7 <guest_func_9+0xde7>
    2c27:	b9 14 05 00 00       	mov    $0x514,%ecx
    2c2c:	89 c9                	mov    %ecx,%ecx
    2c2e:	4c 8b bc 24 38 00 00 	mov    0x38(%rsp),%r15
    2c35:	00 
    2c36:	41 8b 14 0f          	mov    (%r15,%rcx,1),%edx
    2c3a:	89 c3                	mov    %eax,%ebx
    2c3c:	44 8b bc 24 54 00 00 	mov    0x54(%rsp),%r15d
    2c43:	00 
    2c44:	44 29 fb             	sub    %r15d,%ebx
    2c47:	83 fb 10             	cmp    $0x10,%ebx
    2c4a:	72 47                	jb     2c93 <guest_func_9+0xd93>
    2c4c:	89 d6                	mov    %edx,%esi
    2c4e:	44 01 fe             	add    %r15d,%esi
    2c51:	89 df                	mov    %ebx,%edi
    2c53:	83 cf 01             	or     $0x1,%edi
    2c56:	41 89 f0             	mov    %esi,%r8d
    2c59:	4c 8b bc 24 38 00 00 	mov    0x38(%rsp),%r15
    2c60:	00 
    2c61:	43 89 7c 07 04       	mov    %edi,0x4(%r15,%r8,1)
    2c66:	43 89 1c 37          	mov    %ebx,(%r15,%r14,1)
    2c6a:	41 89 34 0f          	mov    %esi,(%r15,%rcx,1)
    2c6e:	01 d0                	add    %edx,%eax
    2c70:	89 c0                	mov    %eax,%eax
    2c72:	41 89 1c 07          	mov    %ebx,(%r15,%rax,1)
    2c76:	44 8b bc 24 54 00 00 	mov    0x54(%rsp),%r15d
    2c7d:	00 
    2c7e:	41 83 cf 03          	or     $0x3,%r15d
    2c82:	89 d0                	mov    %edx,%eax
    2c84:	4c 8b b4 24 38 00 00 	mov    0x38(%rsp),%r14
    2c8b:	00 
    2c8c:	45 89 7c 06 04       	mov    %r15d,0x4(%r14,%rax,1)
    2c91:	eb 45                	jmp    2cd8 <guest_func_9+0xdd8>
    2c93:	89 c3                	mov    %eax,%ebx
    2c95:	83 cb 03             	or     $0x3,%ebx
    2c98:	89 d6                	mov    %edx,%esi
    2c9a:	4c 8b bc 24 38 00 00 	mov    0x38(%rsp),%r15
    2ca1:	00 
    2ca2:	41 89 5c 37 04       	mov    %ebx,0x4(%r15,%rsi,1)
    2ca7:	01 d0                	add    %edx,%eax
    2ca9:	89 c0                	mov    %eax,%eax
    2cab:	41 8b 5c 07 04       	mov    0x4(%r15,%rax,1),%ebx
    2cb0:	83 cb 01             	or     $0x1,%ebx
    2cb3:	41 89 5c 07 04       	mov    %ebx,0x4(%r15,%rax,1)
    2cb8:	44 8b bc 24 70 00 00 	mov    0x70(%rsp),%r15d
    2cbf:	00 
    2cc0:	4c 8b b4 24 38 00 00 	mov    0x38(%rsp),%r14
    2cc7:	00 
    2cc8:	45 89 3c 0e          	mov    %r15d,(%r14,%rcx,1)
    2ccc:	4c 8b ac 24 28 00 00 	mov    0x28(%rsp),%r13
    2cd3:	00 
    2cd4:	47 89 3c 2e          	mov    %r15d,(%r14,%r13,1)
    2cd8:	83 c2 08             	add    $0x8,%edx
    2cdb:	89 94 24 70 00 00 00 	mov    %edx,0x70(%rsp)
    2ce2:	e9 46 1c 00 00       	jmpq   492d <guest_func_9+0x2a2d>
    2ce7:	b8 0c 05 00 00       	mov    $0x50c,%eax
    2cec:	89 c0                	mov    %eax,%eax
    2cee:	48 89 84 24 20 00 00 	mov    %rax,0x20(%rsp)
    2cf5:	00 
    2cf6:	4c 8b bc 24 38 00 00 	mov    0x38(%rsp),%r15
    2cfd:	00 
    2cfe:	49 89 c6             	mov    %rax,%r14
    2d01:	43 8b 04 37          	mov    (%r15,%r14,1),%eax
    2d05:	44 8b bc 24 54 00 00 	mov    0x54(%rsp),%r15d
    2d0c:	00 
    2d0d:	44 39 f8             	cmp    %r15d,%eax
    2d10:	76 7a                	jbe    2d8c <guest_func_9+0xe8c>
    2d12:	4c 8b bc 24 38 00 00 	mov    0x38(%rsp),%r15
    2d19:	00 
    2d1a:	4c 8b b4 24 30 00 00 	mov    0x30(%rsp),%r14
    2d21:	00 
    2d22:	43 8b 0c 37          	mov    (%r15,%r14,1),%ecx
    2d26:	89 ca                	mov    %ecx,%edx
    2d28:	44 8b bc 24 54 00 00 	mov    0x54(%rsp),%r15d
    2d2f:	00 
    2d30:	44 01 fa             	add    %r15d,%edx
    2d33:	44 29 f8             	sub    %r15d,%eax
    2d36:	89 c3                	mov    %eax,%ebx
    2d38:	83 cb 01             	or     $0x1,%ebx
    2d3b:	89 d6                	mov    %edx,%esi
    2d3d:	4c 8b bc 24 38 00 00 	mov    0x38(%rsp),%r15
    2d44:	00 
    2d45:	41 89 5c 37 04       	mov    %ebx,0x4(%r15,%rsi,1)
    2d4a:	4c 8b b4 24 20 00 00 	mov    0x20(%rsp),%r14
    2d51:	00 
    2d52:	43 89 04 37          	mov    %eax,(%r15,%r14,1)
    2d56:	4c 8b b4 24 30 00 00 	mov    0x30(%rsp),%r14
    2d5d:	00 
    2d5e:	43 89 14 37          	mov    %edx,(%r15,%r14,1)
    2d62:	44 8b bc 24 54 00 00 	mov    0x54(%rsp),%r15d
    2d69:	00 
    2d6a:	41 83 cf 03          	or     $0x3,%r15d
    2d6e:	89 c8                	mov    %ecx,%eax
    2d70:	4c 8b b4 24 38 00 00 	mov    0x38(%rsp),%r14
    2d77:	00 
    2d78:	45 89 7c 06 04       	mov    %r15d,0x4(%r14,%rax,1)
    2d7d:	83 c1 08             	add    $0x8,%ecx
    2d80:	89 8c 24 70 00 00 00 	mov    %ecx,0x70(%rsp)
    2d87:	e9 a1 1b 00 00       	jmpq   492d <guest_func_9+0x2a2d>
    2d8c:	b9 d8 06 00 00       	mov    $0x6d8,%ecx
    2d91:	89 c9                	mov    %ecx,%ecx
    2d93:	48 89 8c 24 18 00 00 	mov    %rcx,0x18(%rsp)
    2d9a:	00 
    2d9b:	4c 8b bc 24 38 00 00 	mov    0x38(%rsp),%r15
    2da2:	00 
    2da3:	49 89 ce             	mov    %rcx,%r14
    2da6:	43 8b 0c 37          	mov    (%r15,%r14,1),%ecx
    2daa:	85 c9                	test   %ecx,%ecx
    2dac:	74 0d                	je     2dbb <guest_func_9+0xebb>
    2dae:	b9 e0 06 00 00       	mov    $0x6e0,%ecx
    2db3:	89 c9                	mov    %ecx,%ecx
    2db5:	41 8b 0c 0f          	mov    (%r15,%rcx,1),%ecx
    2db9:	eb 75                	jmp    2e30 <guest_func_9+0xf30>
    2dbb:	b9 e4 06 00 00       	mov    $0x6e4,%ecx
    2dc0:	48 c7 c2 ff ff ff ff 	mov    $0xffffffffffffffff,%rdx
    2dc7:	89 c9                	mov    %ecx,%ecx
    2dc9:	49 89 14 0f          	mov    %rdx,(%r15,%rcx,1)
    2dcd:	b9 dc 06 00 00       	mov    $0x6dc,%ecx
    2dd2:	48 ba 00 00 01 00 00 	movabs $0x1000000010000,%rdx
    2dd9:	00 01 00 
    2ddc:	89 c9                	mov    %ecx,%ecx
    2dde:	49 89 14 0f          	mov    %rdx,(%r15,%rcx,1)
    2de2:	44 8b bc 24 64 00 00 	mov    0x64(%rsp),%r15d
    2de9:	00 
    2dea:	41 83 c7 0c          	add    $0xc,%r15d
    2dee:	41 83 e7 f0          	and    $0xfffffff0,%r15d
    2df2:	41 81 f7 58 55 55 55 	xor    $0x55555558,%r15d
    2df9:	4c 8b b4 24 38 00 00 	mov    0x38(%rsp),%r14
    2e00:	00 
    2e01:	4c 8b ac 24 18 00 00 	mov    0x18(%rsp),%r13
    2e08:	00 
    2e09:	47 89 3c 2e          	mov    %r15d,(%r14,%r13,1)
    2e0d:	b9 ec 06 00 00       	mov    $0x6ec,%ecx
    2e12:	89 c9                	mov    %ecx,%ecx
    2e14:	44 8b bc 24 70 00 00 	mov    0x70(%rsp),%r15d
    2e1b:	00 
    2e1c:	45 89 3c 0e          	mov    %r15d,(%r14,%rcx,1)
    2e20:	b9 bc 06 00 00       	mov    $0x6bc,%ecx
    2e25:	89 c9                	mov    %ecx,%ecx
    2e27:	45 89 3c 0e          	mov    %r15d,(%r14,%rcx,1)
    2e2b:	b9 00 00 01 00       	mov    $0x10000,%ecx
    2e30:	44 8b bc 24 54 00 00 	mov    0x54(%rsp),%r15d
    2e37:	00 
    2e38:	41 83 c7 47          	add    $0x47,%r15d
    2e3c:	44 89 bc 24 50 00 00 	mov    %r15d,0x50(%rsp)
    2e43:	00 
    2e44:	89 ca                	mov    %ecx,%edx
    2e46:	44 01 fa             	add    %r15d,%edx
    2e49:	44 8b bc 24 70 00 00 	mov    0x70(%rsp),%r15d
    2e50:	00 
    2e51:	44 89 fb             	mov    %r15d,%ebx
    2e54:	29 cb                	sub    %ecx,%ebx
    2e56:	89 d1                	mov    %edx,%ecx
    2e58:	21 d9                	and    %ebx,%ecx
    2e5a:	89 8c 24 58 00 00 00 	mov    %ecx,0x58(%rsp)
    2e61:	41 89 cf             	mov    %ecx,%r15d
    2e64:	44 8b b4 24 54 00 00 	mov    0x54(%rsp),%r14d
    2e6b:	00 
    2e6c:	45 39 f7             	cmp    %r14d,%r15d
    2e6f:	77 1d                	ja     2e8e <guest_func_9+0xf8e>
    2e71:	b8 f0 06 00 00       	mov    $0x6f0,%eax
    2e76:	b9 30 00 00 00       	mov    $0x30,%ecx
    2e7b:	89 c0                	mov    %eax,%eax
    2e7d:	4c 8b bc 24 38 00 00 	mov    0x38(%rsp),%r15
    2e84:	00 
    2e85:	41 89 0c 07          	mov    %ecx,(%r15,%rax,1)
    2e89:	e9 9f 1a 00 00       	jmpq   492d <guest_func_9+0x2a2d>
    2e8e:	b9 b8 06 00 00       	mov    $0x6b8,%ecx
    2e93:	89 c9                	mov    %ecx,%ecx
    2e95:	48 89 8c 24 10 00 00 	mov    %rcx,0x10(%rsp)
    2e9c:	00 
    2e9d:	4c 8b bc 24 38 00 00 	mov    0x38(%rsp),%r15
    2ea4:	00 
    2ea5:	49 89 ce             	mov    %rcx,%r14
    2ea8:	43 8b 0c 37          	mov    (%r15,%r14,1),%ecx
    2eac:	85 c9                	test   %ecx,%ecx
    2eae:	74 5e                	je     2f0e <guest_func_9+0x100e>
    2eb0:	be b0 06 00 00       	mov    $0x6b0,%esi
    2eb5:	89 f6                	mov    %esi,%esi
    2eb7:	41 8b 34 37          	mov    (%r15,%rsi,1),%esi
    2ebb:	89 f7                	mov    %esi,%edi
    2ebd:	44 8b bc 24 58 00 00 	mov    0x58(%rsp),%r15d
    2ec4:	00 
    2ec5:	44 01 ff             	add    %r15d,%edi
    2ec8:	41 89 c0             	mov    %eax,%r8d
    2ecb:	40 89 f0             	rex mov %esi,%eax
    2ece:	44 89 c6             	mov    %r8d,%esi
    2ed1:	39 c7                	cmp    %eax,%edi
    2ed3:	0f 97 c0             	seta   %al
    2ed6:	44 0f b6 c0          	movzbl %al,%r8d
    2eda:	39 cf                	cmp    %ecx,%edi
    2edc:	40 89 f0             	rex mov %esi,%eax
    2edf:	76 0b                	jbe    2eec <guest_func_9+0xfec>
    2ee1:	44 8b bc 24 70 00 00 	mov    0x70(%rsp),%r15d
    2ee8:	00 
    2ee9:	45 89 f8             	mov    %r15d,%r8d
    2eec:	45 85 c0             	test   %r8d,%r8d
    2eef:	75 1d                	jne    2f0e <guest_func_9+0x100e>
    2ef1:	b8 f0 06 00 00       	mov    $0x6f0,%eax
    2ef6:	b9 30 00 00 00       	mov    $0x30,%ecx
    2efb:	89 c0                	mov    %eax,%eax
    2efd:	4c 8b bc 24 38 00 00 	mov    0x38(%rsp),%r15
    2f04:	00 
    2f05:	41 89 0c 07          	mov    %ecx,(%r15,%rax,1)
    2f09:	e9 1f 1a 00 00       	jmpq   492d <guest_func_9+0x2a2d>
    2f0e:	b9 bc 06 00 00       	mov    $0x6bc,%ecx
    2f13:	89 c9                	mov    %ecx,%ecx
    2f15:	48 89 8c 24 08 00 00 	mov    %rcx,0x8(%rsp)
    2f1c:	00 
    2f1d:	4c 8b bc 24 38 00 00 	mov    0x38(%rsp),%r15
    2f24:	00 
    2f25:	49 89 ce             	mov    %rcx,%r14
    2f28:	43 0f b6 0c 37       	movzbl (%r15,%r14,1),%ecx
    2f2d:	83 e1 04             	and    $0x4,%ecx
    2f30:	85 c9                	test   %ecx,%ecx
    2f32:	0f 85 25 03 00 00    	jne    325d <guest_func_9+0x135d>
    2f38:	4c 8b b4 24 30 00 00 	mov    0x30(%rsp),%r14
    2f3f:	00 
    2f40:	43 8b 0c 37          	mov    (%r15,%r14,1),%ecx
    2f44:	85 c9                	test   %ecx,%ecx
    2f46:	74 54                	je     2f9c <guest_func_9+0x109c>
    2f48:	be c0 06 00 00       	mov    $0x6c0,%esi
    2f4d:	89 b4 24 44 00 00 00 	mov    %esi,0x44(%rsp)
    2f54:	44 8b bc 24 44 00 00 	mov    0x44(%rsp),%r15d
    2f5b:	00 
    2f5c:	44 89 fe             	mov    %r15d,%esi
    2f5f:	4c 8b bc 24 38 00 00 	mov    0x38(%rsp),%r15
    2f66:	00 
    2f67:	41 8b 3c 37          	mov    (%r15,%rsi,1),%edi
    2f6b:	39 cf                	cmp    %ecx,%edi
    2f6d:	77 11                	ja     2f80 <guest_func_9+0x1080>
    2f6f:	45 8b 44 37 04       	mov    0x4(%r15,%rsi,1),%r8d
    2f74:	41 01 f8             	add    %edi,%r8d
    2f77:	41 39 c8             	cmp    %ecx,%r8d
    2f7a:	0f 87 48 01 00 00    	ja     30c8 <guest_func_9+0x11c8>
    2f80:	4c 8b bc 24 38 00 00 	mov    0x38(%rsp),%r15
    2f87:	00 
    2f88:	41 8b 74 37 08       	mov    0x8(%r15,%rsi,1),%esi
    2f8d:	89 b4 24 44 00 00 00 	mov    %esi,0x44(%rsp)
    2f94:	41 89 f7             	mov    %esi,%r15d
    2f97:	45 85 ff             	test   %r15d,%r15d
    2f9a:	75 b8                	jne    2f54 <guest_func_9+0x1054>
    2f9c:	4c 8b bc 24 38 00 00 	mov    0x38(%rsp),%r15
    2fa3:	00 
    2fa4:	44 8b b4 24 70 00 00 	mov    0x70(%rsp),%r14d
    2fab:	00 
    2fac:	4c 89 ff             	mov    %r15,%rdi
    2faf:	44 89 f6             	mov    %r14d,%esi
    2fb2:	e8 c9 40 00 00       	callq  7080 <guest_func_sbrk>
    2fb7:	89 84 24 48 00 00 00 	mov    %eax,0x48(%rsp)
    2fbe:	41 89 c7             	mov    %eax,%r15d
    2fc1:	41 83 ff ff          	cmp    $0xffffffff,%r15d
    2fc5:	0f 84 77 02 00 00    	je     3242 <guest_func_9+0x1342>
    2fcb:	b8 dc 06 00 00       	mov    $0x6dc,%eax
    2fd0:	89 c0                	mov    %eax,%eax
    2fd2:	4c 8b bc 24 38 00 00 	mov    0x38(%rsp),%r15
    2fd9:	00 
    2fda:	41 8b 04 07          	mov    (%r15,%rax,1),%eax
    2fde:	89 c1                	mov    %eax,%ecx
    2fe0:	83 c1 ff             	add    $0xffffffff,%ecx
    2fe3:	89 ca                	mov    %ecx,%edx
    2fe5:	44 8b bc 24 48 00 00 	mov    0x48(%rsp),%r15d
    2fec:	00 
    2fed:	44 21 fa             	and    %r15d,%edx
    2ff0:	85 d2                	test   %edx,%edx
    2ff2:	74 31                	je     3025 <guest_func_9+0x1125>
    2ff4:	44 8b bc 24 58 00 00 	mov    0x58(%rsp),%r15d
    2ffb:	00 
    2ffc:	44 8b b4 24 48 00 00 	mov    0x48(%rsp),%r14d
    3003:	00 
    3004:	45 29 f7             	sub    %r14d,%r15d
    3007:	41 01 ce             	add    %ecx,%r14d
    300a:	44 8b ac 24 70 00 00 	mov    0x70(%rsp),%r13d
    3011:	00 
    3012:	41 29 c5             	sub    %eax,%r13d
    3015:	45 21 ee             	and    %r13d,%r14d
    3018:	45 01 f7             	add    %r14d,%r15d
    301b:	44 89 bc 24 4c 00 00 	mov    %r15d,0x4c(%rsp)
    3022:	00 
    3023:	eb 10                	jmp    3035 <guest_func_9+0x1135>
    3025:	44 8b bc 24 58 00 00 	mov    0x58(%rsp),%r15d
    302c:	00 
    302d:	44 89 bc 24 4c 00 00 	mov    %r15d,0x4c(%rsp)
    3034:	00 
    3035:	44 8b bc 24 4c 00 00 	mov    0x4c(%rsp),%r15d
    303c:	00 
    303d:	44 8b b4 24 54 00 00 	mov    0x54(%rsp),%r14d
    3044:	00 
    3045:	45 39 f7             	cmp    %r14d,%r15d
    3048:	0f 86 f4 01 00 00    	jbe    3242 <guest_func_9+0x1342>
    304e:	41 81 ff fe ff ff 7f 	cmp    $0x7ffffffe,%r15d
    3055:	0f 87 e7 01 00 00    	ja     3242 <guest_func_9+0x1342>
    305b:	4c 8b bc 24 38 00 00 	mov    0x38(%rsp),%r15
    3062:	00 
    3063:	4c 8b b4 24 10 00 00 	mov    0x10(%rsp),%r14
    306a:	00 
    306b:	43 8b 04 37          	mov    (%r15,%r14,1),%eax
    306f:	85 c0                	test   %eax,%eax
    3071:	74 28                	je     309b <guest_func_9+0x119b>
    3073:	b9 b0 06 00 00       	mov    $0x6b0,%ecx
    3078:	89 c9                	mov    %ecx,%ecx
    307a:	41 8b 0c 0f          	mov    (%r15,%rcx,1),%ecx
    307e:	89 ca                	mov    %ecx,%edx
    3080:	44 8b bc 24 4c 00 00 	mov    0x4c(%rsp),%r15d
    3087:	00 
    3088:	44 01 fa             	add    %r15d,%edx
    308b:	39 ca                	cmp    %ecx,%edx
    308d:	0f 86 af 01 00 00    	jbe    3242 <guest_func_9+0x1342>
    3093:	39 c2                	cmp    %eax,%edx
    3095:	0f 87 a7 01 00 00    	ja     3242 <guest_func_9+0x1342>
    309b:	4c 8b bc 24 38 00 00 	mov    0x38(%rsp),%r15
    30a2:	00 
    30a3:	44 8b b4 24 4c 00 00 	mov    0x4c(%rsp),%r14d
    30aa:	00 
    30ab:	4c 89 ff             	mov    %r15,%rdi
    30ae:	44 89 f6             	mov    %r14d,%esi
    30b1:	e8 ca 3f 00 00       	callq  7080 <guest_func_sbrk>
    30b6:	44 8b bc 24 48 00 00 	mov    0x48(%rsp),%r15d
    30bd:	00 
    30be:	41 39 c7             	cmp    %eax,%r15d
    30c1:	75 6e                	jne    3131 <guest_func_9+0x1231>
    30c3:	e9 2d 02 00 00       	jmpq   32f5 <guest_func_9+0x13f5>
    30c8:	29 c2                	sub    %eax,%edx
    30ca:	21 da                	and    %ebx,%edx
    30cc:	89 94 24 4c 00 00 00 	mov    %edx,0x4c(%rsp)
    30d3:	41 89 d7             	mov    %edx,%r15d
    30d6:	41 81 ff fe ff ff 7f 	cmp    $0x7ffffffe,%r15d
    30dd:	0f 87 5f 01 00 00    	ja     3242 <guest_func_9+0x1342>
    30e3:	4c 8b bc 24 38 00 00 	mov    0x38(%rsp),%r15
    30ea:	00 
    30eb:	41 89 d6             	mov    %edx,%r14d
    30ee:	4c 89 ff             	mov    %r15,%rdi
    30f1:	44 89 f6             	mov    %r14d,%esi
    30f4:	e8 87 3f 00 00       	callq  7080 <guest_func_sbrk>
    30f9:	89 84 24 48 00 00 00 	mov    %eax,0x48(%rsp)
    3100:	44 8b bc 24 44 00 00 	mov    0x44(%rsp),%r15d
    3107:	00 
    3108:	44 89 f8             	mov    %r15d,%eax
    310b:	4c 8b bc 24 38 00 00 	mov    0x38(%rsp),%r15
    3112:	00 
    3113:	41 8b 0c 07          	mov    (%r15,%rax,1),%ecx
    3117:	41 8b 44 07 04       	mov    0x4(%r15,%rax,1),%eax
    311c:	01 c1                	add    %eax,%ecx
    311e:	44 8b bc 24 48 00 00 	mov    0x48(%rsp),%r15d
    3125:	00 
    3126:	41 39 cf             	cmp    %ecx,%r15d
    3129:	0f 84 09 01 00 00    	je     3238 <guest_func_9+0x1338>
    312f:	eb 07                	jmp    3138 <guest_func_9+0x1238>
    3131:	89 84 24 48 00 00 00 	mov    %eax,0x48(%rsp)
    3138:	44 8b bc 24 54 00 00 	mov    0x54(%rsp),%r15d
    313f:	00 
    3140:	41 83 c7 48          	add    $0x48,%r15d
    3144:	44 8b b4 24 4c 00 00 	mov    0x4c(%rsp),%r14d
    314b:	00 
    314c:	45 39 f7             	cmp    %r14d,%r15d
    314f:	0f 86 c2 00 00 00    	jbe    3217 <guest_func_9+0x1317>
    3155:	44 8b bc 24 48 00 00 	mov    0x48(%rsp),%r15d
    315c:	00 
    315d:	41 83 ff ff          	cmp    $0xffffffff,%r15d
    3161:	0f 84 b0 00 00 00    	je     3217 <guest_func_9+0x1317>
    3167:	b8 e0 06 00 00       	mov    $0x6e0,%eax
    316c:	89 c0                	mov    %eax,%eax
    316e:	4c 8b bc 24 38 00 00 	mov    0x38(%rsp),%r15
    3175:	00 
    3176:	41 8b 04 07          	mov    (%r15,%rax,1),%eax
    317a:	44 8b bc 24 50 00 00 	mov    0x50(%rsp),%r15d
    3181:	00 
    3182:	45 29 f7             	sub    %r14d,%r15d
    3185:	89 c1                	mov    %eax,%ecx
    3187:	44 01 f9             	add    %r15d,%ecx
    318a:	44 8b bc 24 70 00 00 	mov    0x70(%rsp),%r15d
    3191:	00 
    3192:	41 29 c7             	sub    %eax,%r15d
    3195:	44 21 f9             	and    %r15d,%ecx
    3198:	89 8c 24 40 00 00 00 	mov    %ecx,0x40(%rsp)
    319f:	41 89 cf             	mov    %ecx,%r15d
    31a2:	41 81 ff fe ff ff 7f 	cmp    $0x7ffffffe,%r15d
    31a9:	0f 86 05 00 00 00    	jbe    31b4 <guest_func_9+0x12b4>
    31af:	e9 41 01 00 00       	jmpq   32f5 <guest_func_9+0x13f5>
    31b4:	4c 8b bc 24 38 00 00 	mov    0x38(%rsp),%r15
    31bb:	00 
    31bc:	41 89 ce             	mov    %ecx,%r14d
    31bf:	4c 89 ff             	mov    %r15,%rdi
    31c2:	44 89 f6             	mov    %r14d,%esi
    31c5:	e8 b6 3e 00 00       	callq  7080 <guest_func_sbrk>
    31ca:	83 f8 ff             	cmp    $0xffffffff,%eax
    31cd:	74 20                	je     31ef <guest_func_9+0x12ef>
    31cf:	44 8b bc 24 40 00 00 	mov    0x40(%rsp),%r15d
    31d6:	00 
    31d7:	44 8b b4 24 4c 00 00 	mov    0x4c(%rsp),%r14d
    31de:	00 
    31df:	45 01 f7             	add    %r14d,%r15d
    31e2:	44 89 bc 24 4c 00 00 	mov    %r15d,0x4c(%rsp)
    31e9:	00 
    31ea:	e9 06 01 00 00       	jmpq   32f5 <guest_func_9+0x13f5>
    31ef:	44 8b bc 24 70 00 00 	mov    0x70(%rsp),%r15d
    31f6:	00 
    31f7:	44 8b b4 24 4c 00 00 	mov    0x4c(%rsp),%r14d
    31fe:	00 
    31ff:	45 29 f7             	sub    %r14d,%r15d
    3202:	4c 8b b4 24 38 00 00 	mov    0x38(%rsp),%r14
    3209:	00 
    320a:	4c 89 f7             	mov    %r14,%rdi
    320d:	44 89 fe             	mov    %r15d,%esi
    3210:	e8 6b 3e 00 00       	callq  7080 <guest_func_sbrk>
    3215:	eb 2b                	jmp    3242 <guest_func_9+0x1342>
    3217:	44 8b bc 24 48 00 00 	mov    0x48(%rsp),%r15d
    321e:	00 
    321f:	41 83 ff ff          	cmp    $0xffffffff,%r15d
    3223:	0f 85 cc 00 00 00    	jne    32f5 <guest_func_9+0x13f5>
    3229:	eb 17                	jmp    3242 <guest_func_9+0x1342>
    322b:	44 8b bc 24 70 00 00 	mov    0x70(%rsp),%r15d
    3232:	00 
    3233:	e9 6e 10 00 00       	jmpq   42a6 <guest_func_9+0x23a6>
    3238:	41 83 ff ff          	cmp    $0xffffffff,%r15d
    323c:	0f 85 b3 00 00 00    	jne    32f5 <guest_func_9+0x13f5>
    3242:	4c 8b bc 24 38 00 00 	mov    0x38(%rsp),%r15
    3249:	00 
    324a:	4c 8b b4 24 08 00 00 	mov    0x8(%rsp),%r14
    3251:	00 
    3252:	43 8b 04 37          	mov    (%r15,%r14,1),%eax
    3256:	83 c8 04             	or     $0x4,%eax
    3259:	43 89 04 37          	mov    %eax,(%r15,%r14,1)
    325d:	44 8b bc 24 58 00 00 	mov    0x58(%rsp),%r15d
    3264:	00 
    3265:	41 81 ff fe ff ff 7f 	cmp    $0x7ffffffe,%r15d
    326c:	0f 87 17 10 00 00    	ja     4289 <guest_func_9+0x2389>
    3272:	4c 8b bc 24 38 00 00 	mov    0x38(%rsp),%r15
    3279:	00 
    327a:	44 8b b4 24 58 00 00 	mov    0x58(%rsp),%r14d
    3281:	00 
    3282:	4c 89 ff             	mov    %r15,%rdi
    3285:	44 89 f6             	mov    %r14d,%esi
    3288:	e8 f3 3d 00 00       	callq  7080 <guest_func_sbrk>
    328d:	89 84 24 48 00 00 00 	mov    %eax,0x48(%rsp)
    3294:	4c 8b bc 24 38 00 00 	mov    0x38(%rsp),%r15
    329b:	00 
    329c:	44 8b b4 24 70 00 00 	mov    0x70(%rsp),%r14d
    32a3:	00 
    32a4:	4c 89 ff             	mov    %r15,%rdi
    32a7:	44 89 f6             	mov    %r14d,%esi
    32aa:	e8 d1 3d 00 00       	callq  7080 <guest_func_sbrk>
    32af:	44 8b bc 24 48 00 00 	mov    0x48(%rsp),%r15d
    32b6:	00 
    32b7:	41 39 c7             	cmp    %eax,%r15d
    32ba:	0f 83 c9 0f 00 00    	jae    4289 <guest_func_9+0x2389>
    32c0:	41 83 ff ff          	cmp    $0xffffffff,%r15d
    32c4:	0f 84 bf 0f 00 00    	je     4289 <guest_func_9+0x2389>
    32ca:	83 f8 ff             	cmp    $0xffffffff,%eax
    32cd:	0f 84 b6 0f 00 00    	je     4289 <guest_func_9+0x2389>
    32d3:	44 29 f8             	sub    %r15d,%eax
    32d6:	89 84 24 4c 00 00 00 	mov    %eax,0x4c(%rsp)
    32dd:	44 8b bc 24 54 00 00 	mov    0x54(%rsp),%r15d
    32e4:	00 
    32e5:	41 83 c7 38          	add    $0x38,%r15d
    32e9:	41 89 c6             	mov    %eax,%r14d
    32ec:	45 39 fe             	cmp    %r15d,%r14d
    32ef:	0f 86 94 0f 00 00    	jbe    4289 <guest_func_9+0x2389>
    32f5:	b8 b0 06 00 00       	mov    $0x6b0,%eax
    32fa:	89 c0                	mov    %eax,%eax
    32fc:	4c 8b bc 24 38 00 00 	mov    0x38(%rsp),%r15
    3303:	00 
    3304:	41 8b 0c 07          	mov    (%r15,%rax,1),%ecx
    3308:	44 8b bc 24 4c 00 00 	mov    0x4c(%rsp),%r15d
    330f:	00 
    3310:	44 01 f9             	add    %r15d,%ecx
    3313:	4c 8b bc 24 38 00 00 	mov    0x38(%rsp),%r15
    331a:	00 
    331b:	41 89 0c 07          	mov    %ecx,(%r15,%rax,1)
    331f:	b8 b4 06 00 00       	mov    $0x6b4,%eax
    3324:	89 c0                	mov    %eax,%eax
    3326:	41 8b 04 07          	mov    (%r15,%rax,1),%eax
    332a:	39 c1                	cmp    %eax,%ecx
    332c:	0f 86 0b 00 00 00    	jbe    333d <guest_func_9+0x143d>
    3332:	b8 b4 06 00 00       	mov    $0x6b4,%eax
    3337:	89 c0                	mov    %eax,%eax
    3339:	41 89 0c 07          	mov    %ecx,(%r15,%rax,1)
    333d:	4c 8b bc 24 38 00 00 	mov    0x38(%rsp),%r15
    3344:	00 
    3345:	4c 8b b4 24 30 00 00 	mov    0x30(%rsp),%r14
    334c:	00 
    334d:	43 8b 04 37          	mov    (%r15,%r14,1),%eax
    3351:	85 c0                	test   %eax,%eax
    3353:	74 45                	je     339a <guest_func_9+0x149a>
    3355:	b9 c0 06 00 00       	mov    $0x6c0,%ecx
    335a:	89 ca                	mov    %ecx,%edx
    335c:	89 d2                	mov    %edx,%edx
    335e:	4c 8b bc 24 38 00 00 	mov    0x38(%rsp),%r15
    3365:	00 
    3366:	41 8b 1c 17          	mov    (%r15,%rdx,1),%ebx
    336a:	41 8b 74 17 04       	mov    0x4(%r15,%rdx,1),%esi
    336f:	89 df                	mov    %ebx,%edi
    3371:	01 f7                	add    %esi,%edi
    3373:	44 8b bc 24 48 00 00 	mov    0x48(%rsp),%r15d
    337a:	00 
    337b:	44 39 ff             	cmp    %r15d,%edi
    337e:	0f 84 d7 01 00 00    	je     355b <guest_func_9+0x165b>
    3384:	4c 8b bc 24 38 00 00 	mov    0x38(%rsp),%r15
    338b:	00 
    338c:	41 8b 54 17 08       	mov    0x8(%r15,%rdx,1),%edx
    3391:	85 d2                	test   %edx,%edx
    3393:	75 c7                	jne    335c <guest_func_9+0x145c>
    3395:	e9 a8 02 00 00       	jmpq   3642 <guest_func_9+0x1742>
    339a:	b8 10 05 00 00       	mov    $0x510,%eax
    339f:	89 c0                	mov    %eax,%eax
    33a1:	41 8b 0c 07          	mov    (%r15,%rax,1),%ecx
    33a5:	83 f9 00             	cmp    $0x0,%ecx
    33a8:	0f 94 c2             	sete   %dl
    33ab:	0f b6 d2             	movzbl %dl,%edx
    33ae:	83 fa 00             	cmp    $0x0,%edx
    33b1:	0f 94 c2             	sete   %dl
    33b4:	0f b6 d2             	movzbl %dl,%edx
    33b7:	44 8b bc 24 48 00 00 	mov    0x48(%rsp),%r15d
    33be:	00 
    33bf:	41 39 cf             	cmp    %ecx,%r15d
    33c2:	0f 83 0b 00 00 00    	jae    33d3 <guest_func_9+0x14d3>
    33c8:	44 8b bc 24 70 00 00 	mov    0x70(%rsp),%r15d
    33cf:	00 
    33d0:	44 89 fa             	mov    %r15d,%edx
    33d3:	85 d2                	test   %edx,%edx
    33d5:	0f 85 14 00 00 00    	jne    33ef <guest_func_9+0x14ef>
    33db:	44 8b bc 24 48 00 00 	mov    0x48(%rsp),%r15d
    33e2:	00 
    33e3:	4c 8b b4 24 38 00 00 	mov    0x38(%rsp),%r14
    33ea:	00 
    33eb:	45 89 3c 06          	mov    %r15d,(%r14,%rax,1)
    33ef:	b8 c4 06 00 00       	mov    $0x6c4,%eax
    33f4:	89 c0                	mov    %eax,%eax
    33f6:	44 8b bc 24 4c 00 00 	mov    0x4c(%rsp),%r15d
    33fd:	00 
    33fe:	4c 8b b4 24 38 00 00 	mov    0x38(%rsp),%r14
    3405:	00 
    3406:	45 89 3c 06          	mov    %r15d,(%r14,%rax,1)
    340a:	b8 c0 06 00 00       	mov    $0x6c0,%eax
    340f:	89 c0                	mov    %eax,%eax
    3411:	44 8b bc 24 48 00 00 	mov    0x48(%rsp),%r15d
    3418:	00 
    3419:	45 89 3c 06          	mov    %r15d,(%r14,%rax,1)
    341d:	b8 20 05 00 00       	mov    $0x520,%eax
    3422:	b9 ff ff ff ff       	mov    $0xffffffff,%ecx
    3427:	89 c0                	mov    %eax,%eax
    3429:	4d 89 f7             	mov    %r14,%r15
    342c:	41 89 0c 07          	mov    %ecx,(%r15,%rax,1)
    3430:	b8 24 05 00 00       	mov    $0x524,%eax
    3435:	4c 8b b4 24 18 00 00 	mov    0x18(%rsp),%r14
    343c:	00 
    343d:	43 8b 0c 37          	mov    (%r15,%r14,1),%ecx
    3441:	89 c0                	mov    %eax,%eax
    3443:	41 89 0c 07          	mov    %ecx,(%r15,%rax,1)
    3447:	b8 cc 06 00 00       	mov    $0x6cc,%eax
    344c:	89 c0                	mov    %eax,%eax
    344e:	44 8b bc 24 70 00 00 	mov    0x70(%rsp),%r15d
    3455:	00 
    3456:	4c 8b b4 24 38 00 00 	mov    0x38(%rsp),%r14
    345d:	00 
    345e:	45 89 3c 06          	mov    %r15d,(%r14,%rax,1)
    3462:	e9 03 00 00 00       	jmpq   346a <guest_func_9+0x156a>
    3467:	41 89 c7             	mov    %eax,%r15d
    346a:	44 89 f8             	mov    %r15d,%eax
    346d:	81 c0 30 05 00 00    	add    $0x530,%eax
    3473:	44 89 f9             	mov    %r15d,%ecx
    3476:	81 c1 28 05 00 00    	add    $0x528,%ecx
    347c:	89 c0                	mov    %eax,%eax
    347e:	4c 8b b4 24 38 00 00 	mov    0x38(%rsp),%r14
    3485:	00 
    3486:	41 89 0c 06          	mov    %ecx,(%r14,%rax,1)
    348a:	44 89 f8             	mov    %r15d,%eax
    348d:	81 c0 34 05 00 00    	add    $0x534,%eax
    3493:	89 c0                	mov    %eax,%eax
    3495:	41 89 0c 06          	mov    %ecx,(%r14,%rax,1)
    3499:	44 89 f8             	mov    %r15d,%eax
    349c:	83 c0 08             	add    $0x8,%eax
    349f:	81 f8 00 01 00 00    	cmp    $0x100,%eax
    34a5:	75 c0                	jne    3467 <guest_func_9+0x1567>
    34a7:	b8 f8 ff ff ff       	mov    $0xfffffff8,%eax
    34ac:	44 8b bc 24 48 00 00 	mov    0x48(%rsp),%r15d
    34b3:	00 
    34b4:	44 29 f8             	sub    %r15d,%eax
    34b7:	83 e0 0f             	and    $0xf,%eax
    34ba:	41 83 c7 08          	add    $0x8,%r15d
    34be:	41 83 e7 0f          	and    $0xf,%r15d
    34c2:	45 85 ff             	test   %r15d,%r15d
    34c5:	0f 85 0b 00 00 00    	jne    34d6 <guest_func_9+0x15d6>
    34cb:	44 8b bc 24 70 00 00 	mov    0x70(%rsp),%r15d
    34d2:	00 
    34d3:	44 89 f8             	mov    %r15d,%eax
    34d6:	89 c1                	mov    %eax,%ecx
    34d8:	44 8b bc 24 48 00 00 	mov    0x48(%rsp),%r15d
    34df:	00 
    34e0:	44 01 f9             	add    %r15d,%ecx
    34e3:	44 8b bc 24 4c 00 00 	mov    0x4c(%rsp),%r15d
    34ea:	00 
    34eb:	41 83 c7 c8          	add    $0xffffffc8,%r15d
    34ef:	44 89 fa             	mov    %r15d,%edx
    34f2:	29 c2                	sub    %eax,%edx
    34f4:	89 d0                	mov    %edx,%eax
    34f6:	83 c8 01             	or     $0x1,%eax
    34f9:	89 cb                	mov    %ecx,%ebx
    34fb:	4c 8b b4 24 38 00 00 	mov    0x38(%rsp),%r14
    3502:	00 
    3503:	41 89 44 1e 04       	mov    %eax,0x4(%r14,%rbx,1)
    3508:	b8 1c 05 00 00       	mov    $0x51c,%eax
    350d:	bb e8 06 00 00       	mov    $0x6e8,%ebx
    3512:	89 db                	mov    %ebx,%ebx
    3514:	41 8b 1c 1e          	mov    (%r14,%rbx,1),%ebx
    3518:	89 c0                	mov    %eax,%eax
    351a:	41 89 1c 06          	mov    %ebx,(%r14,%rax,1)
    351e:	4c 8b ac 24 20 00 00 	mov    0x20(%rsp),%r13
    3525:	00 
    3526:	43 89 14 2e          	mov    %edx,(%r14,%r13,1)
    352a:	4c 8b ac 24 30 00 00 	mov    0x30(%rsp),%r13
    3531:	00 
    3532:	43 89 0c 2e          	mov    %ecx,(%r14,%r13,1)
    3536:	44 8b b4 24 48 00 00 	mov    0x48(%rsp),%r14d
    353d:	00 
    353e:	45 01 fe             	add    %r15d,%r14d
    3541:	b8 38 00 00 00       	mov    $0x38,%eax
    3546:	44 89 f1             	mov    %r14d,%ecx
    3549:	4c 8b bc 24 38 00 00 	mov    0x38(%rsp),%r15
    3550:	00 
    3551:	41 89 44 0f 04       	mov    %eax,0x4(%r15,%rcx,1)
    3556:	e9 8f 0c 00 00       	jmpq   41ea <guest_func_9+0x22ea>
    355b:	4c 8b bc 24 38 00 00 	mov    0x38(%rsp),%r15
    3562:	00 
    3563:	41 0f b6 7c 17 0c    	movzbl 0xc(%r15,%rdx,1),%edi
    3569:	83 e7 08             	and    $0x8,%edi
    356c:	85 ff                	test   %edi,%edi
    356e:	0f 85 ce 00 00 00    	jne    3642 <guest_func_9+0x1742>
    3574:	44 8b bc 24 48 00 00 	mov    0x48(%rsp),%r15d
    357b:	00 
    357c:	41 39 c7             	cmp    %eax,%r15d
    357f:	0f 86 bd 00 00 00    	jbe    3642 <guest_func_9+0x1742>
    3585:	39 c3                	cmp    %eax,%ebx
    3587:	0f 87 b5 00 00 00    	ja     3642 <guest_func_9+0x1742>
    358d:	b9 f8 ff ff ff       	mov    $0xfffffff8,%ecx
    3592:	29 c1                	sub    %eax,%ecx
    3594:	83 e1 0f             	and    $0xf,%ecx
    3597:	89 c3                	mov    %eax,%ebx
    3599:	83 c3 08             	add    $0x8,%ebx
    359c:	83 e3 0f             	and    $0xf,%ebx
    359f:	85 db                	test   %ebx,%ebx
    35a1:	0f 85 0b 00 00 00    	jne    35b2 <guest_func_9+0x16b2>
    35a7:	44 8b bc 24 70 00 00 	mov    0x70(%rsp),%r15d
    35ae:	00 
    35af:	44 89 f9             	mov    %r15d,%ecx
    35b2:	89 cb                	mov    %ecx,%ebx
    35b4:	01 c3                	add    %eax,%ebx
    35b6:	4c 8b bc 24 38 00 00 	mov    0x38(%rsp),%r15
    35bd:	00 
    35be:	4c 8b b4 24 20 00 00 	mov    0x20(%rsp),%r14
    35c5:	00 
    35c6:	43 8b 3c 37          	mov    (%r15,%r14,1),%edi
    35ca:	44 8b bc 24 4c 00 00 	mov    0x4c(%rsp),%r15d
    35d1:	00 
    35d2:	44 01 ff             	add    %r15d,%edi
    35d5:	41 89 f8             	mov    %edi,%r8d
    35d8:	41 29 c8             	sub    %ecx,%r8d
    35db:	44 89 c1             	mov    %r8d,%ecx
    35de:	83 c9 01             	or     $0x1,%ecx
    35e1:	41 89 d9             	mov    %ebx,%r9d
    35e4:	4c 8b bc 24 38 00 00 	mov    0x38(%rsp),%r15
    35eb:	00 
    35ec:	43 89 4c 0f 04       	mov    %ecx,0x4(%r15,%r9,1)
    35f1:	44 8b bc 24 4c 00 00 	mov    0x4c(%rsp),%r15d
    35f8:	00 
    35f9:	44 01 fe             	add    %r15d,%esi
    35fc:	4c 8b bc 24 38 00 00 	mov    0x38(%rsp),%r15
    3603:	00 
    3604:	41 89 74 17 04       	mov    %esi,0x4(%r15,%rdx,1)
    3609:	b9 1c 05 00 00       	mov    $0x51c,%ecx
    360e:	ba e8 06 00 00       	mov    $0x6e8,%edx
    3613:	89 d2                	mov    %edx,%edx
    3615:	41 8b 14 17          	mov    (%r15,%rdx,1),%edx
    3619:	89 c9                	mov    %ecx,%ecx
    361b:	41 89 14 0f          	mov    %edx,(%r15,%rcx,1)
    361f:	47 89 04 37          	mov    %r8d,(%r15,%r14,1)
    3623:	4c 8b b4 24 30 00 00 	mov    0x30(%rsp),%r14
    362a:	00 
    362b:	43 89 1c 37          	mov    %ebx,(%r15,%r14,1)
    362f:	01 c7                	add    %eax,%edi
    3631:	b8 38 00 00 00       	mov    $0x38,%eax
    3636:	89 f9                	mov    %edi,%ecx
    3638:	41 89 44 0f 04       	mov    %eax,0x4(%r15,%rcx,1)
    363d:	e9 a8 0b 00 00       	jmpq   41ea <guest_func_9+0x22ea>
    3642:	ba 10 05 00 00       	mov    $0x510,%edx
    3647:	89 d2                	mov    %edx,%edx
    3649:	4c 8b bc 24 38 00 00 	mov    0x38(%rsp),%r15
    3650:	00 
    3651:	41 8b 14 17          	mov    (%r15,%rdx,1),%edx
    3655:	44 8b bc 24 48 00 00 	mov    0x48(%rsp),%r15d
    365c:	00 
    365d:	41 39 d7             	cmp    %edx,%r15d
    3660:	0f 83 16 00 00 00    	jae    367c <guest_func_9+0x177c>
    3666:	ba 10 05 00 00       	mov    $0x510,%edx
    366b:	89 d2                	mov    %edx,%edx
    366d:	4c 8b b4 24 38 00 00 	mov    0x38(%rsp),%r14
    3674:	00 
    3675:	45 89 3c 16          	mov    %r15d,(%r14,%rdx,1)
    3679:	44 89 fa             	mov    %r15d,%edx
    367c:	44 8b bc 24 48 00 00 	mov    0x48(%rsp),%r15d
    3683:	00 
    3684:	44 8b b4 24 4c 00 00 	mov    0x4c(%rsp),%r14d
    368b:	00 
    368c:	44 89 fb             	mov    %r15d,%ebx
    368f:	44 01 f3             	add    %r14d,%ebx
    3692:	89 ce                	mov    %ecx,%esi
    3694:	89 f6                	mov    %esi,%esi
    3696:	4c 8b bc 24 38 00 00 	mov    0x38(%rsp),%r15
    369d:	00 
    369e:	41 8b 3c 37          	mov    (%r15,%rsi,1),%edi
    36a2:	39 fb                	cmp    %edi,%ebx
    36a4:	0f 84 0e 00 00 00    	je     36b8 <guest_func_9+0x17b8>
    36aa:	41 8b 74 37 08       	mov    0x8(%r15,%rsi,1),%esi
    36af:	85 f6                	test   %esi,%esi
    36b1:	75 e1                	jne    3694 <guest_func_9+0x1794>
    36b3:	e9 11 00 00 00       	jmpq   36c9 <guest_func_9+0x17c9>
    36b8:	41 0f b6 7c 37 0c    	movzbl 0xc(%r15,%rsi,1),%edi
    36be:	83 e7 08             	and    $0x8,%edi
    36c1:	85 ff                	test   %edi,%edi
    36c3:	0f 84 36 00 00 00    	je     36ff <guest_func_9+0x17ff>
    36c9:	89 ca                	mov    %ecx,%edx
    36cb:	89 d2                	mov    %edx,%edx
    36cd:	4c 8b bc 24 38 00 00 	mov    0x38(%rsp),%r15
    36d4:	00 
    36d5:	41 8b 1c 17          	mov    (%r15,%rdx,1),%ebx
    36d9:	39 c3                	cmp    %eax,%ebx
    36db:	0f 87 0f 00 00 00    	ja     36f0 <guest_func_9+0x17f0>
    36e1:	41 8b 74 17 04       	mov    0x4(%r15,%rdx,1),%esi
    36e6:	01 de                	add    %ebx,%esi
    36e8:	39 c6                	cmp    %eax,%esi
    36ea:	0f 87 7a 06 00 00    	ja     3d6a <guest_func_9+0x1e6a>
    36f0:	4c 8b bc 24 38 00 00 	mov    0x38(%rsp),%r15
    36f7:	00 
    36f8:	41 8b 54 17 08       	mov    0x8(%r15,%rdx,1),%edx
    36fd:	eb cc                	jmp    36cb <guest_func_9+0x17cb>
    36ff:	44 8b bc 24 48 00 00 	mov    0x48(%rsp),%r15d
    3706:	00 
    3707:	4c 8b b4 24 38 00 00 	mov    0x38(%rsp),%r14
    370e:	00 
    370f:	45 89 3c 36          	mov    %r15d,(%r14,%rsi,1)
    3713:	4d 89 f7             	mov    %r14,%r15
    3716:	41 8b 4c 37 04       	mov    0x4(%r15,%rsi,1),%ecx
    371b:	44 8b bc 24 4c 00 00 	mov    0x4c(%rsp),%r15d
    3722:	00 
    3723:	44 01 f9             	add    %r15d,%ecx
    3726:	4d 89 f7             	mov    %r14,%r15
    3729:	41 89 4c 37 04       	mov    %ecx,0x4(%r15,%rsi,1)
    372e:	b9 f8 ff ff ff       	mov    $0xfffffff8,%ecx
    3733:	89 ce                	mov    %ecx,%esi
    3735:	44 8b bc 24 48 00 00 	mov    0x48(%rsp),%r15d
    373c:	00 
    373d:	44 29 fe             	sub    %r15d,%esi
    3740:	83 e6 0f             	and    $0xf,%esi
    3743:	41 83 c7 08          	add    $0x8,%r15d
    3747:	41 83 e7 0f          	and    $0xf,%r15d
    374b:	45 85 ff             	test   %r15d,%r15d
    374e:	0f 85 0b 00 00 00    	jne    375f <guest_func_9+0x185f>
    3754:	44 8b bc 24 70 00 00 	mov    0x70(%rsp),%r15d
    375b:	00 
    375c:	44 89 fe             	mov    %r15d,%esi
    375f:	44 8b bc 24 48 00 00 	mov    0x48(%rsp),%r15d
    3766:	00 
    3767:	44 01 fe             	add    %r15d,%esi
    376a:	44 8b bc 24 54 00 00 	mov    0x54(%rsp),%r15d
    3771:	00 
    3772:	41 83 cf 03          	or     $0x3,%r15d
    3776:	89 f7                	mov    %esi,%edi
    3778:	4c 8b b4 24 38 00 00 	mov    0x38(%rsp),%r14
    377f:	00 
    3780:	45 89 7c 3e 04       	mov    %r15d,0x4(%r14,%rdi,1)
    3785:	29 d9                	sub    %ebx,%ecx
    3787:	83 e1 0f             	and    $0xf,%ecx
    378a:	89 df                	mov    %ebx,%edi
    378c:	83 c7 08             	add    $0x8,%edi
    378f:	83 e7 0f             	and    $0xf,%edi
    3792:	85 ff                	test   %edi,%edi
    3794:	0f 85 0b 00 00 00    	jne    37a5 <guest_func_9+0x18a5>
    379a:	44 8b bc 24 70 00 00 	mov    0x70(%rsp),%r15d
    37a1:	00 
    37a2:	44 89 f9             	mov    %r15d,%ecx
    37a5:	01 d9                	add    %ebx,%ecx
    37a7:	89 cb                	mov    %ecx,%ebx
    37a9:	29 f3                	sub    %esi,%ebx
    37ab:	44 8b bc 24 54 00 00 	mov    0x54(%rsp),%r15d
    37b2:	00 
    37b3:	44 29 fb             	sub    %r15d,%ebx
    37b6:	44 89 ff             	mov    %r15d,%edi
    37b9:	01 f7                	add    %esi,%edi
    37bb:	39 c1                	cmp    %eax,%ecx
    37bd:	0f 85 35 00 00 00    	jne    37f8 <guest_func_9+0x18f8>
    37c3:	4c 8b bc 24 38 00 00 	mov    0x38(%rsp),%r15
    37ca:	00 
    37cb:	4c 8b b4 24 30 00 00 	mov    0x30(%rsp),%r14
    37d2:	00 
    37d3:	43 89 3c 37          	mov    %edi,(%r15,%r14,1)
    37d7:	4c 8b b4 24 20 00 00 	mov    0x20(%rsp),%r14
    37de:	00 
    37df:	43 8b 04 37          	mov    (%r15,%r14,1),%eax
    37e3:	01 d8                	add    %ebx,%eax
    37e5:	43 89 04 37          	mov    %eax,(%r15,%r14,1)
    37e9:	83 c8 01             	or     $0x1,%eax
    37ec:	89 f9                	mov    %edi,%ecx
    37ee:	41 89 44 0f 04       	mov    %eax,0x4(%r15,%rcx,1)
    37f3:	e9 ac 09 00 00       	jmpq   41a4 <guest_func_9+0x22a4>
    37f8:	b8 14 05 00 00       	mov    $0x514,%eax
    37fd:	89 c0                	mov    %eax,%eax
    37ff:	4c 8b bc 24 38 00 00 	mov    0x38(%rsp),%r15
    3806:	00 
    3807:	45 8b 04 07          	mov    (%r15,%rax,1),%r8d
    380b:	44 39 c1             	cmp    %r8d,%ecx
    380e:	0f 85 31 00 00 00    	jne    3845 <guest_func_9+0x1945>
    3814:	41 89 3c 07          	mov    %edi,(%r15,%rax,1)
    3818:	4c 8b b4 24 28 00 00 	mov    0x28(%rsp),%r14
    381f:	00 
    3820:	43 8b 04 37          	mov    (%r15,%r14,1),%eax
    3824:	01 d8                	add    %ebx,%eax
    3826:	43 89 04 37          	mov    %eax,(%r15,%r14,1)
    382a:	89 c1                	mov    %eax,%ecx
    382c:	83 c9 01             	or     $0x1,%ecx
    382f:	89 fa                	mov    %edi,%edx
    3831:	41 89 4c 17 04       	mov    %ecx,0x4(%r15,%rdx,1)
    3836:	89 c1                	mov    %eax,%ecx
    3838:	01 f9                	add    %edi,%ecx
    383a:	89 c9                	mov    %ecx,%ecx
    383c:	41 89 04 0f          	mov    %eax,(%r15,%rcx,1)
    3840:	e9 5f 09 00 00       	jmpq   41a4 <guest_func_9+0x22a4>
    3845:	89 c8                	mov    %ecx,%eax
    3847:	45 8b 44 07 04       	mov    0x4(%r15,%rax,1),%r8d
    384c:	45 89 c1             	mov    %r8d,%r9d
    384f:	41 83 e1 03          	and    $0x3,%r9d
    3853:	41 ba 01 00 00 00    	mov    $0x1,%r10d
    3859:	41 83 f9 01          	cmp    $0x1,%r9d
    385d:	0f 85 8d 02 00 00    	jne    3af0 <guest_func_9+0x1bf0>
    3863:	45 89 c1             	mov    %r8d,%r9d
    3866:	41 83 e1 f8          	and    $0xfffffff8,%r9d
    386a:	41 81 f8 ff 00 00 00 	cmp    $0xff,%r8d
    3871:	0f 87 86 00 00 00    	ja     38fd <guest_func_9+0x19fd>
    3877:	41 8b 54 07 0c       	mov    0xc(%r15,%rax,1),%edx
    387c:	41 8b 44 07 08       	mov    0x8(%r15,%rax,1),%eax
    3881:	41 c1 e8 03          	shr    $0x3,%r8d
    3885:	45 89 c3             	mov    %r8d,%r11d
    3888:	41 c1 e3 03          	shl    $0x3,%r11d
    388c:	41 81 c3 28 05 00 00 	add    $0x528,%r11d
    3893:	44 39 d8             	cmp    %r11d,%eax
    3896:	0f 84 00 00 00 00    	je     389c <guest_func_9+0x199c>
    389c:	39 d0                	cmp    %edx,%eax
    389e:	0f 85 34 00 00 00    	jne    38d8 <guest_func_9+0x19d8>
    38a4:	b8 00 05 00 00       	mov    $0x500,%eax
    38a9:	89 c0                	mov    %eax,%eax
    38ab:	4c 8b bc 24 38 00 00 	mov    0x38(%rsp),%r15
    38b2:	00 
    38b3:	41 8b 14 07          	mov    (%r15,%rax,1),%edx
    38b7:	41 bb fe ff ff ff    	mov    $0xfffffffe,%r11d
    38bd:	41 89 cc             	mov    %ecx,%r12d
    38c0:	44 89 c1             	mov    %r8d,%ecx
    38c3:	45 89 e0             	mov    %r12d,%r8d
    38c6:	41 d3 c3             	rol    %cl,%r11d
    38c9:	44 21 da             	and    %r11d,%edx
    38cc:	41 89 14 07          	mov    %edx,(%r15,%rax,1)
    38d0:	44 89 c1             	mov    %r8d,%ecx
    38d3:	e9 12 02 00 00       	jmpq   3aea <guest_func_9+0x1bea>
    38d8:	41 39 d3             	cmp    %edx,%r11d
    38db:	0f 84 00 00 00 00    	je     38e1 <guest_func_9+0x19e1>
    38e1:	41 89 d0             	mov    %edx,%r8d
    38e4:	4c 8b bc 24 38 00 00 	mov    0x38(%rsp),%r15
    38eb:	00 
    38ec:	43 89 44 07 08       	mov    %eax,0x8(%r15,%r8,1)
    38f1:	89 c0                	mov    %eax,%eax
    38f3:	41 89 54 07 0c       	mov    %edx,0xc(%r15,%rax,1)
    38f8:	e9 ed 01 00 00       	jmpq   3aea <guest_func_9+0x1bea>
    38fd:	45 8b 44 07 18       	mov    0x18(%r15,%rax,1),%r8d
    3902:	45 8b 5c 07 0c       	mov    0xc(%r15,%rax,1),%r11d
    3907:	41 39 cb             	cmp    %ecx,%r11d
    390a:	0f 84 33 00 00 00    	je     3943 <guest_func_9+0x1a43>
    3910:	45 8b 64 07 08       	mov    0x8(%r15,%rax,1),%r12d
    3915:	44 39 e2             	cmp    %r12d,%edx
    3918:	0f 87 08 00 00 00    	ja     3926 <guest_func_9+0x1a26>
    391e:	44 89 e2             	mov    %r12d,%edx
    3921:	41 8b 54 17 0c       	mov    0xc(%r15,%rdx,1),%edx
    3926:	44 89 da             	mov    %r11d,%edx
    3929:	4c 8b bc 24 38 00 00 	mov    0x38(%rsp),%r15
    3930:	00 
    3931:	45 89 64 17 08       	mov    %r12d,0x8(%r15,%rdx,1)
    3936:	44 89 e2             	mov    %r12d,%edx
    3939:	45 89 5c 17 0c       	mov    %r11d,0xc(%r15,%rdx,1)
    393e:	e9 a7 00 00 00       	jmpq   39ea <guest_func_9+0x1aea>
    3943:	89 ca                	mov    %ecx,%edx
    3945:	83 c2 14             	add    $0x14,%edx
    3948:	41 89 d3             	mov    %edx,%r11d
    394b:	47 8b 1c 1f          	mov    (%r15,%r11,1),%r11d
    394f:	45 85 db             	test   %r11d,%r11d
    3952:	0f 85 25 00 00 00    	jne    397d <guest_func_9+0x1a7d>
    3958:	89 ca                	mov    %ecx,%edx
    395a:	83 c2 10             	add    $0x10,%edx
    395d:	41 89 d3             	mov    %edx,%r11d
    3960:	47 8b 1c 1f          	mov    (%r15,%r11,1),%r11d
    3964:	45 85 db             	test   %r11d,%r11d
    3967:	0f 85 10 00 00 00    	jne    397d <guest_func_9+0x1a7d>
    396d:	44 8b bc 24 70 00 00 	mov    0x70(%rsp),%r15d
    3974:	00 
    3975:	45 89 fb             	mov    %r15d,%r11d
    3978:	e9 6d 00 00 00       	jmpq   39ea <guest_func_9+0x1aea>
    397d:	e9 23 00 00 00       	jmpq   39a5 <guest_func_9+0x1aa5>
    3982:	44 89 ea             	mov    %r13d,%edx
    3985:	45 89 e3             	mov    %r12d,%r11d
    3988:	45 89 de             	mov    %r11d,%r14d
    398b:	41 89 d3             	mov    %edx,%r11d
    398e:	44 89 f2             	mov    %r14d,%edx
    3991:	e9 0f 00 00 00       	jmpq   39a5 <guest_func_9+0x1aa5>
    3996:	44 89 ea             	mov    %r13d,%edx
    3999:	45 89 e3             	mov    %r12d,%r11d
    399c:	45 89 de             	mov    %r11d,%r14d
    399f:	41 89 d3             	mov    %edx,%r11d
    39a2:	44 89 f2             	mov    %r14d,%edx
    39a5:	45 89 dc             	mov    %r11d,%r12d
    39a8:	41 83 c4 14          	add    $0x14,%r12d
    39ac:	45 89 e5             	mov    %r12d,%r13d
    39af:	4c 8b bc 24 38 00 00 	mov    0x38(%rsp),%r15
    39b6:	00 
    39b7:	47 8b 2c 2f          	mov    (%r15,%r13,1),%r13d
    39bb:	45 85 ed             	test   %r13d,%r13d
    39be:	75 c2                	jne    3982 <guest_func_9+0x1a82>
    39c0:	45 89 dc             	mov    %r11d,%r12d
    39c3:	41 83 c4 10          	add    $0x10,%r12d
    39c7:	45 89 dd             	mov    %r11d,%r13d
    39ca:	47 8b 6c 2f 10       	mov    0x10(%r15,%r13,1),%r13d
    39cf:	45 85 ed             	test   %r13d,%r13d
    39d2:	75 c2                	jne    3996 <guest_func_9+0x1a96>
    39d4:	89 d2                	mov    %edx,%edx
    39d6:	44 8b bc 24 70 00 00 	mov    0x70(%rsp),%r15d
    39dd:	00 
    39de:	4c 8b b4 24 38 00 00 	mov    0x38(%rsp),%r14
    39e5:	00 
    39e6:	45 89 3c 16          	mov    %r15d,(%r14,%rdx,1)
    39ea:	45 85 c0             	test   %r8d,%r8d
    39ed:	0f 84 f7 00 00 00    	je     3aea <guest_func_9+0x1bea>
    39f3:	4c 8b bc 24 38 00 00 	mov    0x38(%rsp),%r15
    39fa:	00 
    39fb:	41 8b 54 07 1c       	mov    0x1c(%r15,%rax,1),%edx
    3a00:	41 89 d4             	mov    %edx,%r12d
    3a03:	41 c1 e4 02          	shl    $0x2,%r12d
    3a07:	41 81 c4 30 06 00 00 	add    $0x630,%r12d
    3a0e:	45 89 e4             	mov    %r12d,%r12d
    3a11:	47 8b 2c 27          	mov    (%r15,%r12,1),%r13d
    3a15:	44 39 e9             	cmp    %r13d,%ecx
    3a18:	0f 85 39 00 00 00    	jne    3a57 <guest_func_9+0x1b57>
    3a1e:	47 89 1c 27          	mov    %r11d,(%r15,%r12,1)
    3a22:	45 85 db             	test   %r11d,%r11d
    3a25:	0f 85 6c 00 00 00    	jne    3a97 <guest_func_9+0x1b97>
    3a2b:	b8 04 05 00 00       	mov    $0x504,%eax
    3a30:	89 c0                	mov    %eax,%eax
    3a32:	45 8b 04 07          	mov    (%r15,%rax,1),%r8d
    3a36:	41 bb fe ff ff ff    	mov    $0xfffffffe,%r11d
    3a3c:	41 89 cc             	mov    %ecx,%r12d
    3a3f:	40 89 d1             	rex mov %edx,%ecx
    3a42:	44 89 e2             	mov    %r12d,%edx
    3a45:	41 d3 c3             	rol    %cl,%r11d
    3a48:	45 21 d8             	and    %r11d,%r8d
    3a4b:	45 89 04 07          	mov    %r8d,(%r15,%rax,1)
    3a4f:	40 89 d1             	rex mov %edx,%ecx
    3a52:	e9 93 00 00 00       	jmpq   3aea <guest_func_9+0x1bea>
    3a57:	ba 14 00 00 00       	mov    $0x14,%edx
    3a5c:	45 89 c4             	mov    %r8d,%r12d
    3a5f:	47 8b 64 27 10       	mov    0x10(%r15,%r12,1),%r12d
    3a64:	41 39 cc             	cmp    %ecx,%r12d
    3a67:	0f 84 07 00 00 00    	je     3a74 <guest_func_9+0x1b74>
    3a6d:	89 94 24 68 00 00 00 	mov    %edx,0x68(%rsp)
    3a74:	44 8b bc 24 68 00 00 	mov    0x68(%rsp),%r15d
    3a7b:	00 
    3a7c:	45 01 c7             	add    %r8d,%r15d
    3a7f:	44 89 fa             	mov    %r15d,%edx
    3a82:	4c 8b bc 24 38 00 00 	mov    0x38(%rsp),%r15
    3a89:	00 
    3a8a:	45 89 1c 17          	mov    %r11d,(%r15,%rdx,1)
    3a8e:	45 85 db             	test   %r11d,%r11d
    3a91:	0f 84 53 00 00 00    	je     3aea <guest_func_9+0x1bea>
    3a97:	44 89 da             	mov    %r11d,%edx
    3a9a:	4c 8b bc 24 38 00 00 	mov    0x38(%rsp),%r15
    3aa1:	00 
    3aa2:	45 89 44 17 18       	mov    %r8d,0x18(%r15,%rdx,1)
    3aa7:	45 8b 44 07 10       	mov    0x10(%r15,%rax,1),%r8d
    3aac:	45 85 c0             	test   %r8d,%r8d
    3aaf:	0f 84 0d 00 00 00    	je     3ac2 <guest_func_9+0x1bc2>
    3ab5:	45 89 44 17 10       	mov    %r8d,0x10(%r15,%rdx,1)
    3aba:	44 89 c2             	mov    %r8d,%edx
    3abd:	45 89 5c 17 18       	mov    %r11d,0x18(%r15,%rdx,1)
    3ac2:	4c 8b bc 24 38 00 00 	mov    0x38(%rsp),%r15
    3ac9:	00 
    3aca:	41 8b 44 07 14       	mov    0x14(%r15,%rax,1),%eax
    3acf:	85 c0                	test   %eax,%eax
    3ad1:	0f 84 13 00 00 00    	je     3aea <guest_func_9+0x1bea>
    3ad7:	44 89 da             	mov    %r11d,%edx
    3ada:	83 c2 14             	add    $0x14,%edx
    3add:	89 d2                	mov    %edx,%edx
    3adf:	41 89 04 17          	mov    %eax,(%r15,%rdx,1)
    3ae3:	89 c0                	mov    %eax,%eax
    3ae5:	45 89 5c 07 18       	mov    %r11d,0x18(%r15,%rax,1)
    3aea:	44 01 cb             	add    %r9d,%ebx
    3aed:	44 01 c9             	add    %r9d,%ecx
    3af0:	89 c8                	mov    %ecx,%eax
    3af2:	4c 8b bc 24 38 00 00 	mov    0x38(%rsp),%r15
    3af9:	00 
    3afa:	41 8b 4c 07 04       	mov    0x4(%r15,%rax,1),%ecx
    3aff:	83 e1 fe             	and    $0xfffffffe,%ecx
    3b02:	41 89 4c 07 04       	mov    %ecx,0x4(%r15,%rax,1)
    3b07:	89 d8                	mov    %ebx,%eax
    3b09:	01 f8                	add    %edi,%eax
    3b0b:	89 c0                	mov    %eax,%eax
    3b0d:	41 89 1c 07          	mov    %ebx,(%r15,%rax,1)
    3b11:	89 d8                	mov    %ebx,%eax
    3b13:	83 c8 01             	or     $0x1,%eax
    3b16:	89 f9                	mov    %edi,%ecx
    3b18:	41 89 44 0f 04       	mov    %eax,0x4(%r15,%rcx,1)
    3b1d:	81 fb ff 00 00 00    	cmp    $0xff,%ebx
    3b23:	0f 87 79 00 00 00    	ja     3ba2 <guest_func_9+0x1ca2>
    3b29:	c1 eb 03             	shr    $0x3,%ebx
    3b2c:	89 d8                	mov    %ebx,%eax
    3b2e:	c1 e0 03             	shl    $0x3,%eax
    3b31:	81 c0 28 05 00 00    	add    $0x528,%eax
    3b37:	ba 00 05 00 00       	mov    $0x500,%edx
    3b3c:	89 d2                	mov    %edx,%edx
    3b3e:	45 8b 04 17          	mov    (%r15,%rdx,1),%r8d
    3b42:	45 89 d1             	mov    %r10d,%r9d
    3b45:	49 89 ca             	mov    %rcx,%r10
    3b48:	40 89 d9             	rex mov %ebx,%ecx
    3b4b:	4c 89 d3             	mov    %r10,%rbx
    3b4e:	41 d3 e1             	shl    %cl,%r9d
    3b51:	44 89 c1             	mov    %r8d,%ecx
    3b54:	44 21 c9             	and    %r9d,%ecx
    3b57:	41 89 ca             	mov    %ecx,%r10d
    3b5a:	48 89 d9             	mov    %rbx,%rcx
    3b5d:	44 89 d3             	mov    %r10d,%ebx
    3b60:	85 db                	test   %ebx,%ebx
    3b62:	0f 85 0e 00 00 00    	jne    3b76 <guest_func_9+0x1c76>
    3b68:	45 09 c1             	or     %r8d,%r9d
    3b6b:	45 89 0c 17          	mov    %r9d,(%r15,%rdx,1)
    3b6f:	89 c2                	mov    %eax,%edx
    3b71:	e9 07 00 00 00       	jmpq   3b7d <guest_func_9+0x1c7d>
    3b76:	89 c2                	mov    %eax,%edx
    3b78:	41 8b 54 17 08       	mov    0x8(%r15,%rdx,1),%edx
    3b7d:	89 d3                	mov    %edx,%ebx
    3b7f:	4c 8b bc 24 38 00 00 	mov    0x38(%rsp),%r15
    3b86:	00 
    3b87:	41 89 7c 1f 0c       	mov    %edi,0xc(%r15,%rbx,1)
    3b8c:	89 c3                	mov    %eax,%ebx
    3b8e:	41 89 7c 1f 08       	mov    %edi,0x8(%r15,%rbx,1)
    3b93:	41 89 44 0f 0c       	mov    %eax,0xc(%r15,%rcx,1)
    3b98:	41 89 54 0f 08       	mov    %edx,0x8(%r15,%rcx,1)
    3b9d:	e9 02 06 00 00       	jmpq   41a4 <guest_func_9+0x22a4>
    3ba2:	89 d8                	mov    %ebx,%eax
    3ba4:	c1 e8 08             	shr    $0x8,%eax
    3ba7:	85 c0                	test   %eax,%eax
    3ba9:	0f 84 9c 00 00 00    	je     3c4b <guest_func_9+0x1d4b>
    3baf:	ba 1f 00 00 00       	mov    $0x1f,%edx
    3bb4:	81 fb ff ff ff 00    	cmp    $0xffffff,%ebx
    3bba:	0f 87 98 00 00 00    	ja     3c58 <guest_func_9+0x1d58>
    3bc0:	89 c2                	mov    %eax,%edx
    3bc2:	81 c2 00 ff 0f 00    	add    $0xfff00,%edx
    3bc8:	c1 ea 10             	shr    $0x10,%edx
    3bcb:	83 e2 08             	and    $0x8,%edx
    3bce:	49 89 c8             	mov    %rcx,%r8
    3bd1:	40 89 d1             	rex mov %edx,%ecx
    3bd4:	4c 89 c2             	mov    %r8,%rdx
    3bd7:	d3 e0                	shl    %cl,%eax
    3bd9:	41 89 c0             	mov    %eax,%r8d
    3bdc:	41 81 c0 00 f0 07 00 	add    $0x7f000,%r8d
    3be3:	41 c1 e8 10          	shr    $0x10,%r8d
    3be7:	41 83 e0 04          	and    $0x4,%r8d
    3beb:	41 89 c9             	mov    %ecx,%r9d
    3bee:	44 89 c1             	mov    %r8d,%ecx
    3bf1:	45 89 c8             	mov    %r9d,%r8d
    3bf4:	d3 e0                	shl    %cl,%eax
    3bf6:	41 89 c1             	mov    %eax,%r9d
    3bf9:	41 81 c1 00 c0 03 00 	add    $0x3c000,%r9d
    3c00:	41 c1 e9 10          	shr    $0x10,%r9d
    3c04:	41 83 e1 02          	and    $0x2,%r9d
    3c08:	41 89 cb             	mov    %ecx,%r11d
    3c0b:	44 89 c9             	mov    %r9d,%ecx
    3c0e:	45 89 d9             	mov    %r11d,%r9d
    3c11:	d3 e0                	shl    %cl,%eax
    3c13:	c1 e8 0f             	shr    $0xf,%eax
    3c16:	45 09 c8             	or     %r9d,%r8d
    3c19:	41 09 c8             	or     %ecx,%r8d
    3c1c:	44 29 c0             	sub    %r8d,%eax
    3c1f:	89 c1                	mov    %eax,%ecx
    3c21:	c1 e1 01             	shl    $0x1,%ecx
    3c24:	83 c0 15             	add    $0x15,%eax
    3c27:	41 89 d8             	mov    %ebx,%r8d
    3c2a:	41 89 c9             	mov    %ecx,%r9d
    3c2d:	40 89 c1             	rex mov %eax,%ecx
    3c30:	44 89 c8             	mov    %r9d,%eax
    3c33:	41 d3 e8             	shr    %cl,%r8d
    3c36:	41 83 e0 01          	and    $0x1,%r8d
    3c3a:	44 09 c0             	or     %r8d,%eax
    3c3d:	83 c0 1c             	add    $0x1c,%eax
    3c40:	48 89 d1             	mov    %rdx,%rcx
    3c43:	41 89 c7             	mov    %eax,%r15d
    3c46:	e9 10 00 00 00       	jmpq   3c5b <guest_func_9+0x1d5b>
    3c4b:	44 8b bc 24 70 00 00 	mov    0x70(%rsp),%r15d
    3c52:	00 
    3c53:	e9 03 00 00 00       	jmpq   3c5b <guest_func_9+0x1d5b>
    3c58:	41 89 d7             	mov    %edx,%r15d
    3c5b:	4c 8b b4 24 38 00 00 	mov    0x38(%rsp),%r14
    3c62:	00 
    3c63:	45 89 7c 0e 1c       	mov    %r15d,0x1c(%r14,%rcx,1)
    3c68:	31 c0                	xor    %eax,%eax
    3c6a:	49 89 44 0e 10       	mov    %rax,0x10(%r14,%rcx,1)
    3c6f:	44 89 f8             	mov    %r15d,%eax
    3c72:	c1 e0 02             	shl    $0x2,%eax
    3c75:	81 c0 30 06 00 00    	add    $0x630,%eax
    3c7b:	ba 04 05 00 00       	mov    $0x504,%edx
    3c80:	89 d2                	mov    %edx,%edx
    3c82:	45 8b 04 16          	mov    (%r14,%rdx,1),%r8d
    3c86:	49 89 c9             	mov    %rcx,%r9
    3c89:	44 89 f9             	mov    %r15d,%ecx
    3c8c:	41 d3 e2             	shl    %cl,%r10d
    3c8f:	45 89 c3             	mov    %r8d,%r11d
    3c92:	45 21 d3             	and    %r10d,%r11d
    3c95:	41 89 cf             	mov    %ecx,%r15d
    3c98:	4c 89 c9             	mov    %r9,%rcx
    3c9b:	45 85 db             	test   %r11d,%r11d
    3c9e:	0f 85 24 00 00 00    	jne    3cc8 <guest_func_9+0x1dc8>
    3ca4:	89 c3                	mov    %eax,%ebx
    3ca6:	4d 89 f7             	mov    %r14,%r15
    3ca9:	41 89 3c 1f          	mov    %edi,(%r15,%rbx,1)
    3cad:	45 09 c2             	or     %r8d,%r10d
    3cb0:	45 89 14 17          	mov    %r10d,(%r15,%rdx,1)
    3cb4:	41 89 44 0f 18       	mov    %eax,0x18(%r15,%rcx,1)
    3cb9:	41 89 7c 0f 08       	mov    %edi,0x8(%r15,%rcx,1)
    3cbe:	41 89 7c 0f 0c       	mov    %edi,0xc(%r15,%rcx,1)
    3cc3:	e9 dc 04 00 00       	jmpq   41a4 <guest_func_9+0x22a4>
    3cc8:	ba 19 00 00 00       	mov    $0x19,%edx
    3ccd:	45 89 f8             	mov    %r15d,%r8d
    3cd0:	41 c1 e8 01          	shr    $0x1,%r8d
    3cd4:	44 29 c2             	sub    %r8d,%edx
    3cd7:	41 83 ff 1f          	cmp    $0x1f,%r15d
    3cdb:	0f 84 08 00 00 00    	je     3ce9 <guest_func_9+0x1de9>
    3ce1:	41 89 d7             	mov    %edx,%r15d
    3ce4:	e9 08 00 00 00       	jmpq   3cf1 <guest_func_9+0x1df1>
    3ce9:	44 8b bc 24 70 00 00 	mov    0x70(%rsp),%r15d
    3cf0:	00 
    3cf1:	89 da                	mov    %ebx,%edx
    3cf3:	49 89 c8             	mov    %rcx,%r8
    3cf6:	44 89 f9             	mov    %r15d,%ecx
    3cf9:	d3 e2                	shl    %cl,%edx
    3cfb:	89 c0                	mov    %eax,%eax
    3cfd:	4c 8b bc 24 38 00 00 	mov    0x38(%rsp),%r15
    3d04:	00 
    3d05:	41 8b 04 07          	mov    (%r15,%rax,1),%eax
    3d09:	4c 89 c1             	mov    %r8,%rcx
    3d0c:	e9 03 00 00 00       	jmpq   3d14 <guest_func_9+0x1e14>
    3d11:	44 89 c8             	mov    %r9d,%eax
    3d14:	41 89 c0             	mov    %eax,%r8d
    3d17:	4c 8b bc 24 38 00 00 	mov    0x38(%rsp),%r15
    3d1e:	00 
    3d1f:	47 8b 4c 07 04       	mov    0x4(%r15,%r8,1),%r9d
    3d24:	41 83 e1 f8          	and    $0xfffffff8,%r9d
    3d28:	41 39 d9             	cmp    %ebx,%r9d
    3d2b:	0f 84 40 04 00 00    	je     4171 <guest_func_9+0x2271>
    3d31:	41 89 d0             	mov    %edx,%r8d
    3d34:	41 c1 e8 1d          	shr    $0x1d,%r8d
    3d38:	c1 e2 01             	shl    $0x1,%edx
    3d3b:	41 83 e0 04          	and    $0x4,%r8d
    3d3f:	41 01 c0             	add    %eax,%r8d
    3d42:	41 83 c0 10          	add    $0x10,%r8d
    3d46:	45 89 c0             	mov    %r8d,%r8d
    3d49:	47 8b 0c 07          	mov    (%r15,%r8,1),%r9d
    3d4d:	45 85 c9             	test   %r9d,%r9d
    3d50:	75 bf                	jne    3d11 <guest_func_9+0x1e11>
    3d52:	43 89 3c 07          	mov    %edi,(%r15,%r8,1)
    3d56:	41 89 44 0f 18       	mov    %eax,0x18(%r15,%rcx,1)
    3d5b:	41 89 7c 0f 0c       	mov    %edi,0xc(%r15,%rcx,1)
    3d60:	41 89 7c 0f 08       	mov    %edi,0x8(%r15,%rcx,1)
    3d65:	e9 3a 04 00 00       	jmpq   41a4 <guest_func_9+0x22a4>
    3d6a:	ba f8 ff ff ff       	mov    $0xfffffff8,%edx
    3d6f:	44 8b bc 24 48 00 00 	mov    0x48(%rsp),%r15d
    3d76:	00 
    3d77:	44 29 fa             	sub    %r15d,%edx
    3d7a:	83 e2 0f             	and    $0xf,%edx
    3d7d:	41 83 c7 08          	add    $0x8,%r15d
    3d81:	41 83 e7 0f          	and    $0xf,%r15d
    3d85:	45 85 ff             	test   %r15d,%r15d
    3d88:	0f 85 0b 00 00 00    	jne    3d99 <guest_func_9+0x1e99>
    3d8e:	44 8b bc 24 70 00 00 	mov    0x70(%rsp),%r15d
    3d95:	00 
    3d96:	44 89 fa             	mov    %r15d,%edx
    3d99:	89 d3                	mov    %edx,%ebx
    3d9b:	44 8b bc 24 48 00 00 	mov    0x48(%rsp),%r15d
    3da2:	00 
    3da3:	44 01 fb             	add    %r15d,%ebx
    3da6:	44 8b bc 24 4c 00 00 	mov    0x4c(%rsp),%r15d
    3dad:	00 
    3dae:	41 83 c7 c8          	add    $0xffffffc8,%r15d
    3db2:	44 89 ff             	mov    %r15d,%edi
    3db5:	29 d7                	sub    %edx,%edi
    3db7:	89 fa                	mov    %edi,%edx
    3db9:	83 ca 01             	or     $0x1,%edx
    3dbc:	41 89 d8             	mov    %ebx,%r8d
    3dbf:	4c 8b b4 24 38 00 00 	mov    0x38(%rsp),%r14
    3dc6:	00 
    3dc7:	43 89 54 06 04       	mov    %edx,0x4(%r14,%r8,1)
    3dcc:	44 8b b4 24 48 00 00 	mov    0x48(%rsp),%r14d
    3dd3:	00 
    3dd4:	45 01 f7             	add    %r14d,%r15d
    3dd7:	ba 38 00 00 00       	mov    $0x38,%edx
    3ddc:	45 89 f8             	mov    %r15d,%r8d
    3ddf:	4c 8b bc 24 38 00 00 	mov    0x38(%rsp),%r15
    3de6:	00 
    3de7:	43 89 54 07 04       	mov    %edx,0x4(%r15,%r8,1)
    3dec:	ba 37 00 00 00       	mov    $0x37,%edx
    3df1:	29 f2                	sub    %esi,%edx
    3df3:	83 e2 0f             	and    $0xf,%edx
    3df6:	41 89 f0             	mov    %esi,%r8d
    3df9:	41 83 c0 c9          	add    $0xffffffc9,%r8d
    3dfd:	41 83 e0 0f          	and    $0xf,%r8d
    3e01:	45 85 c0             	test   %r8d,%r8d
    3e04:	0f 85 0b 00 00 00    	jne    3e15 <guest_func_9+0x1f15>
    3e0a:	44 8b bc 24 70 00 00 	mov    0x70(%rsp),%r15d
    3e11:	00 
    3e12:	44 89 fa             	mov    %r15d,%edx
    3e15:	01 f2                	add    %esi,%edx
    3e17:	83 c2 c1             	add    $0xffffffc1,%edx
    3e1a:	41 89 c0             	mov    %eax,%r8d
    3e1d:	41 83 c0 10          	add    $0x10,%r8d
    3e21:	44 39 c2             	cmp    %r8d,%edx
    3e24:	0f 82 05 00 00 00    	jb     3e2f <guest_func_9+0x1f2f>
    3e2a:	e9 02 00 00 00       	jmpq   3e31 <guest_func_9+0x1f31>
    3e2f:	89 c2                	mov    %eax,%edx
    3e31:	41 b8 23 00 00 00    	mov    $0x23,%r8d
    3e37:	41 89 d1             	mov    %edx,%r9d
    3e3a:	4c 8b bc 24 38 00 00 	mov    0x38(%rsp),%r15
    3e41:	00 
    3e42:	47 89 44 0f 04       	mov    %r8d,0x4(%r15,%r9,1)
    3e47:	41 b8 1c 05 00 00    	mov    $0x51c,%r8d
    3e4d:	41 ba e8 06 00 00    	mov    $0x6e8,%r10d
    3e53:	45 89 d2             	mov    %r10d,%r10d
    3e56:	47 8b 14 17          	mov    (%r15,%r10,1),%r10d
    3e5a:	45 89 c0             	mov    %r8d,%r8d
    3e5d:	47 89 14 07          	mov    %r10d,(%r15,%r8,1)
    3e61:	4c 8b b4 24 20 00 00 	mov    0x20(%rsp),%r14
    3e68:	00 
    3e69:	43 89 3c 37          	mov    %edi,(%r15,%r14,1)
    3e6d:	4c 8b b4 24 30 00 00 	mov    0x30(%rsp),%r14
    3e74:	00 
    3e75:	43 89 1c 37          	mov    %ebx,(%r15,%r14,1)
    3e79:	89 d3                	mov    %edx,%ebx
    3e7b:	83 c3 10             	add    $0x10,%ebx
    3e7e:	bf c8 06 00 00       	mov    $0x6c8,%edi
    3e83:	89 ff                	mov    %edi,%edi
    3e85:	4d 8b 04 3f          	mov    (%r15,%rdi,1),%r8
    3e89:	89 db                	mov    %ebx,%ebx
    3e8b:	4d 89 04 1f          	mov    %r8,(%r15,%rbx,1)
    3e8f:	89 c9                	mov    %ecx,%ecx
    3e91:	49 8b 1c 0f          	mov    (%r15,%rcx,1),%rbx
    3e95:	4b 89 5c 0f 08       	mov    %rbx,0x8(%r15,%r9,1)
    3e9a:	89 d3                	mov    %edx,%ebx
    3e9c:	83 c3 08             	add    $0x8,%ebx
    3e9f:	41 89 1c 3f          	mov    %ebx,(%r15,%rdi,1)
    3ea3:	bb c4 06 00 00       	mov    $0x6c4,%ebx
    3ea8:	89 db                	mov    %ebx,%ebx
    3eaa:	44 8b bc 24 4c 00 00 	mov    0x4c(%rsp),%r15d
    3eb1:	00 
    3eb2:	4c 8b b4 24 38 00 00 	mov    0x38(%rsp),%r14
    3eb9:	00 
    3eba:	45 89 3c 1e          	mov    %r15d,(%r14,%rbx,1)
    3ebe:	44 8b bc 24 48 00 00 	mov    0x48(%rsp),%r15d
    3ec5:	00 
    3ec6:	45 89 3c 0e          	mov    %r15d,(%r14,%rcx,1)
    3eca:	b9 cc 06 00 00       	mov    $0x6cc,%ecx
    3ecf:	89 c9                	mov    %ecx,%ecx
    3ed1:	44 8b bc 24 70 00 00 	mov    0x70(%rsp),%r15d
    3ed8:	00 
    3ed9:	45 89 3c 0e          	mov    %r15d,(%r14,%rcx,1)
    3edd:	89 d1                	mov    %edx,%ecx
    3edf:	83 c1 24             	add    $0x24,%ecx
    3ee2:	bb 07 00 00 00       	mov    $0x7,%ebx
    3ee7:	89 cf                	mov    %ecx,%edi
    3ee9:	4c 8b bc 24 38 00 00 	mov    0x38(%rsp),%r15
    3ef0:	00 
    3ef1:	41 89 1c 3f          	mov    %ebx,(%r15,%rdi,1)
    3ef5:	83 c1 04             	add    $0x4,%ecx
    3ef8:	39 ce                	cmp    %ecx,%esi
    3efa:	77 eb                	ja     3ee7 <guest_func_9+0x1fe7>
    3efc:	39 c2                	cmp    %eax,%edx
    3efe:	0f 84 e6 02 00 00    	je     41ea <guest_func_9+0x22ea>
    3f04:	89 d1                	mov    %edx,%ecx
    3f06:	41 8b 5c 0f 04       	mov    0x4(%r15,%rcx,1),%ebx
    3f0b:	83 e3 fe             	and    $0xfffffffe,%ebx
    3f0e:	41 89 5c 0f 04       	mov    %ebx,0x4(%r15,%rcx,1)
    3f13:	29 c2                	sub    %eax,%edx
    3f15:	41 89 14 0f          	mov    %edx,(%r15,%rcx,1)
    3f19:	b9 01 00 00 00       	mov    $0x1,%ecx
    3f1e:	89 d3                	mov    %edx,%ebx
    3f20:	83 cb 01             	or     $0x1,%ebx
    3f23:	89 c6                	mov    %eax,%esi
    3f25:	41 89 5c 37 04       	mov    %ebx,0x4(%r15,%rsi,1)
    3f2a:	81 fa ff 00 00 00    	cmp    $0xff,%edx
    3f30:	0f 87 6b 00 00 00    	ja     3fa1 <guest_func_9+0x20a1>
    3f36:	c1 ea 03             	shr    $0x3,%edx
    3f39:	89 d3                	mov    %edx,%ebx
    3f3b:	c1 e3 03             	shl    $0x3,%ebx
    3f3e:	81 c3 28 05 00 00    	add    $0x528,%ebx
    3f44:	bf 00 05 00 00       	mov    $0x500,%edi
    3f49:	89 ff                	mov    %edi,%edi
    3f4b:	45 8b 04 3f          	mov    (%r15,%rdi,1),%r8d
    3f4f:	41 89 c9             	mov    %ecx,%r9d
    3f52:	40 89 d1             	rex mov %edx,%ecx
    3f55:	44 89 ca             	mov    %r9d,%edx
    3f58:	d3 e2                	shl    %cl,%edx
    3f5a:	44 89 c1             	mov    %r8d,%ecx
    3f5d:	21 d1                	and    %edx,%ecx
    3f5f:	85 c9                	test   %ecx,%ecx
    3f61:	0f 85 0e 00 00 00    	jne    3f75 <guest_func_9+0x2075>
    3f67:	44 09 c2             	or     %r8d,%edx
    3f6a:	41 89 14 3f          	mov    %edx,(%r15,%rdi,1)
    3f6e:	89 d9                	mov    %ebx,%ecx
    3f70:	e9 07 00 00 00       	jmpq   3f7c <guest_func_9+0x207c>
    3f75:	89 d9                	mov    %ebx,%ecx
    3f77:	41 8b 4c 0f 08       	mov    0x8(%r15,%rcx,1),%ecx
    3f7c:	89 ca                	mov    %ecx,%edx
    3f7e:	4c 8b bc 24 38 00 00 	mov    0x38(%rsp),%r15
    3f85:	00 
    3f86:	41 89 44 17 0c       	mov    %eax,0xc(%r15,%rdx,1)
    3f8b:	89 da                	mov    %ebx,%edx
    3f8d:	41 89 44 17 08       	mov    %eax,0x8(%r15,%rdx,1)
    3f92:	41 89 5c 37 0c       	mov    %ebx,0xc(%r15,%rsi,1)
    3f97:	41 89 4c 37 08       	mov    %ecx,0x8(%r15,%rsi,1)
    3f9c:	e9 49 02 00 00       	jmpq   41ea <guest_func_9+0x22ea>
    3fa1:	31 db                	xor    %ebx,%ebx
    3fa3:	49 89 5c 37 10       	mov    %rbx,0x10(%r15,%rsi,1)
    3fa8:	89 c3                	mov    %eax,%ebx
    3faa:	83 c3 1c             	add    $0x1c,%ebx
    3fad:	89 d7                	mov    %edx,%edi
    3faf:	c1 ef 08             	shr    $0x8,%edi
    3fb2:	85 ff                	test   %edi,%edi
    3fb4:	0f 84 a1 00 00 00    	je     405b <guest_func_9+0x215b>
    3fba:	41 b8 1f 00 00 00    	mov    $0x1f,%r8d
    3fc0:	81 fa ff ff ff 00    	cmp    $0xffffff,%edx
    3fc6:	0f 87 9c 00 00 00    	ja     4068 <guest_func_9+0x2168>
    3fcc:	41 89 f8             	mov    %edi,%r8d
    3fcf:	41 81 c0 00 ff 0f 00 	add    $0xfff00,%r8d
    3fd6:	41 c1 e8 10          	shr    $0x10,%r8d
    3fda:	41 83 e0 08          	and    $0x8,%r8d
    3fde:	41 89 c9             	mov    %ecx,%r9d
    3fe1:	44 89 c1             	mov    %r8d,%ecx
    3fe4:	45 89 c8             	mov    %r9d,%r8d
    3fe7:	d3 e7                	shl    %cl,%edi
    3fe9:	41 89 f9             	mov    %edi,%r9d
    3fec:	41 81 c1 00 f0 07 00 	add    $0x7f000,%r9d
    3ff3:	41 c1 e9 10          	shr    $0x10,%r9d
    3ff7:	41 83 e1 04          	and    $0x4,%r9d
    3ffb:	41 89 ca             	mov    %ecx,%r10d
    3ffe:	44 89 c9             	mov    %r9d,%ecx
    4001:	45 89 d1             	mov    %r10d,%r9d
    4004:	d3 e7                	shl    %cl,%edi
    4006:	41 89 fa             	mov    %edi,%r10d
    4009:	41 81 c2 00 c0 03 00 	add    $0x3c000,%r10d
    4010:	41 c1 ea 10          	shr    $0x10,%r10d
    4014:	41 83 e2 02          	and    $0x2,%r10d
    4018:	41 89 cb             	mov    %ecx,%r11d
    401b:	44 89 d1             	mov    %r10d,%ecx
    401e:	45 89 da             	mov    %r11d,%r10d
    4021:	d3 e7                	shl    %cl,%edi
    4023:	c1 ef 0f             	shr    $0xf,%edi
    4026:	45 09 d1             	or     %r10d,%r9d
    4029:	41 09 c9             	or     %ecx,%r9d
    402c:	44 29 cf             	sub    %r9d,%edi
    402f:	89 f9                	mov    %edi,%ecx
    4031:	c1 e1 01             	shl    $0x1,%ecx
    4034:	83 c7 15             	add    $0x15,%edi
    4037:	41 89 d1             	mov    %edx,%r9d
    403a:	41 89 ca             	mov    %ecx,%r10d
    403d:	40 89 f9             	rex mov %edi,%ecx
    4040:	44 89 d7             	mov    %r10d,%edi
    4043:	41 d3 e9             	shr    %cl,%r9d
    4046:	41 83 e1 01          	and    $0x1,%r9d
    404a:	44 09 cf             	or     %r9d,%edi
    404d:	83 c7 1c             	add    $0x1c,%edi
    4050:	44 89 c1             	mov    %r8d,%ecx
    4053:	41 89 ff             	mov    %edi,%r15d
    4056:	e9 10 00 00 00       	jmpq   406b <guest_func_9+0x216b>
    405b:	44 8b bc 24 70 00 00 	mov    0x70(%rsp),%r15d
    4062:	00 
    4063:	e9 03 00 00 00       	jmpq   406b <guest_func_9+0x216b>
    4068:	45 89 c7             	mov    %r8d,%r15d
    406b:	89 db                	mov    %ebx,%ebx
    406d:	4c 8b b4 24 38 00 00 	mov    0x38(%rsp),%r14
    4074:	00 
    4075:	45 89 3c 1e          	mov    %r15d,(%r14,%rbx,1)
    4079:	44 89 fb             	mov    %r15d,%ebx
    407c:	c1 e3 02             	shl    $0x2,%ebx
    407f:	81 c3 30 06 00 00    	add    $0x630,%ebx
    4085:	bf 04 05 00 00       	mov    $0x504,%edi
    408a:	89 ff                	mov    %edi,%edi
    408c:	45 8b 04 3e          	mov    (%r14,%rdi,1),%r8d
    4090:	41 89 c9             	mov    %ecx,%r9d
    4093:	44 89 f9             	mov    %r15d,%ecx
    4096:	41 d3 e1             	shl    %cl,%r9d
    4099:	45 89 c2             	mov    %r8d,%r10d
    409c:	45 21 ca             	and    %r9d,%r10d
    409f:	41 89 cf             	mov    %ecx,%r15d
    40a2:	45 85 d2             	test   %r10d,%r10d
    40a5:	0f 85 2a 00 00 00    	jne    40d5 <guest_func_9+0x21d5>
    40ab:	89 d9                	mov    %ebx,%ecx
    40ad:	4d 89 f7             	mov    %r14,%r15
    40b0:	41 89 04 0f          	mov    %eax,(%r15,%rcx,1)
    40b4:	45 09 c1             	or     %r8d,%r9d
    40b7:	45 89 0c 3f          	mov    %r9d,(%r15,%rdi,1)
    40bb:	89 c1                	mov    %eax,%ecx
    40bd:	83 c1 18             	add    $0x18,%ecx
    40c0:	89 c9                	mov    %ecx,%ecx
    40c2:	41 89 1c 0f          	mov    %ebx,(%r15,%rcx,1)
    40c6:	41 89 44 37 08       	mov    %eax,0x8(%r15,%rsi,1)
    40cb:	41 89 44 37 0c       	mov    %eax,0xc(%r15,%rsi,1)
    40d0:	e9 15 01 00 00       	jmpq   41ea <guest_func_9+0x22ea>
    40d5:	b9 19 00 00 00       	mov    $0x19,%ecx
    40da:	44 89 ff             	mov    %r15d,%edi
    40dd:	c1 ef 01             	shr    $0x1,%edi
    40e0:	29 f9                	sub    %edi,%ecx
    40e2:	41 83 ff 1f          	cmp    $0x1f,%r15d
    40e6:	0f 84 08 00 00 00    	je     40f4 <guest_func_9+0x21f4>
    40ec:	41 89 cf             	mov    %ecx,%r15d
    40ef:	e9 08 00 00 00       	jmpq   40fc <guest_func_9+0x21fc>
    40f4:	44 8b bc 24 70 00 00 	mov    0x70(%rsp),%r15d
    40fb:	00 
    40fc:	89 d1                	mov    %edx,%ecx
    40fe:	40 89 cf             	rex mov %ecx,%edi
    4101:	44 89 f9             	mov    %r15d,%ecx
    4104:	d3 e7                	shl    %cl,%edi
    4106:	89 d9                	mov    %ebx,%ecx
    4108:	4c 8b bc 24 38 00 00 	mov    0x38(%rsp),%r15
    410f:	00 
    4110:	41 8b 0c 0f          	mov    (%r15,%rcx,1),%ecx
    4114:	e9 03 00 00 00       	jmpq   411c <guest_func_9+0x221c>
    4119:	44 89 c1             	mov    %r8d,%ecx
    411c:	89 cb                	mov    %ecx,%ebx
    411e:	4c 8b bc 24 38 00 00 	mov    0x38(%rsp),%r15
    4125:	00 
    4126:	45 8b 44 1f 04       	mov    0x4(%r15,%rbx,1),%r8d
    412b:	41 83 e0 f8          	and    $0xfffffff8,%r8d
    412f:	41 39 d0             	cmp    %edx,%r8d
    4132:	0f 84 7b 00 00 00    	je     41b3 <guest_func_9+0x22b3>
    4138:	89 fb                	mov    %edi,%ebx
    413a:	c1 eb 1d             	shr    $0x1d,%ebx
    413d:	c1 e7 01             	shl    $0x1,%edi
    4140:	83 e3 04             	and    $0x4,%ebx
    4143:	01 cb                	add    %ecx,%ebx
    4145:	83 c3 10             	add    $0x10,%ebx
    4148:	89 db                	mov    %ebx,%ebx
    414a:	45 8b 04 1f          	mov    (%r15,%rbx,1),%r8d
    414e:	45 85 c0             	test   %r8d,%r8d
    4151:	75 c6                	jne    4119 <guest_func_9+0x2219>
    4153:	41 89 04 1f          	mov    %eax,(%r15,%rbx,1)
    4157:	89 c2                	mov    %eax,%edx
    4159:	83 c2 18             	add    $0x18,%edx
    415c:	89 d2                	mov    %edx,%edx
    415e:	41 89 0c 17          	mov    %ecx,(%r15,%rdx,1)
    4162:	41 89 44 37 0c       	mov    %eax,0xc(%r15,%rsi,1)
    4167:	41 89 44 37 08       	mov    %eax,0x8(%r15,%rsi,1)
    416c:	e9 79 00 00 00       	jmpq   41ea <guest_func_9+0x22ea>
    4171:	43 8b 54 07 08       	mov    0x8(%r15,%r8,1),%edx
    4176:	43 89 7c 07 08       	mov    %edi,0x8(%r15,%r8,1)
    417b:	89 d3                	mov    %edx,%ebx
    417d:	41 89 7c 1f 0c       	mov    %edi,0xc(%r15,%rbx,1)
    4182:	44 8b bc 24 70 00 00 	mov    0x70(%rsp),%r15d
    4189:	00 
    418a:	4c 8b b4 24 38 00 00 	mov    0x38(%rsp),%r14
    4191:	00 
    4192:	45 89 7c 0e 18       	mov    %r15d,0x18(%r14,%rcx,1)
    4197:	4d 89 f7             	mov    %r14,%r15
    419a:	41 89 54 0f 08       	mov    %edx,0x8(%r15,%rcx,1)
    419f:	41 89 44 0f 0c       	mov    %eax,0xc(%r15,%rcx,1)
    41a4:	83 c6 08             	add    $0x8,%esi
    41a7:	89 b4 24 70 00 00 00 	mov    %esi,0x70(%rsp)
    41ae:	e9 7a 07 00 00       	jmpq   492d <guest_func_9+0x2a2d>
    41b3:	41 8b 54 1f 08       	mov    0x8(%r15,%rbx,1),%edx
    41b8:	41 89 44 1f 08       	mov    %eax,0x8(%r15,%rbx,1)
    41bd:	89 d3                	mov    %edx,%ebx
    41bf:	41 89 44 1f 0c       	mov    %eax,0xc(%r15,%rbx,1)
    41c4:	83 c0 18             	add    $0x18,%eax
    41c7:	89 c0                	mov    %eax,%eax
    41c9:	44 8b bc 24 70 00 00 	mov    0x70(%rsp),%r15d
    41d0:	00 
    41d1:	4c 8b b4 24 38 00 00 	mov    0x38(%rsp),%r14
    41d8:	00 
    41d9:	45 89 3c 06          	mov    %r15d,(%r14,%rax,1)
    41dd:	4d 89 f7             	mov    %r14,%r15
    41e0:	41 89 54 37 08       	mov    %edx,0x8(%r15,%rsi,1)
    41e5:	41 89 4c 37 0c       	mov    %ecx,0xc(%r15,%rsi,1)
    41ea:	4c 8b bc 24 38 00 00 	mov    0x38(%rsp),%r15
    41f1:	00 
    41f2:	4c 8b b4 24 20 00 00 	mov    0x20(%rsp),%r14
    41f9:	00 
    41fa:	43 8b 04 37          	mov    (%r15,%r14,1),%eax
    41fe:	44 8b bc 24 54 00 00 	mov    0x54(%rsp),%r15d
    4205:	00 
    4206:	44 39 f8             	cmp    %r15d,%eax
    4209:	0f 86 7a 00 00 00    	jbe    4289 <guest_func_9+0x2389>
    420f:	4c 8b bc 24 38 00 00 	mov    0x38(%rsp),%r15
    4216:	00 
    4217:	4c 8b b4 24 30 00 00 	mov    0x30(%rsp),%r14
    421e:	00 
    421f:	43 8b 0c 37          	mov    (%r15,%r14,1),%ecx
    4223:	89 ca                	mov    %ecx,%edx
    4225:	44 8b bc 24 54 00 00 	mov    0x54(%rsp),%r15d
    422c:	00 
    422d:	44 01 fa             	add    %r15d,%edx
    4230:	44 29 f8             	sub    %r15d,%eax
    4233:	89 c3                	mov    %eax,%ebx
    4235:	83 cb 01             	or     $0x1,%ebx
    4238:	89 d6                	mov    %edx,%esi
    423a:	4c 8b bc 24 38 00 00 	mov    0x38(%rsp),%r15
    4241:	00 
    4242:	41 89 5c 37 04       	mov    %ebx,0x4(%r15,%rsi,1)
    4247:	4c 8b b4 24 20 00 00 	mov    0x20(%rsp),%r14
    424e:	00 
    424f:	43 89 04 37          	mov    %eax,(%r15,%r14,1)
    4253:	4c 8b b4 24 30 00 00 	mov    0x30(%rsp),%r14
    425a:	00 
    425b:	43 89 14 37          	mov    %edx,(%r15,%r14,1)
    425f:	44 8b bc 24 54 00 00 	mov    0x54(%rsp),%r15d
    4266:	00 
    4267:	41 83 cf 03          	or     $0x3,%r15d
    426b:	89 c8                	mov    %ecx,%eax
    426d:	4c 8b b4 24 38 00 00 	mov    0x38(%rsp),%r14
    4274:	00 
    4275:	45 89 7c 06 04       	mov    %r15d,0x4(%r14,%rax,1)
    427a:	83 c1 08             	add    $0x8,%ecx
    427d:	89 8c 24 70 00 00 00 	mov    %ecx,0x70(%rsp)
    4284:	e9 a4 06 00 00       	jmpq   492d <guest_func_9+0x2a2d>
    4289:	b8 f0 06 00 00       	mov    $0x6f0,%eax
    428e:	b9 30 00 00 00       	mov    $0x30,%ecx
    4293:	89 c0                	mov    %eax,%eax
    4295:	4c 8b bc 24 38 00 00 	mov    0x38(%rsp),%r15
    429c:	00 
    429d:	41 89 0c 07          	mov    %ecx,(%r15,%rax,1)
    42a1:	e9 87 06 00 00       	jmpq   492d <guest_func_9+0x2a2d>
    42a6:	85 db                	test   %ebx,%ebx
    42a8:	0f 84 f0 00 00 00    	je     439e <guest_func_9+0x249e>
    42ae:	4c 8b b4 24 38 00 00 	mov    0x38(%rsp),%r14
    42b5:	00 
    42b6:	41 8b 7c 16 1c       	mov    0x1c(%r14,%rdx,1),%edi
    42bb:	41 89 f9             	mov    %edi,%r9d
    42be:	41 c1 e1 02          	shl    $0x2,%r9d
    42c2:	41 81 c1 30 06 00 00 	add    $0x630,%r9d
    42c9:	45 89 c9             	mov    %r9d,%r9d
    42cc:	47 8b 14 0e          	mov    (%r14,%r9,1),%r10d
    42d0:	44 39 d6             	cmp    %r10d,%esi
    42d3:	0f 85 2e 00 00 00    	jne    4307 <guest_func_9+0x2407>
    42d9:	47 89 3c 0e          	mov    %r15d,(%r14,%r9,1)
    42dd:	45 85 ff             	test   %r15d,%r15d
    42e0:	0f 85 61 00 00 00    	jne    4347 <guest_func_9+0x2447>
    42e6:	ba fe ff ff ff       	mov    $0xfffffffe,%edx
    42eb:	48 89 cb             	mov    %rcx,%rbx
    42ee:	40 89 f9             	rex mov %edi,%ecx
    42f1:	d3 c2                	rol    %cl,%edx
    42f3:	21 c2                	and    %eax,%edx
    42f5:	4d 89 f7             	mov    %r14,%r15
    42f8:	41 89 14 1f          	mov    %edx,(%r15,%rbx,1)
    42fc:	48 89 d9             	mov    %rbx,%rcx
    42ff:	40 89 d0             	rex mov %edx,%eax
    4302:	e9 97 00 00 00       	jmpq   439e <guest_func_9+0x249e>
    4307:	bf 14 00 00 00       	mov    $0x14,%edi
    430c:	41 89 d9             	mov    %ebx,%r9d
    430f:	47 8b 4c 0e 10       	mov    0x10(%r14,%r9,1),%r9d
    4314:	41 39 f1             	cmp    %esi,%r9d
    4317:	0f 84 07 00 00 00    	je     4324 <guest_func_9+0x2424>
    431d:	89 bc 24 68 00 00 00 	mov    %edi,0x68(%rsp)
    4324:	44 8b b4 24 68 00 00 	mov    0x68(%rsp),%r14d
    432b:	00 
    432c:	41 01 de             	add    %ebx,%r14d
    432f:	44 89 f7             	mov    %r14d,%edi
    4332:	4c 8b b4 24 38 00 00 	mov    0x38(%rsp),%r14
    4339:	00 
    433a:	45 89 3c 3e          	mov    %r15d,(%r14,%rdi,1)
    433e:	45 85 ff             	test   %r15d,%r15d
    4341:	0f 84 57 00 00 00    	je     439e <guest_func_9+0x249e>
    4347:	44 89 ff             	mov    %r15d,%edi
    434a:	4c 8b b4 24 38 00 00 	mov    0x38(%rsp),%r14
    4351:	00 
    4352:	41 89 5c 3e 18       	mov    %ebx,0x18(%r14,%rdi,1)
    4357:	41 8b 54 16 10       	mov    0x10(%r14,%rdx,1),%edx
    435c:	85 d2                	test   %edx,%edx
    435e:	0f 84 0c 00 00 00    	je     4370 <guest_func_9+0x2470>
    4364:	41 89 54 3e 10       	mov    %edx,0x10(%r14,%rdi,1)
    4369:	89 d2                	mov    %edx,%edx
    436b:	45 89 7c 16 18       	mov    %r15d,0x18(%r14,%rdx,1)
    4370:	89 f2                	mov    %esi,%edx
    4372:	83 c2 14             	add    $0x14,%edx
    4375:	89 d2                	mov    %edx,%edx
    4377:	4c 8b b4 24 38 00 00 	mov    0x38(%rsp),%r14
    437e:	00 
    437f:	41 8b 14 16          	mov    (%r14,%rdx,1),%edx
    4383:	85 d2                	test   %edx,%edx
    4385:	0f 84 13 00 00 00    	je     439e <guest_func_9+0x249e>
    438b:	44 89 fb             	mov    %r15d,%ebx
    438e:	83 c3 14             	add    $0x14,%ebx
    4391:	89 db                	mov    %ebx,%ebx
    4393:	41 89 14 1e          	mov    %edx,(%r14,%rbx,1)
    4397:	89 d2                	mov    %edx,%edx
    4399:	45 89 7c 16 18       	mov    %r15d,0x18(%r14,%rdx,1)
    439e:	41 83 f8 0f          	cmp    $0xf,%r8d
    43a2:	0f 87 38 00 00 00    	ja     43e0 <guest_func_9+0x24e0>
    43a8:	44 8b bc 24 54 00 00 	mov    0x54(%rsp),%r15d
    43af:	00 
    43b0:	45 01 f8             	add    %r15d,%r8d
    43b3:	44 89 c0             	mov    %r8d,%eax
    43b6:	83 c8 03             	or     $0x3,%eax
    43b9:	89 f1                	mov    %esi,%ecx
    43bb:	4c 8b bc 24 38 00 00 	mov    0x38(%rsp),%r15
    43c2:	00 
    43c3:	41 89 44 0f 04       	mov    %eax,0x4(%r15,%rcx,1)
    43c8:	41 01 f0             	add    %esi,%r8d
    43cb:	44 89 c0             	mov    %r8d,%eax
    43ce:	41 8b 4c 07 04       	mov    0x4(%r15,%rax,1),%ecx
    43d3:	83 c9 01             	or     $0x1,%ecx
    43d6:	41 89 4c 07 04       	mov    %ecx,0x4(%r15,%rax,1)
    43db:	e9 b5 02 00 00       	jmpq   4695 <guest_func_9+0x2795>
    43e0:	89 f2                	mov    %esi,%edx
    43e2:	44 8b bc 24 54 00 00 	mov    0x54(%rsp),%r15d
    43e9:	00 
    43ea:	44 01 fa             	add    %r15d,%edx
    43ed:	bb 01 00 00 00       	mov    $0x1,%ebx
    43f2:	44 89 c7             	mov    %r8d,%edi
    43f5:	83 cf 01             	or     $0x1,%edi
    43f8:	41 89 d1             	mov    %edx,%r9d
    43fb:	4c 8b bc 24 38 00 00 	mov    0x38(%rsp),%r15
    4402:	00 
    4403:	43 89 7c 0f 04       	mov    %edi,0x4(%r15,%r9,1)
    4408:	44 8b bc 24 54 00 00 	mov    0x54(%rsp),%r15d
    440f:	00 
    4410:	41 83 cf 03          	or     $0x3,%r15d
    4414:	89 f7                	mov    %esi,%edi
    4416:	4c 8b b4 24 38 00 00 	mov    0x38(%rsp),%r14
    441d:	00 
    441e:	45 89 7c 3e 04       	mov    %r15d,0x4(%r14,%rdi,1)
    4423:	44 89 c7             	mov    %r8d,%edi
    4426:	01 d7                	add    %edx,%edi
    4428:	89 ff                	mov    %edi,%edi
    442a:	4d 89 f7             	mov    %r14,%r15
    442d:	45 89 04 3f          	mov    %r8d,(%r15,%rdi,1)
    4431:	41 81 f8 ff 00 00 00 	cmp    $0xff,%r8d
    4438:	0f 87 71 00 00 00    	ja     44af <guest_func_9+0x25af>
    443e:	41 c1 e8 03          	shr    $0x3,%r8d
    4442:	44 89 c0             	mov    %r8d,%eax
    4445:	c1 e0 03             	shl    $0x3,%eax
    4448:	81 c0 28 05 00 00    	add    $0x528,%eax
    444e:	b9 00 05 00 00       	mov    $0x500,%ecx
    4453:	89 c9                	mov    %ecx,%ecx
    4455:	41 8b 3c 0f          	mov    (%r15,%rcx,1),%edi
    4459:	49 89 ca             	mov    %rcx,%r10
    445c:	44 89 c1             	mov    %r8d,%ecx
    445f:	41 89 d8             	mov    %ebx,%r8d
    4462:	4c 89 d3             	mov    %r10,%rbx
    4465:	41 d3 e0             	shl    %cl,%r8d
    4468:	89 f9                	mov    %edi,%ecx
    446a:	44 21 c1             	and    %r8d,%ecx
    446d:	85 c9                	test   %ecx,%ecx
    446f:	0f 85 0e 00 00 00    	jne    4483 <guest_func_9+0x2583>
    4475:	41 09 f8             	or     %edi,%r8d
    4478:	45 89 04 1f          	mov    %r8d,(%r15,%rbx,1)
    447c:	89 c1                	mov    %eax,%ecx
    447e:	e9 07 00 00 00       	jmpq   448a <guest_func_9+0x258a>
    4483:	89 c1                	mov    %eax,%ecx
    4485:	41 8b 4c 0f 08       	mov    0x8(%r15,%rcx,1),%ecx
    448a:	89 cb                	mov    %ecx,%ebx
    448c:	4c 8b bc 24 38 00 00 	mov    0x38(%rsp),%r15
    4493:	00 
    4494:	41 89 54 1f 0c       	mov    %edx,0xc(%r15,%rbx,1)
    4499:	89 c3                	mov    %eax,%ebx
    449b:	41 89 54 1f 08       	mov    %edx,0x8(%r15,%rbx,1)
    44a0:	43 89 44 0f 0c       	mov    %eax,0xc(%r15,%r9,1)
    44a5:	43 89 4c 0f 08       	mov    %ecx,0x8(%r15,%r9,1)
    44aa:	e9 e6 01 00 00       	jmpq   4695 <guest_func_9+0x2795>
    44af:	44 89 c7             	mov    %r8d,%edi
    44b2:	c1 ef 08             	shr    $0x8,%edi
    44b5:	85 ff                	test   %edi,%edi
    44b7:	0f 84 a2 00 00 00    	je     455f <guest_func_9+0x265f>
    44bd:	41 ba 1f 00 00 00    	mov    $0x1f,%r10d
    44c3:	41 81 f8 ff ff ff 00 	cmp    $0xffffff,%r8d
    44ca:	0f 87 9c 00 00 00    	ja     456c <guest_func_9+0x266c>
    44d0:	41 89 fa             	mov    %edi,%r10d
    44d3:	41 81 c2 00 ff 0f 00 	add    $0xfff00,%r10d
    44da:	41 c1 ea 10          	shr    $0x10,%r10d
    44de:	41 83 e2 08          	and    $0x8,%r10d
    44e2:	49 89 cb             	mov    %rcx,%r11
    44e5:	44 89 d1             	mov    %r10d,%ecx
    44e8:	4d 89 da             	mov    %r11,%r10
    44eb:	d3 e7                	shl    %cl,%edi
    44ed:	41 89 fb             	mov    %edi,%r11d
    44f0:	41 81 c3 00 f0 07 00 	add    $0x7f000,%r11d
    44f7:	41 c1 eb 10          	shr    $0x10,%r11d
    44fb:	41 83 e3 04          	and    $0x4,%r11d
    44ff:	41 89 cc             	mov    %ecx,%r12d
    4502:	44 89 d9             	mov    %r11d,%ecx
    4505:	45 89 e3             	mov    %r12d,%r11d
    4508:	d3 e7                	shl    %cl,%edi
    450a:	41 89 fc             	mov    %edi,%r12d
    450d:	41 81 c4 00 c0 03 00 	add    $0x3c000,%r12d
    4514:	41 c1 ec 10          	shr    $0x10,%r12d
    4518:	41 83 e4 02          	and    $0x2,%r12d
    451c:	41 89 cd             	mov    %ecx,%r13d
    451f:	44 89 e1             	mov    %r12d,%ecx
    4522:	45 89 ec             	mov    %r13d,%r12d
    4525:	d3 e7                	shl    %cl,%edi
    4527:	c1 ef 0f             	shr    $0xf,%edi
    452a:	45 09 e3             	or     %r12d,%r11d
    452d:	41 09 cb             	or     %ecx,%r11d
    4530:	44 29 df             	sub    %r11d,%edi
    4533:	89 f9                	mov    %edi,%ecx
    4535:	c1 e1 01             	shl    $0x1,%ecx
    4538:	83 c7 15             	add    $0x15,%edi
    453b:	45 89 c3             	mov    %r8d,%r11d
    453e:	41 89 cc             	mov    %ecx,%r12d
    4541:	40 89 f9             	rex mov %edi,%ecx
    4544:	44 89 e7             	mov    %r12d,%edi
    4547:	41 d3 eb             	shr    %cl,%r11d
    454a:	41 83 e3 01          	and    $0x1,%r11d
    454e:	44 09 df             	or     %r11d,%edi
    4551:	83 c7 1c             	add    $0x1c,%edi
    4554:	4c 89 d1             	mov    %r10,%rcx
    4557:	41 89 ff             	mov    %edi,%r15d
    455a:	e9 10 00 00 00       	jmpq   456f <guest_func_9+0x266f>
    455f:	44 8b bc 24 70 00 00 	mov    0x70(%rsp),%r15d
    4566:	00 
    4567:	e9 03 00 00 00       	jmpq   456f <guest_func_9+0x266f>
    456c:	45 89 d7             	mov    %r10d,%r15d
    456f:	4c 8b b4 24 38 00 00 	mov    0x38(%rsp),%r14
    4576:	00 
    4577:	47 89 7c 0e 1c       	mov    %r15d,0x1c(%r14,%r9,1)
    457c:	31 ff                	xor    %edi,%edi
    457e:	4b 89 7c 0e 10       	mov    %rdi,0x10(%r14,%r9,1)
    4583:	44 89 ff             	mov    %r15d,%edi
    4586:	c1 e7 02             	shl    $0x2,%edi
    4589:	81 c7 30 06 00 00    	add    $0x630,%edi
    458f:	41 89 da             	mov    %ebx,%r10d
    4592:	48 89 cb             	mov    %rcx,%rbx
    4595:	44 89 f9             	mov    %r15d,%ecx
    4598:	41 d3 e2             	shl    %cl,%r10d
    459b:	45 89 d3             	mov    %r10d,%r11d
    459e:	41 21 c3             	and    %eax,%r11d
    45a1:	41 89 cf             	mov    %ecx,%r15d
    45a4:	45 85 db             	test   %r11d,%r11d
    45a7:	0f 85 24 00 00 00    	jne    45d1 <guest_func_9+0x26d1>
    45ad:	89 f9                	mov    %edi,%ecx
    45af:	4d 89 f7             	mov    %r14,%r15
    45b2:	41 89 14 0f          	mov    %edx,(%r15,%rcx,1)
    45b6:	41 09 c2             	or     %eax,%r10d
    45b9:	45 89 14 1f          	mov    %r10d,(%r15,%rbx,1)
    45bd:	43 89 7c 0f 18       	mov    %edi,0x18(%r15,%r9,1)
    45c2:	43 89 54 0f 08       	mov    %edx,0x8(%r15,%r9,1)
    45c7:	43 89 54 0f 0c       	mov    %edx,0xc(%r15,%r9,1)
    45cc:	e9 c4 00 00 00       	jmpq   4695 <guest_func_9+0x2795>
    45d1:	b8 19 00 00 00       	mov    $0x19,%eax
    45d6:	44 89 f9             	mov    %r15d,%ecx
    45d9:	c1 e9 01             	shr    $0x1,%ecx
    45dc:	29 c8                	sub    %ecx,%eax
    45de:	41 83 ff 1f          	cmp    $0x1f,%r15d
    45e2:	0f 84 08 00 00 00    	je     45f0 <guest_func_9+0x26f0>
    45e8:	41 89 c7             	mov    %eax,%r15d
    45eb:	e9 08 00 00 00       	jmpq   45f8 <guest_func_9+0x26f8>
    45f0:	44 8b bc 24 70 00 00 	mov    0x70(%rsp),%r15d
    45f7:	00 
    45f8:	44 89 c0             	mov    %r8d,%eax
    45fb:	44 89 f9             	mov    %r15d,%ecx
    45fe:	d3 e0                	shl    %cl,%eax
    4600:	89 f9                	mov    %edi,%ecx
    4602:	4c 8b bc 24 38 00 00 	mov    0x38(%rsp),%r15
    4609:	00 
    460a:	41 8b 0c 0f          	mov    (%r15,%rcx,1),%ecx
    460e:	e9 02 00 00 00       	jmpq   4615 <guest_func_9+0x2715>
    4613:	89 f9                	mov    %edi,%ecx
    4615:	89 cb                	mov    %ecx,%ebx
    4617:	4c 8b bc 24 38 00 00 	mov    0x38(%rsp),%r15
    461e:	00 
    461f:	41 8b 7c 1f 04       	mov    0x4(%r15,%rbx,1),%edi
    4624:	83 e7 f8             	and    $0xfffffff8,%edi
    4627:	44 39 c7             	cmp    %r8d,%edi
    462a:	0f 84 32 00 00 00    	je     4662 <guest_func_9+0x2762>
    4630:	89 c3                	mov    %eax,%ebx
    4632:	c1 eb 1d             	shr    $0x1d,%ebx
    4635:	c1 e0 01             	shl    $0x1,%eax
    4638:	83 e3 04             	and    $0x4,%ebx
    463b:	01 cb                	add    %ecx,%ebx
    463d:	83 c3 10             	add    $0x10,%ebx
    4640:	89 db                	mov    %ebx,%ebx
    4642:	41 8b 3c 1f          	mov    (%r15,%rbx,1),%edi
    4646:	85 ff                	test   %edi,%edi
    4648:	75 c9                	jne    4613 <guest_func_9+0x2713>
    464a:	41 89 14 1f          	mov    %edx,(%r15,%rbx,1)
    464e:	43 89 4c 0f 18       	mov    %ecx,0x18(%r15,%r9,1)
    4653:	43 89 54 0f 0c       	mov    %edx,0xc(%r15,%r9,1)
    4658:	43 89 54 0f 08       	mov    %edx,0x8(%r15,%r9,1)
    465d:	e9 33 00 00 00       	jmpq   4695 <guest_func_9+0x2795>
    4662:	41 8b 44 1f 08       	mov    0x8(%r15,%rbx,1),%eax
    4667:	41 89 54 1f 08       	mov    %edx,0x8(%r15,%rbx,1)
    466c:	89 c3                	mov    %eax,%ebx
    466e:	41 89 54 1f 0c       	mov    %edx,0xc(%r15,%rbx,1)
    4673:	44 8b bc 24 70 00 00 	mov    0x70(%rsp),%r15d
    467a:	00 
    467b:	4c 8b b4 24 38 00 00 	mov    0x38(%rsp),%r14
    4682:	00 
    4683:	47 89 7c 0e 18       	mov    %r15d,0x18(%r14,%r9,1)
    4688:	4d 89 f7             	mov    %r14,%r15
    468b:	43 89 44 0f 08       	mov    %eax,0x8(%r15,%r9,1)
    4690:	43 89 4c 0f 0c       	mov    %ecx,0xc(%r15,%r9,1)
    4695:	83 c6 08             	add    $0x8,%esi
    4698:	89 b4 24 70 00 00 00 	mov    %esi,0x70(%rsp)
    469f:	e9 89 02 00 00       	jmpq   492d <guest_func_9+0x2a2d>
    46a4:	45 85 c9             	test   %r9d,%r9d
    46a7:	0f 84 34 01 00 00    	je     47e1 <guest_func_9+0x28e1>
    46ad:	4c 8b bc 24 38 00 00 	mov    0x38(%rsp),%r15
    46b4:	00 
    46b5:	47 8b 54 07 1c       	mov    0x1c(%r15,%r8,1),%r10d
    46ba:	45 89 d3             	mov    %r10d,%r11d
    46bd:	41 c1 e3 02          	shl    $0x2,%r11d
    46c1:	41 81 c3 30 06 00 00 	add    $0x630,%r11d
    46c8:	45 89 db             	mov    %r11d,%r11d
    46cb:	47 8b 24 1f          	mov    (%r15,%r11,1),%r12d
    46cf:	44 39 e2             	cmp    %r12d,%edx
    46d2:	0f 85 39 00 00 00    	jne    4711 <guest_func_9+0x2811>
    46d8:	44 8b bc 24 70 00 00 	mov    0x70(%rsp),%r15d
    46df:	00 
    46e0:	4c 8b b4 24 38 00 00 	mov    0x38(%rsp),%r14
    46e7:	00 
    46e8:	47 89 3c 1e          	mov    %r15d,(%r14,%r11,1)
    46ec:	45 85 ff             	test   %r15d,%r15d
    46ef:	0f 85 5e 00 00 00    	jne    4753 <guest_func_9+0x2853>
    46f5:	be fe ff ff ff       	mov    $0xfffffffe,%esi
    46fa:	41 89 c8             	mov    %ecx,%r8d
    46fd:	44 89 d1             	mov    %r10d,%ecx
    4700:	d3 c6                	rol    %cl,%esi
    4702:	44 21 c6             	and    %r8d,%esi
    4705:	4d 89 f7             	mov    %r14,%r15
    4708:	41 89 34 07          	mov    %esi,(%r15,%rax,1)
    470c:	e9 d0 00 00 00       	jmpq   47e1 <guest_func_9+0x28e1>
    4711:	44 89 c8             	mov    %r9d,%eax
    4714:	41 8b 44 07 10       	mov    0x10(%r15,%rax,1),%eax
    4719:	39 d0                	cmp    %edx,%eax
    471b:	0f 84 07 00 00 00    	je     4728 <guest_func_9+0x2828>
    4721:	89 b4 24 68 00 00 00 	mov    %esi,0x68(%rsp)
    4728:	44 8b bc 24 68 00 00 	mov    0x68(%rsp),%r15d
    472f:	00 
    4730:	45 01 cf             	add    %r9d,%r15d
    4733:	44 89 f8             	mov    %r15d,%eax
    4736:	44 8b bc 24 70 00 00 	mov    0x70(%rsp),%r15d
    473d:	00 
    473e:	4c 8b b4 24 38 00 00 	mov    0x38(%rsp),%r14
    4745:	00 
    4746:	45 89 3c 06          	mov    %r15d,(%r14,%rax,1)
    474a:	45 85 ff             	test   %r15d,%r15d
    474d:	0f 84 8e 00 00 00    	je     47e1 <guest_func_9+0x28e1>
    4753:	44 8b bc 24 70 00 00 	mov    0x70(%rsp),%r15d
    475a:	00 
    475b:	44 89 f8             	mov    %r15d,%eax
    475e:	4c 8b bc 24 38 00 00 	mov    0x38(%rsp),%r15
    4765:	00 
    4766:	45 89 4c 07 18       	mov    %r9d,0x18(%r15,%rax,1)
    476b:	43 8b 4c 07 10       	mov    0x10(%r15,%r8,1),%ecx
    4770:	85 c9                	test   %ecx,%ecx
    4772:	0f 84 1c 00 00 00    	je     4794 <guest_func_9+0x2894>
    4778:	41 89 4c 07 10       	mov    %ecx,0x10(%r15,%rax,1)
    477d:	89 c8                	mov    %ecx,%eax
    477f:	44 8b bc 24 70 00 00 	mov    0x70(%rsp),%r15d
    4786:	00 
    4787:	4c 8b b4 24 38 00 00 	mov    0x38(%rsp),%r14
    478e:	00 
    478f:	45 89 7c 06 18       	mov    %r15d,0x18(%r14,%rax,1)
    4794:	89 d0                	mov    %edx,%eax
    4796:	83 c0 14             	add    $0x14,%eax
    4799:	89 c0                	mov    %eax,%eax
    479b:	4c 8b bc 24 38 00 00 	mov    0x38(%rsp),%r15
    47a2:	00 
    47a3:	41 8b 04 07          	mov    (%r15,%rax,1),%eax
    47a7:	85 c0                	test   %eax,%eax
    47a9:	0f 84 32 00 00 00    	je     47e1 <guest_func_9+0x28e1>
    47af:	44 8b bc 24 70 00 00 	mov    0x70(%rsp),%r15d
    47b6:	00 
    47b7:	41 83 c7 14          	add    $0x14,%r15d
    47bb:	44 89 f9             	mov    %r15d,%ecx
    47be:	4c 8b bc 24 38 00 00 	mov    0x38(%rsp),%r15
    47c5:	00 
    47c6:	41 89 04 0f          	mov    %eax,(%r15,%rcx,1)
    47ca:	89 c0                	mov    %eax,%eax
    47cc:	44 8b bc 24 70 00 00 	mov    0x70(%rsp),%r15d
    47d3:	00 
    47d4:	4c 8b b4 24 38 00 00 	mov    0x38(%rsp),%r14
    47db:	00 
    47dc:	45 89 7c 06 18       	mov    %r15d,0x18(%r14,%rax,1)
    47e1:	83 fb 0f             	cmp    $0xf,%ebx
    47e4:	0f 87 35 00 00 00    	ja     481f <guest_func_9+0x291f>
    47ea:	44 8b bc 24 54 00 00 	mov    0x54(%rsp),%r15d
    47f1:	00 
    47f2:	44 01 fb             	add    %r15d,%ebx
    47f5:	89 d8                	mov    %ebx,%eax
    47f7:	83 c8 03             	or     $0x3,%eax
    47fa:	89 d1                	mov    %edx,%ecx
    47fc:	4c 8b bc 24 38 00 00 	mov    0x38(%rsp),%r15
    4803:	00 
    4804:	41 89 44 0f 04       	mov    %eax,0x4(%r15,%rcx,1)
    4809:	01 d3                	add    %edx,%ebx
    480b:	89 d8                	mov    %ebx,%eax
    480d:	41 8b 4c 07 04       	mov    0x4(%r15,%rax,1),%ecx
    4812:	83 c9 01             	or     $0x1,%ecx
    4815:	41 89 4c 07 04       	mov    %ecx,0x4(%r15,%rax,1)
    481a:	e9 04 01 00 00       	jmpq   4923 <guest_func_9+0x2a23>
    481f:	89 d0                	mov    %edx,%eax
    4821:	44 8b bc 24 54 00 00 	mov    0x54(%rsp),%r15d
    4828:	00 
    4829:	44 01 f8             	add    %r15d,%eax
    482c:	89 d9                	mov    %ebx,%ecx
    482e:	83 c9 01             	or     $0x1,%ecx
    4831:	89 c6                	mov    %eax,%esi
    4833:	4c 8b bc 24 38 00 00 	mov    0x38(%rsp),%r15
    483a:	00 
    483b:	41 89 4c 37 04       	mov    %ecx,0x4(%r15,%rsi,1)
    4840:	44 8b bc 24 54 00 00 	mov    0x54(%rsp),%r15d
    4847:	00 
    4848:	41 83 cf 03          	or     $0x3,%r15d
    484c:	89 d1                	mov    %edx,%ecx
    484e:	4c 8b b4 24 38 00 00 	mov    0x38(%rsp),%r14
    4855:	00 
    4856:	45 89 7c 0e 04       	mov    %r15d,0x4(%r14,%rcx,1)
    485b:	89 d9                	mov    %ebx,%ecx
    485d:	01 c1                	add    %eax,%ecx
    485f:	89 c9                	mov    %ecx,%ecx
    4861:	4d 89 f7             	mov    %r14,%r15
    4864:	41 89 1c 0f          	mov    %ebx,(%r15,%rcx,1)
    4868:	44 8b bc 24 5c 00 00 	mov    0x5c(%rsp),%r15d
    486f:	00 
    4870:	45 85 ff             	test   %r15d,%r15d
    4873:	0f 84 8c 00 00 00    	je     4905 <guest_func_9+0x2a05>
    4879:	41 c1 ef 03          	shr    $0x3,%r15d
    487d:	44 89 f9             	mov    %r15d,%ecx
    4880:	c1 e1 03             	shl    $0x3,%ecx
    4883:	81 c1 28 05 00 00    	add    $0x528,%ecx
    4889:	be 14 05 00 00       	mov    $0x514,%esi
    488e:	89 f6                	mov    %esi,%esi
    4890:	41 8b 34 36          	mov    (%r14,%rsi,1),%esi
    4894:	41 89 f8             	mov    %edi,%r8d
    4897:	40 89 cf             	rex mov %ecx,%edi
    489a:	44 89 f9             	mov    %r15d,%ecx
    489d:	41 d3 e0             	shl    %cl,%r8d
    48a0:	44 89 c1             	mov    %r8d,%ecx
    48a3:	44 8b bc 24 60 00 00 	mov    0x60(%rsp),%r15d
    48aa:	00 
    48ab:	44 21 f9             	and    %r15d,%ecx
    48ae:	41 89 c9             	mov    %ecx,%r9d
    48b1:	40 89 f9             	rex mov %edi,%ecx
    48b4:	44 89 cf             	mov    %r9d,%edi
    48b7:	85 ff                	test   %edi,%edi
    48b9:	0f 85 18 00 00 00    	jne    48d7 <guest_func_9+0x29d7>
    48bf:	bf 00 05 00 00       	mov    $0x500,%edi
    48c4:	45 09 f8             	or     %r15d,%r8d
    48c7:	89 ff                	mov    %edi,%edi
    48c9:	4d 89 f7             	mov    %r14,%r15
    48cc:	45 89 04 3f          	mov    %r8d,(%r15,%rdi,1)
    48d0:	89 cf                	mov    %ecx,%edi
    48d2:	e9 0a 00 00 00       	jmpq   48e1 <guest_func_9+0x29e1>
    48d7:	89 cf                	mov    %ecx,%edi
    48d9:	4d 89 f7             	mov    %r14,%r15
    48dc:	41 8b 7c 3f 08       	mov    0x8(%r15,%rdi,1),%edi
    48e1:	41 89 f8             	mov    %edi,%r8d
    48e4:	4c 8b bc 24 38 00 00 	mov    0x38(%rsp),%r15
    48eb:	00 
    48ec:	43 89 74 07 0c       	mov    %esi,0xc(%r15,%r8,1)
    48f1:	41 89 c8             	mov    %ecx,%r8d
    48f4:	43 89 74 07 08       	mov    %esi,0x8(%r15,%r8,1)
    48f9:	89 f6                	mov    %esi,%esi
    48fb:	41 89 4c 37 0c       	mov    %ecx,0xc(%r15,%rsi,1)
    4900:	41 89 7c 37 08       	mov    %edi,0x8(%r15,%rsi,1)
    4905:	b9 14 05 00 00       	mov    $0x514,%ecx
    490a:	89 c9                	mov    %ecx,%ecx
    490c:	4c 8b bc 24 38 00 00 	mov    0x38(%rsp),%r15
    4913:	00 
    4914:	41 89 04 0f          	mov    %eax,(%r15,%rcx,1)
    4918:	b8 08 05 00 00       	mov    $0x508,%eax
    491d:	89 c0                	mov    %eax,%eax
    491f:	41 89 1c 07          	mov    %ebx,(%r15,%rax,1)
    4923:	83 c2 08             	add    $0x8,%edx
    4926:	89 94 24 70 00 00 00 	mov    %edx,0x70(%rsp)
    492d:	44 8b bc 24 64 00 00 	mov    0x64(%rsp),%r15d
    4934:	00 
    4935:	41 83 c7 10          	add    $0x10,%r15d
    4939:	4c 8b b4 24 38 00 00 	mov    0x38(%rsp),%r14
    4940:	00 
    4941:	49 8b 46 f0          	mov    -0x10(%r14),%rax
    4945:	44 89 38             	mov    %r15d,(%rax)
    4948:	44 8b bc 24 70 00 00 	mov    0x70(%rsp),%r15d
    494f:	00 
    4950:	44 89 f8             	mov    %r15d,%eax
    4953:	48 83 c4 78          	add    $0x78,%rsp
    4957:	41 5f                	pop    %r15
    4959:	41 5e                	pop    %r14
    495b:	41 5d                	pop    %r13
    495d:	41 5c                	pop    %r12
    495f:	5b                   	pop    %rbx
    4960:	5d                   	pop    %rbp
    4961:	c3                   	retq   
	...

0000000000004970 <guest_func_aligned_alloc>:
    4970:	55                   	push   %rbp
    4971:	48 89 e5             	mov    %rsp,%rbp
    4974:	83 fe 10             	cmp    $0x10,%esi
    4977:	77 0a                	ja     4983 <guest_func_aligned_alloc+0x13>
    4979:	40 89 d6             	rex mov %edx,%esi
    497c:	e8 7f d5 ff ff       	callq  1f00 <guest_func_9>
    4981:	5d                   	pop    %rbp
    4982:	c3                   	retq   
    4983:	e8 08 c4 ff ff       	callq  d90 <guest_func_16>
    4988:	5d                   	pop    %rbp
    4989:	c3                   	retq   
    498a:	00 00                	add    %al,(%rax)
    498c:	00 00                	add    %al,(%rax)
	...

0000000000004990 <guest_func_realloc>:
    4990:	55                   	push   %rbp
    4991:	48 89 e5             	mov    %rsp,%rbp
    4994:	53                   	push   %rbx
    4995:	41 54                	push   %r12
    4997:	41 55                	push   %r13
    4999:	41 56                	push   %r14
    499b:	41 57                	push   %r15
    499d:	48 83 ec 28          	sub    $0x28,%rsp
    49a1:	48 89 bc 24 00 00 00 	mov    %rdi,0x0(%rsp)
    49a8:	00 
    49a9:	89 b4 24 24 00 00 00 	mov    %esi,0x24(%rsp)
    49b0:	89 94 24 20 00 00 00 	mov    %edx,0x20(%rsp)
    49b7:	31 c0                	xor    %eax,%eax
    49b9:	89 84 24 1c 00 00 00 	mov    %eax,0x1c(%rsp)
    49c0:	41 89 f7             	mov    %esi,%r15d
    49c3:	45 85 ff             	test   %r15d,%r15d
    49c6:	75 20                	jne    49e8 <guest_func_realloc+0x58>
    49c8:	49 89 ff             	mov    %rdi,%r15
    49cb:	41 89 d6             	mov    %edx,%r14d
    49ce:	4c 89 ff             	mov    %r15,%rdi
    49d1:	44 89 f6             	mov    %r14d,%esi
    49d4:	e8 27 d5 ff ff       	callq  1f00 <guest_func_9>
    49d9:	48 83 c4 28          	add    $0x28,%rsp
    49dd:	41 5f                	pop    %r15
    49df:	41 5e                	pop    %r14
    49e1:	41 5d                	pop    %r13
    49e3:	41 5c                	pop    %r12
    49e5:	5b                   	pop    %rbx
    49e6:	5d                   	pop    %rbp
    49e7:	c3                   	retq   
    49e8:	41 89 d7             	mov    %edx,%r15d
    49eb:	41 83 ff c0          	cmp    $0xffffffc0,%r15d
    49ef:	72 2d                	jb     4a1e <guest_func_realloc+0x8e>
    49f1:	b8 f0 06 00 00       	mov    $0x6f0,%eax
    49f6:	b9 30 00 00 00       	mov    $0x30,%ecx
    49fb:	89 c0                	mov    %eax,%eax
    49fd:	49 89 ff             	mov    %rdi,%r15
    4a00:	41 89 0c 07          	mov    %ecx,(%r15,%rax,1)
    4a04:	44 8b bc 24 1c 00 00 	mov    0x1c(%rsp),%r15d
    4a0b:	00 
    4a0c:	44 89 f8             	mov    %r15d,%eax
    4a0f:	48 83 c4 28          	add    $0x28,%rsp
    4a13:	41 5f                	pop    %r15
    4a15:	41 5e                	pop    %r14
    4a17:	41 5d                	pop    %r13
    4a19:	41 5c                	pop    %r12
    4a1b:	5b                   	pop    %rbx
    4a1c:	5d                   	pop    %rbp
    4a1d:	c3                   	retq   
    4a1e:	41 83 ff 0b          	cmp    $0xb,%r15d
    4a22:	0f 92 c0             	setb   %al
    4a25:	41 83 c7 13          	add    $0x13,%r15d
    4a29:	44 89 f9             	mov    %r15d,%ecx
    4a2c:	83 e1 f0             	and    $0xfffffff0,%ecx
    4a2f:	ba f8 ff ff ff       	mov    $0xfffffff8,%edx
    4a34:	89 94 24 14 00 00 00 	mov    %edx,0x14(%rsp)
    4a3b:	41 89 f7             	mov    %esi,%r15d
    4a3e:	41 83 c7 f8          	add    $0xfffffff8,%r15d
    4a42:	44 89 bc 24 18 00 00 	mov    %r15d,0x18(%rsp)
    4a49:	00 
    4a4a:	ba fc ff ff ff       	mov    $0xfffffffc,%edx
    4a4f:	89 94 24 10 00 00 00 	mov    %edx,0x10(%rsp)
    4a56:	41 89 f7             	mov    %esi,%r15d
    4a59:	41 83 c7 fc          	add    $0xfffffffc,%r15d
    4a5d:	44 89 bc 24 08 00 00 	mov    %r15d,0x8(%rsp)
    4a64:	00 
    4a65:	44 89 fa             	mov    %r15d,%edx
    4a68:	49 89 ff             	mov    %rdi,%r15
    4a6b:	41 8b 1c 17          	mov    (%r15,%rdx,1),%ebx
    4a6f:	89 de                	mov    %ebx,%esi
    4a71:	83 e6 03             	and    $0x3,%esi
    4a74:	bf 10 05 00 00       	mov    $0x510,%edi
    4a79:	89 ff                	mov    %edi,%edi
    4a7b:	41 8b 3c 3f          	mov    (%r15,%rdi,1),%edi
    4a7f:	41 89 d8             	mov    %ebx,%r8d
    4a82:	41 83 e0 f8          	and    $0xfffffff8,%r8d
    4a86:	41 83 f8 01          	cmp    $0x1,%r8d
    4a8a:	7c 0d                	jl     4a99 <guest_func_realloc+0x109>
    4a8c:	44 8b bc 24 18 00 00 	mov    0x18(%rsp),%r15d
    4a93:	00 
    4a94:	44 39 ff             	cmp    %r15d,%edi
    4a97:	77 00                	ja     4a99 <guest_func_realloc+0x109>
    4a99:	41 b9 10 00 00 00    	mov    $0x10,%r9d
    4a9f:	84 c0                	test   %al,%al
    4aa1:	75 05                	jne    4aa8 <guest_func_realloc+0x118>
    4aa3:	40 89 c8             	rex mov %ecx,%eax
    4aa6:	eb 03                	jmp    4aab <guest_func_realloc+0x11b>
    4aa8:	44 89 c8             	mov    %r9d,%eax
    4aab:	85 f6                	test   %esi,%esi
    4aad:	75 51                	jne    4b00 <guest_func_realloc+0x170>
    4aaf:	81 f8 00 01 00 00    	cmp    $0x100,%eax
    4ab5:	0f 82 82 05 00 00    	jb     503d <guest_func_realloc+0x6ad>
    4abb:	89 c1                	mov    %eax,%ecx
    4abd:	83 c9 04             	or     $0x4,%ecx
    4ac0:	41 39 c8             	cmp    %ecx,%r8d
    4ac3:	0f 82 86 05 00 00    	jb     504f <guest_func_realloc+0x6bf>
    4ac9:	41 29 c0             	sub    %eax,%r8d
    4acc:	b8 e0 06 00 00       	mov    $0x6e0,%eax
    4ad1:	89 c0                	mov    %eax,%eax
    4ad3:	4c 8b bc 24 00 00 00 	mov    0x0(%rsp),%r15
    4ada:	00 
    4adb:	41 8b 04 07          	mov    (%r15,%rax,1),%eax
    4adf:	c1 e0 01             	shl    $0x1,%eax
    4ae2:	41 39 c0             	cmp    %eax,%r8d
    4ae5:	0f 86 88 06 00 00    	jbe    5173 <guest_func_realloc+0x7e3>
    4aeb:	44 8b bc 24 24 00 00 	mov    0x24(%rsp),%r15d
    4af2:	00 
    4af3:	44 89 bc 24 0c 00 00 	mov    %r15d,0xc(%rsp)
    4afa:	00 
    4afb:	e9 a7 05 00 00       	jmpq   50a7 <guest_func_realloc+0x717>
    4b00:	44 89 c1             	mov    %r8d,%ecx
    4b03:	44 8b bc 24 18 00 00 	mov    0x18(%rsp),%r15d
    4b0a:	00 
    4b0b:	44 01 f9             	add    %r15d,%ecx
    4b0e:	41 39 c0             	cmp    %eax,%r8d
    4b11:	72 78                	jb     4b8b <guest_func_realloc+0x1fb>
    4b13:	44 89 c6             	mov    %r8d,%esi
    4b16:	29 c6                	sub    %eax,%esi
    4b18:	83 fe 10             	cmp    $0x10,%esi
    4b1b:	0f 82 52 06 00 00    	jb     5173 <guest_func_realloc+0x7e3>
    4b21:	83 e3 01             	and    $0x1,%ebx
    4b24:	09 c3                	or     %eax,%ebx
    4b26:	83 cb 02             	or     $0x2,%ebx
    4b29:	4c 8b bc 24 00 00 00 	mov    0x0(%rsp),%r15
    4b30:	00 
    4b31:	41 89 1c 17          	mov    %ebx,(%r15,%rdx,1)
    4b35:	44 8b bc 24 18 00 00 	mov    0x18(%rsp),%r15d
    4b3c:	00 
    4b3d:	44 01 f8             	add    %r15d,%eax
    4b40:	89 f2                	mov    %esi,%edx
    4b42:	83 ca 03             	or     $0x3,%edx
    4b45:	89 c3                	mov    %eax,%ebx
    4b47:	4c 8b bc 24 00 00 00 	mov    0x0(%rsp),%r15
    4b4e:	00 
    4b4f:	41 89 54 1f 04       	mov    %edx,0x4(%r15,%rbx,1)
    4b54:	89 c9                	mov    %ecx,%ecx
    4b56:	41 8b 54 0f 04       	mov    0x4(%r15,%rcx,1),%edx
    4b5b:	83 ca 01             	or     $0x1,%edx
    4b5e:	41 89 54 0f 04       	mov    %edx,0x4(%r15,%rcx,1)
    4b63:	4c 89 ff             	mov    %r15,%rdi
    4b66:	40 89 f2             	rex mov %esi,%edx
    4b69:	40 89 c6             	rex mov %eax,%esi
    4b6c:	e8 6f 15 00 00       	callq  60e0 <guest_func_14>
    4b71:	44 8b bc 24 24 00 00 	mov    0x24(%rsp),%r15d
    4b78:	00 
    4b79:	44 89 f8             	mov    %r15d,%eax
    4b7c:	48 83 c4 28          	add    $0x28,%rsp
    4b80:	41 5f                	pop    %r15
    4b82:	41 5e                	pop    %r14
    4b84:	41 5d                	pop    %r13
    4b86:	41 5c                	pop    %r12
    4b88:	5b                   	pop    %rbx
    4b89:	5d                   	pop    %rbp
    4b8a:	c3                   	retq   
    4b8b:	be 18 05 00 00       	mov    $0x518,%esi
    4b90:	89 f6                	mov    %esi,%esi
    4b92:	4c 8b bc 24 00 00 00 	mov    0x0(%rsp),%r15
    4b99:	00 
    4b9a:	45 8b 14 37          	mov    (%r15,%rsi,1),%r10d
    4b9e:	44 39 d1             	cmp    %r10d,%ecx
    4ba1:	75 65                	jne    4c08 <guest_func_realloc+0x278>
    4ba3:	b9 0c 05 00 00       	mov    $0x50c,%ecx
    4ba8:	89 c9                	mov    %ecx,%ecx
    4baa:	41 8b 3c 0f          	mov    (%r15,%rcx,1),%edi
    4bae:	44 01 c7             	add    %r8d,%edi
    4bb1:	39 c7                	cmp    %eax,%edi
    4bb3:	0f 86 a8 04 00 00    	jbe    5061 <guest_func_realloc+0x6d1>
    4bb9:	83 e3 01             	and    $0x1,%ebx
    4bbc:	09 c3                	or     %eax,%ebx
    4bbe:	83 cb 02             	or     $0x2,%ebx
    4bc1:	41 89 1c 17          	mov    %ebx,(%r15,%rdx,1)
    4bc5:	89 c2                	mov    %eax,%edx
    4bc7:	44 8b bc 24 18 00 00 	mov    0x18(%rsp),%r15d
    4bce:	00 
    4bcf:	44 01 fa             	add    %r15d,%edx
    4bd2:	4c 8b bc 24 00 00 00 	mov    0x0(%rsp),%r15
    4bd9:	00 
    4bda:	41 89 14 37          	mov    %edx,(%r15,%rsi,1)
    4bde:	29 c7                	sub    %eax,%edi
    4be0:	41 89 3c 0f          	mov    %edi,(%r15,%rcx,1)
    4be4:	83 cf 01             	or     $0x1,%edi
    4be7:	89 d0                	mov    %edx,%eax
    4be9:	41 89 7c 07 04       	mov    %edi,0x4(%r15,%rax,1)
    4bee:	44 8b bc 24 24 00 00 	mov    0x24(%rsp),%r15d
    4bf5:	00 
    4bf6:	44 89 f8             	mov    %r15d,%eax
    4bf9:	48 83 c4 28          	add    $0x28,%rsp
    4bfd:	41 5f                	pop    %r15
    4bff:	41 5e                	pop    %r14
    4c01:	41 5d                	pop    %r13
    4c03:	41 5c                	pop    %r12
    4c05:	5b                   	pop    %rbx
    4c06:	5d                   	pop    %rbp
    4c07:	c3                   	retq   
    4c08:	be 14 05 00 00       	mov    $0x514,%esi
    4c0d:	89 f6                	mov    %esi,%esi
    4c0f:	45 8b 14 37          	mov    (%r15,%rsi,1),%r10d
    4c13:	44 39 d1             	cmp    %r10d,%ecx
    4c16:	0f 85 e9 00 00 00    	jne    4d05 <guest_func_realloc+0x375>
    4c1c:	b9 08 05 00 00       	mov    $0x508,%ecx
    4c21:	89 c9                	mov    %ecx,%ecx
    4c23:	41 8b 3c 0f          	mov    (%r15,%rcx,1),%edi
    4c27:	44 01 c7             	add    %r8d,%edi
    4c2a:	39 c7                	cmp    %eax,%edi
    4c2c:	0f 82 41 04 00 00    	jb     5073 <guest_func_realloc+0x6e3>
    4c32:	41 89 f8             	mov    %edi,%r8d
    4c35:	41 29 c0             	sub    %eax,%r8d
    4c38:	41 83 f8 10          	cmp    $0x10,%r8d
    4c3c:	72 5f                	jb     4c9d <guest_func_realloc+0x30d>
    4c3e:	83 e3 01             	and    $0x1,%ebx
    4c41:	09 c3                	or     %eax,%ebx
    4c43:	83 cb 02             	or     $0x2,%ebx
    4c46:	41 89 1c 17          	mov    %ebx,(%r15,%rdx,1)
    4c4a:	44 8b bc 24 18 00 00 	mov    0x18(%rsp),%r15d
    4c51:	00 
    4c52:	44 01 f8             	add    %r15d,%eax
    4c55:	44 89 c2             	mov    %r8d,%edx
    4c58:	83 ca 01             	or     $0x1,%edx
    4c5b:	89 c3                	mov    %eax,%ebx
    4c5d:	4c 8b bc 24 00 00 00 	mov    0x0(%rsp),%r15
    4c64:	00 
    4c65:	41 89 54 1f 04       	mov    %edx,0x4(%r15,%rbx,1)
    4c6a:	44 8b bc 24 18 00 00 	mov    0x18(%rsp),%r15d
    4c71:	00 
    4c72:	44 01 ff             	add    %r15d,%edi
    4c75:	89 fa                	mov    %edi,%edx
    4c77:	4c 8b bc 24 00 00 00 	mov    0x0(%rsp),%r15
    4c7e:	00 
    4c7f:	45 89 04 17          	mov    %r8d,(%r15,%rdx,1)
    4c83:	41 8b 5c 17 04       	mov    0x4(%r15,%rdx,1),%ebx
    4c88:	83 e3 fe             	and    $0xfffffffe,%ebx
    4c8b:	41 89 5c 17 04       	mov    %ebx,0x4(%r15,%rdx,1)
    4c90:	44 89 84 24 1c 00 00 	mov    %r8d,0x1c(%rsp)
    4c97:	00 
    4c98:	41 89 c7             	mov    %eax,%r15d
    4c9b:	eb 36                	jmp    4cd3 <guest_func_realloc+0x343>
    4c9d:	83 e3 01             	and    $0x1,%ebx
    4ca0:	09 fb                	or     %edi,%ebx
    4ca2:	83 cb 02             	or     $0x2,%ebx
    4ca5:	41 89 1c 17          	mov    %ebx,(%r15,%rdx,1)
    4ca9:	44 8b bc 24 18 00 00 	mov    0x18(%rsp),%r15d
    4cb0:	00 
    4cb1:	44 01 ff             	add    %r15d,%edi
    4cb4:	89 f8                	mov    %edi,%eax
    4cb6:	4c 8b bc 24 00 00 00 	mov    0x0(%rsp),%r15
    4cbd:	00 
    4cbe:	41 8b 54 07 04       	mov    0x4(%r15,%rax,1),%edx
    4cc3:	83 ca 01             	or     $0x1,%edx
    4cc6:	41 89 54 07 04       	mov    %edx,0x4(%r15,%rax,1)
    4ccb:	44 8b bc 24 1c 00 00 	mov    0x1c(%rsp),%r15d
    4cd2:	00 
    4cd3:	4c 8b b4 24 00 00 00 	mov    0x0(%rsp),%r14
    4cda:	00 
    4cdb:	45 89 3c 36          	mov    %r15d,(%r14,%rsi,1)
    4cdf:	44 8b bc 24 1c 00 00 	mov    0x1c(%rsp),%r15d
    4ce6:	00 
    4ce7:	45 89 3c 0e          	mov    %r15d,(%r14,%rcx,1)
    4ceb:	44 8b bc 24 24 00 00 	mov    0x24(%rsp),%r15d
    4cf2:	00 
    4cf3:	44 89 f8             	mov    %r15d,%eax
    4cf6:	48 83 c4 28          	add    $0x28,%rsp
    4cfa:	41 5f                	pop    %r15
    4cfc:	41 5e                	pop    %r14
    4cfe:	41 5d                	pop    %r13
    4d00:	41 5c                	pop    %r12
    4d02:	5b                   	pop    %rbx
    4d03:	5d                   	pop    %rbp
    4d04:	c3                   	retq   
    4d05:	89 ca                	mov    %ecx,%edx
    4d07:	41 8b 74 17 04       	mov    0x4(%r15,%rdx,1),%esi
    4d0c:	41 89 f2             	mov    %esi,%r10d
    4d0f:	41 83 e2 02          	and    $0x2,%r10d
    4d13:	45 85 d2             	test   %r10d,%r10d
    4d16:	0f 85 69 03 00 00    	jne    5085 <guest_func_realloc+0x6f5>
    4d1c:	41 89 f2             	mov    %esi,%r10d
    4d1f:	41 83 e2 f8          	and    $0xfffffff8,%r10d
    4d23:	45 01 c2             	add    %r8d,%r10d
    4d26:	41 39 c2             	cmp    %eax,%r10d
    4d29:	0f 82 68 03 00 00    	jb     5097 <guest_func_realloc+0x707>
    4d2f:	45 89 d0             	mov    %r10d,%r8d
    4d32:	41 29 c0             	sub    %eax,%r8d
    4d35:	81 fe ff 00 00 00    	cmp    $0xff,%esi
    4d3b:	77 6d                	ja     4daa <guest_func_realloc+0x41a>
    4d3d:	41 8b 4c 17 0c       	mov    0xc(%r15,%rdx,1),%ecx
    4d42:	41 8b 54 17 08       	mov    0x8(%r15,%rdx,1),%edx
    4d47:	c1 ee 03             	shr    $0x3,%esi
    4d4a:	89 f7                	mov    %esi,%edi
    4d4c:	c1 e7 03             	shl    $0x3,%edi
    4d4f:	81 c7 28 05 00 00    	add    $0x528,%edi
    4d55:	39 fa                	cmp    %edi,%edx
    4d57:	74 00                	je     4d59 <guest_func_realloc+0x3c9>
    4d59:	39 d1                	cmp    %edx,%ecx
    4d5b:	75 2e                	jne    4d8b <guest_func_realloc+0x3fb>
    4d5d:	b9 00 05 00 00       	mov    $0x500,%ecx
    4d62:	89 c9                	mov    %ecx,%ecx
    4d64:	4c 8b bc 24 00 00 00 	mov    0x0(%rsp),%r15
    4d6b:	00 
    4d6c:	41 8b 14 0f          	mov    (%r15,%rcx,1),%edx
    4d70:	bf fe ff ff ff       	mov    $0xfffffffe,%edi
    4d75:	49 89 c9             	mov    %rcx,%r9
    4d78:	40 89 f1             	rex mov %esi,%ecx
    4d7b:	4c 89 ce             	mov    %r9,%rsi
    4d7e:	d3 c7                	rol    %cl,%edi
    4d80:	21 fa                	and    %edi,%edx
    4d82:	41 89 14 37          	mov    %edx,(%r15,%rsi,1)
    4d86:	e9 c5 01 00 00       	jmpq   4f50 <guest_func_realloc+0x5c0>
    4d8b:	39 f9                	cmp    %edi,%ecx
    4d8d:	74 00                	je     4d8f <guest_func_realloc+0x3ff>
    4d8f:	89 ce                	mov    %ecx,%esi
    4d91:	4c 8b bc 24 00 00 00 	mov    0x0(%rsp),%r15
    4d98:	00 
    4d99:	41 89 54 37 08       	mov    %edx,0x8(%r15,%rsi,1)
    4d9e:	89 d2                	mov    %edx,%edx
    4da0:	41 89 4c 17 0c       	mov    %ecx,0xc(%r15,%rdx,1)
    4da5:	e9 a6 01 00 00       	jmpq   4f50 <guest_func_realloc+0x5c0>
    4daa:	41 8b 74 17 18       	mov    0x18(%r15,%rdx,1),%esi
    4daf:	45 8b 5c 17 0c       	mov    0xc(%r15,%rdx,1),%r11d
    4db4:	41 39 cb             	cmp    %ecx,%r11d
    4db7:	74 2f                	je     4de8 <guest_func_realloc+0x458>
    4db9:	45 8b 64 17 08       	mov    0x8(%r15,%rdx,1),%r12d
    4dbe:	44 39 e7             	cmp    %r12d,%edi
    4dc1:	77 08                	ja     4dcb <guest_func_realloc+0x43b>
    4dc3:	44 89 e7             	mov    %r12d,%edi
    4dc6:	41 8b 7c 3f 0c       	mov    0xc(%r15,%rdi,1),%edi
    4dcb:	44 89 df             	mov    %r11d,%edi
    4dce:	4c 8b bc 24 00 00 00 	mov    0x0(%rsp),%r15
    4dd5:	00 
    4dd6:	45 89 64 3f 08       	mov    %r12d,0x8(%r15,%rdi,1)
    4ddb:	44 89 e7             	mov    %r12d,%edi
    4dde:	45 89 5c 3f 0c       	mov    %r11d,0xc(%r15,%rdi,1)
    4de3:	e9 96 00 00 00       	jmpq   4e7e <guest_func_realloc+0x4ee>
    4de8:	89 cf                	mov    %ecx,%edi
    4dea:	83 c7 14             	add    $0x14,%edi
    4ded:	41 89 fb             	mov    %edi,%r11d
    4df0:	47 8b 1c 1f          	mov    (%r15,%r11,1),%r11d
    4df4:	45 85 db             	test   %r11d,%r11d
    4df7:	75 1e                	jne    4e17 <guest_func_realloc+0x487>
    4df9:	89 cf                	mov    %ecx,%edi
    4dfb:	83 c7 10             	add    $0x10,%edi
    4dfe:	41 89 fb             	mov    %edi,%r11d
    4e01:	47 8b 1c 1f          	mov    (%r15,%r11,1),%r11d
    4e05:	45 85 db             	test   %r11d,%r11d
    4e08:	75 0d                	jne    4e17 <guest_func_realloc+0x487>
    4e0a:	44 8b bc 24 1c 00 00 	mov    0x1c(%rsp),%r15d
    4e11:	00 
    4e12:	45 89 fb             	mov    %r15d,%r11d
    4e15:	eb 67                	jmp    4e7e <guest_func_realloc+0x4ee>
    4e17:	eb 20                	jmp    4e39 <guest_func_realloc+0x4a9>
    4e19:	44 89 ef             	mov    %r13d,%edi
    4e1c:	45 89 e3             	mov    %r12d,%r11d
    4e1f:	45 89 de             	mov    %r11d,%r14d
    4e22:	41 89 fb             	mov    %edi,%r11d
    4e25:	44 89 f7             	mov    %r14d,%edi
    4e28:	eb 0f                	jmp    4e39 <guest_func_realloc+0x4a9>
    4e2a:	44 89 ef             	mov    %r13d,%edi
    4e2d:	45 89 e3             	mov    %r12d,%r11d
    4e30:	45 89 de             	mov    %r11d,%r14d
    4e33:	41 89 fb             	mov    %edi,%r11d
    4e36:	44 89 f7             	mov    %r14d,%edi
    4e39:	45 89 dc             	mov    %r11d,%r12d
    4e3c:	41 83 c4 14          	add    $0x14,%r12d
    4e40:	45 89 e5             	mov    %r12d,%r13d
    4e43:	4c 8b bc 24 00 00 00 	mov    0x0(%rsp),%r15
    4e4a:	00 
    4e4b:	47 8b 2c 2f          	mov    (%r15,%r13,1),%r13d
    4e4f:	45 85 ed             	test   %r13d,%r13d
    4e52:	75 c5                	jne    4e19 <guest_func_realloc+0x489>
    4e54:	45 89 dc             	mov    %r11d,%r12d
    4e57:	41 83 c4 10          	add    $0x10,%r12d
    4e5b:	45 89 dd             	mov    %r11d,%r13d
    4e5e:	47 8b 6c 2f 10       	mov    0x10(%r15,%r13,1),%r13d
    4e63:	45 85 ed             	test   %r13d,%r13d
    4e66:	75 c2                	jne    4e2a <guest_func_realloc+0x49a>
    4e68:	89 ff                	mov    %edi,%edi
    4e6a:	44 8b bc 24 1c 00 00 	mov    0x1c(%rsp),%r15d
    4e71:	00 
    4e72:	4c 8b b4 24 00 00 00 	mov    0x0(%rsp),%r14
    4e79:	00 
    4e7a:	45 89 3c 3e          	mov    %r15d,(%r14,%rdi,1)
    4e7e:	85 f6                	test   %esi,%esi
    4e80:	0f 84 ca 00 00 00    	je     4f50 <guest_func_realloc+0x5c0>
    4e86:	4c 8b bc 24 00 00 00 	mov    0x0(%rsp),%r15
    4e8d:	00 
    4e8e:	41 8b 7c 17 1c       	mov    0x1c(%r15,%rdx,1),%edi
    4e93:	41 89 fc             	mov    %edi,%r12d
    4e96:	41 c1 e4 02          	shl    $0x2,%r12d
    4e9a:	41 81 c4 30 06 00 00 	add    $0x630,%r12d
    4ea1:	45 89 e4             	mov    %r12d,%r12d
    4ea4:	47 8b 2c 27          	mov    (%r15,%r12,1),%r13d
    4ea8:	44 39 e9             	cmp    %r13d,%ecx
    4eab:	75 2c                	jne    4ed9 <guest_func_realloc+0x549>
    4ead:	47 89 1c 27          	mov    %r11d,(%r15,%r12,1)
    4eb1:	45 85 db             	test   %r11d,%r11d
    4eb4:	75 51                	jne    4f07 <guest_func_realloc+0x577>
    4eb6:	b9 04 05 00 00       	mov    $0x504,%ecx
    4ebb:	89 c9                	mov    %ecx,%ecx
    4ebd:	41 8b 14 0f          	mov    (%r15,%rcx,1),%edx
    4ec1:	be fe ff ff ff       	mov    $0xfffffffe,%esi
    4ec6:	49 89 c9             	mov    %rcx,%r9
    4ec9:	40 89 f9             	rex mov %edi,%ecx
    4ecc:	4c 89 cf             	mov    %r9,%rdi
    4ecf:	d3 c6                	rol    %cl,%esi
    4ed1:	21 f2                	and    %esi,%edx
    4ed3:	41 89 14 3f          	mov    %edx,(%r15,%rdi,1)
    4ed7:	eb 77                	jmp    4f50 <guest_func_realloc+0x5c0>
    4ed9:	bf 14 00 00 00       	mov    $0x14,%edi
    4ede:	41 89 f4             	mov    %esi,%r12d
    4ee1:	47 8b 64 27 10       	mov    0x10(%r15,%r12,1),%r12d
    4ee6:	41 39 cc             	cmp    %ecx,%r12d
    4ee9:	74 05                	je     4ef0 <guest_func_realloc+0x560>
    4eeb:	89 f9                	mov    %edi,%ecx
    4eed:	41 89 c9             	mov    %ecx,%r9d
    4ef0:	41 01 f1             	add    %esi,%r9d
    4ef3:	44 89 c9             	mov    %r9d,%ecx
    4ef6:	4c 8b bc 24 00 00 00 	mov    0x0(%rsp),%r15
    4efd:	00 
    4efe:	45 89 1c 0f          	mov    %r11d,(%r15,%rcx,1)
    4f02:	45 85 db             	test   %r11d,%r11d
    4f05:	74 49                	je     4f50 <guest_func_realloc+0x5c0>
    4f07:	44 89 d9             	mov    %r11d,%ecx
    4f0a:	4c 8b bc 24 00 00 00 	mov    0x0(%rsp),%r15
    4f11:	00 
    4f12:	41 89 74 0f 18       	mov    %esi,0x18(%r15,%rcx,1)
    4f17:	41 8b 74 17 10       	mov    0x10(%r15,%rdx,1),%esi
    4f1c:	85 f6                	test   %esi,%esi
    4f1e:	74 0c                	je     4f2c <guest_func_realloc+0x59c>
    4f20:	41 89 74 0f 10       	mov    %esi,0x10(%r15,%rcx,1)
    4f25:	89 f1                	mov    %esi,%ecx
    4f27:	45 89 5c 0f 18       	mov    %r11d,0x18(%r15,%rcx,1)
    4f2c:	4c 8b bc 24 00 00 00 	mov    0x0(%rsp),%r15
    4f33:	00 
    4f34:	41 8b 4c 17 14       	mov    0x14(%r15,%rdx,1),%ecx
    4f39:	85 c9                	test   %ecx,%ecx
    4f3b:	74 13                	je     4f50 <guest_func_realloc+0x5c0>
    4f3d:	44 89 da             	mov    %r11d,%edx
    4f40:	83 c2 14             	add    $0x14,%edx
    4f43:	89 d2                	mov    %edx,%edx
    4f45:	41 89 0c 17          	mov    %ecx,(%r15,%rdx,1)
    4f49:	89 c9                	mov    %ecx,%ecx
    4f4b:	45 89 5c 0f 18       	mov    %r11d,0x18(%r15,%rcx,1)
    4f50:	41 83 f8 0f          	cmp    $0xf,%r8d
    4f54:	77 5d                	ja     4fb3 <guest_func_realloc+0x623>
    4f56:	83 e3 01             	and    $0x1,%ebx
    4f59:	44 09 d3             	or     %r10d,%ebx
    4f5c:	83 cb 02             	or     $0x2,%ebx
    4f5f:	44 8b bc 24 08 00 00 	mov    0x8(%rsp),%r15d
    4f66:	00 
    4f67:	44 89 f8             	mov    %r15d,%eax
    4f6a:	4c 8b bc 24 00 00 00 	mov    0x0(%rsp),%r15
    4f71:	00 
    4f72:	41 89 1c 07          	mov    %ebx,(%r15,%rax,1)
    4f76:	44 8b bc 24 18 00 00 	mov    0x18(%rsp),%r15d
    4f7d:	00 
    4f7e:	45 01 d7             	add    %r10d,%r15d
    4f81:	44 89 f8             	mov    %r15d,%eax
    4f84:	4c 8b bc 24 00 00 00 	mov    0x0(%rsp),%r15
    4f8b:	00 
    4f8c:	41 8b 4c 07 04       	mov    0x4(%r15,%rax,1),%ecx
    4f91:	83 c9 01             	or     $0x1,%ecx
    4f94:	41 89 4c 07 04       	mov    %ecx,0x4(%r15,%rax,1)
    4f99:	44 8b bc 24 24 00 00 	mov    0x24(%rsp),%r15d
    4fa0:	00 
    4fa1:	44 89 f8             	mov    %r15d,%eax
    4fa4:	48 83 c4 28          	add    $0x28,%rsp
    4fa8:	41 5f                	pop    %r15
    4faa:	41 5e                	pop    %r14
    4fac:	41 5d                	pop    %r13
    4fae:	41 5c                	pop    %r12
    4fb0:	5b                   	pop    %rbx
    4fb1:	5d                   	pop    %rbp
    4fb2:	c3                   	retq   
    4fb3:	83 e3 01             	and    $0x1,%ebx
    4fb6:	09 c3                	or     %eax,%ebx
    4fb8:	83 cb 02             	or     $0x2,%ebx
    4fbb:	44 8b bc 24 08 00 00 	mov    0x8(%rsp),%r15d
    4fc2:	00 
    4fc3:	44 89 f9             	mov    %r15d,%ecx
    4fc6:	4c 8b bc 24 00 00 00 	mov    0x0(%rsp),%r15
    4fcd:	00 
    4fce:	41 89 1c 0f          	mov    %ebx,(%r15,%rcx,1)
    4fd2:	44 8b bc 24 18 00 00 	mov    0x18(%rsp),%r15d
    4fd9:	00 
    4fda:	44 01 f8             	add    %r15d,%eax
    4fdd:	44 89 c1             	mov    %r8d,%ecx
    4fe0:	83 c9 03             	or     $0x3,%ecx
    4fe3:	89 c2                	mov    %eax,%edx
    4fe5:	4c 8b bc 24 00 00 00 	mov    0x0(%rsp),%r15
    4fec:	00 
    4fed:	41 89 4c 17 04       	mov    %ecx,0x4(%r15,%rdx,1)
    4ff2:	44 8b bc 24 18 00 00 	mov    0x18(%rsp),%r15d
    4ff9:	00 
    4ffa:	45 01 d7             	add    %r10d,%r15d
    4ffd:	44 89 f9             	mov    %r15d,%ecx
    5000:	4c 8b bc 24 00 00 00 	mov    0x0(%rsp),%r15
    5007:	00 
    5008:	41 8b 54 0f 04       	mov    0x4(%r15,%rcx,1),%edx
    500d:	83 ca 01             	or     $0x1,%edx
    5010:	41 89 54 0f 04       	mov    %edx,0x4(%r15,%rcx,1)
    5015:	4c 89 ff             	mov    %r15,%rdi
    5018:	40 89 c6             	rex mov %eax,%esi
    501b:	44 89 c2             	mov    %r8d,%edx
    501e:	e8 bd 10 00 00       	callq  60e0 <guest_func_14>
    5023:	44 8b bc 24 24 00 00 	mov    0x24(%rsp),%r15d
    502a:	00 
    502b:	44 89 f8             	mov    %r15d,%eax
    502e:	48 83 c4 28          	add    $0x28,%rsp
    5032:	41 5f                	pop    %r15
    5034:	41 5e                	pop    %r14
    5036:	41 5d                	pop    %r13
    5038:	41 5c                	pop    %r12
    503a:	5b                   	pop    %rbx
    503b:	5d                   	pop    %rbp
    503c:	c3                   	retq   
    503d:	44 8b bc 24 24 00 00 	mov    0x24(%rsp),%r15d
    5044:	00 
    5045:	44 89 bc 24 0c 00 00 	mov    %r15d,0xc(%rsp)
    504c:	00 
    504d:	eb 58                	jmp    50a7 <guest_func_realloc+0x717>
    504f:	44 8b bc 24 24 00 00 	mov    0x24(%rsp),%r15d
    5056:	00 
    5057:	44 89 bc 24 0c 00 00 	mov    %r15d,0xc(%rsp)
    505e:	00 
    505f:	eb 46                	jmp    50a7 <guest_func_realloc+0x717>
    5061:	44 8b bc 24 24 00 00 	mov    0x24(%rsp),%r15d
    5068:	00 
    5069:	44 89 bc 24 0c 00 00 	mov    %r15d,0xc(%rsp)
    5070:	00 
    5071:	eb 34                	jmp    50a7 <guest_func_realloc+0x717>
    5073:	44 8b bc 24 24 00 00 	mov    0x24(%rsp),%r15d
    507a:	00 
    507b:	44 89 bc 24 0c 00 00 	mov    %r15d,0xc(%rsp)
    5082:	00 
    5083:	eb 22                	jmp    50a7 <guest_func_realloc+0x717>
    5085:	44 8b bc 24 24 00 00 	mov    0x24(%rsp),%r15d
    508c:	00 
    508d:	44 89 bc 24 0c 00 00 	mov    %r15d,0xc(%rsp)
    5094:	00 
    5095:	eb 10                	jmp    50a7 <guest_func_realloc+0x717>
    5097:	44 8b bc 24 24 00 00 	mov    0x24(%rsp),%r15d
    509e:	00 
    509f:	44 89 bc 24 0c 00 00 	mov    %r15d,0xc(%rsp)
    50a6:	00 
    50a7:	4c 8b bc 24 00 00 00 	mov    0x0(%rsp),%r15
    50ae:	00 
    50af:	44 8b b4 24 20 00 00 	mov    0x20(%rsp),%r14d
    50b6:	00 
    50b7:	4c 89 ff             	mov    %r15,%rdi
    50ba:	44 89 f6             	mov    %r14d,%esi
    50bd:	e8 3e ce ff ff       	callq  1f00 <guest_func_9>
    50c2:	85 c0                	test   %eax,%eax
    50c4:	75 1a                	jne    50e0 <guest_func_realloc+0x750>
    50c6:	44 8b bc 24 1c 00 00 	mov    0x1c(%rsp),%r15d
    50cd:	00 
    50ce:	44 89 f8             	mov    %r15d,%eax
    50d1:	48 83 c4 28          	add    $0x28,%rsp
    50d5:	41 5f                	pop    %r15
    50d7:	41 5e                	pop    %r14
    50d9:	41 5d                	pop    %r13
    50db:	41 5c                	pop    %r12
    50dd:	5b                   	pop    %rbx
    50de:	5d                   	pop    %rbp
    50df:	c3                   	retq   
    50e0:	44 8b bc 24 08 00 00 	mov    0x8(%rsp),%r15d
    50e7:	00 
    50e8:	44 89 f9             	mov    %r15d,%ecx
    50eb:	4c 8b bc 24 00 00 00 	mov    0x0(%rsp),%r15
    50f2:	00 
    50f3:	41 8b 0c 0f          	mov    (%r15,%rcx,1),%ecx
    50f7:	89 ca                	mov    %ecx,%edx
    50f9:	83 e2 03             	and    $0x3,%edx
    50fc:	85 d2                	test   %edx,%edx
    50fe:	75 10                	jne    5110 <guest_func_realloc+0x780>
    5100:	44 8b bc 24 14 00 00 	mov    0x14(%rsp),%r15d
    5107:	00 
    5108:	44 89 bc 24 10 00 00 	mov    %r15d,0x10(%rsp)
    510f:	00 
    5110:	83 e1 f8             	and    $0xfffffff8,%ecx
    5113:	44 8b bc 24 10 00 00 	mov    0x10(%rsp),%r15d
    511a:	00 
    511b:	44 89 fa             	mov    %r15d,%edx
    511e:	01 ca                	add    %ecx,%edx
    5120:	44 8b bc 24 20 00 00 	mov    0x20(%rsp),%r15d
    5127:	00 
    5128:	44 39 fa             	cmp    %r15d,%edx
    512b:	72 03                	jb     5130 <guest_func_realloc+0x7a0>
    512d:	44 89 fa             	mov    %r15d,%edx
    5130:	4c 8b bc 24 00 00 00 	mov    0x0(%rsp),%r15
    5137:	00 
    5138:	44 8b b4 24 0c 00 00 	mov    0xc(%rsp),%r14d
    513f:	00 
    5140:	4c 89 ff             	mov    %r15,%rdi
    5143:	40 89 c6             	rex mov %eax,%esi
    5146:	40 89 d1             	rex mov %edx,%ecx
    5149:	44 89 f2             	mov    %r14d,%edx
    514c:	e8 5f 21 00 00       	callq  72b0 <guest_func_memcpy>
    5151:	89 84 24 24 00 00 00 	mov    %eax,0x24(%rsp)
    5158:	4c 8b bc 24 00 00 00 	mov    0x0(%rsp),%r15
    515f:	00 
    5160:	44 8b b4 24 0c 00 00 	mov    0xc(%rsp),%r14d
    5167:	00 
    5168:	4c 89 ff             	mov    %r15,%rdi
    516b:	44 89 f6             	mov    %r14d,%esi
    516e:	e8 fd c0 ff ff       	callq  1270 <guest_func_11>
    5173:	44 8b bc 24 24 00 00 	mov    0x24(%rsp),%r15d
    517a:	00 
    517b:	44 89 f8             	mov    %r15d,%eax
    517e:	48 83 c4 28          	add    $0x28,%rsp
    5182:	41 5f                	pop    %r15
    5184:	41 5e                	pop    %r14
    5186:	41 5d                	pop    %r13
    5188:	41 5c                	pop    %r12
    518a:	5b                   	pop    %rbx
    518b:	5d                   	pop    %rbp
    518c:	c3                   	retq   
    518d:	00 00                	add    %al,(%rax)
	...

0000000000005190 <guest_func___main_argc_argv>:
    5190:	55                   	push   %rbp
    5191:	48 89 e5             	mov    %rsp,%rbp
    5194:	41 54                	push   %r12
    5196:	41 55                	push   %r13
    5198:	41 56                	push   %r14
    519a:	41 57                	push   %r15
    519c:	48 83 ec 40          	sub    $0x40,%rsp
    51a0:	48 89 bc 24 10 00 00 	mov    %rdi,0x10(%rsp)
    51a7:	00 
    51a8:	89 94 24 3c 00 00 00 	mov    %edx,0x3c(%rsp)
    51af:	31 c0                	xor    %eax,%eax
    51b1:	89 84 24 38 00 00 00 	mov    %eax,0x38(%rsp)
    51b8:	49 89 ff             	mov    %rdi,%r15
    51bb:	49 8b 47 f0          	mov    -0x10(%r15),%rax
    51bf:	8b 00                	mov    (%rax),%eax
    51c1:	89 84 24 34 00 00 00 	mov    %eax,0x34(%rsp)
    51c8:	41 89 c7             	mov    %eax,%r15d
    51cb:	41 81 c7 10 fa ff ff 	add    $0xfffffa10,%r15d
    51d2:	44 89 bc 24 30 00 00 	mov    %r15d,0x30(%rsp)
    51d9:	00 
    51da:	49 89 ff             	mov    %rdi,%r15
    51dd:	49 8b 47 f0          	mov    -0x10(%r15),%rax
    51e1:	44 8b bc 24 30 00 00 	mov    0x30(%rsp),%r15d
    51e8:	00 
    51e9:	44 89 38             	mov    %r15d,(%rax)
    51ec:	b8 20 00 00 00       	mov    $0x20,%eax
    51f1:	89 84 24 2c 00 00 00 	mov    %eax,0x2c(%rsp)
    51f8:	b8 01 00 00 00       	mov    $0x1,%eax
    51fd:	49 89 ff             	mov    %rdi,%r15
    5200:	44 8b b4 24 2c 00 00 	mov    0x2c(%rsp),%r14d
    5207:	00 
    5208:	4c 89 ff             	mov    %r15,%rdi
    520b:	44 89 f6             	mov    %r14d,%esi
    520e:	40 89 c2             	rex mov %eax,%edx
    5211:	e8 2a 1d 00 00       	callq  6f40 <guest_func_calloc>
    5216:	89 84 24 24 00 00 00 	mov    %eax,0x24(%rsp)
    521d:	b8 00 02 00 00       	mov    $0x200,%eax
    5222:	89 84 24 28 00 00 00 	mov    %eax,0x28(%rsp)
    5229:	44 8b bc 24 34 00 00 	mov    0x34(%rsp),%r15d
    5230:	00 
    5231:	41 81 c7 10 fc ff ff 	add    $0xfffffc10,%r15d
    5238:	44 8b b4 24 3c 00 00 	mov    0x3c(%rsp),%r14d
    523f:	00 
    5240:	44 89 f0             	mov    %r14d,%eax
    5243:	48 89 84 24 08 00 00 	mov    %rax,0x8(%rsp)
    524a:	00 
    524b:	4c 8b b4 24 10 00 00 	mov    0x10(%rsp),%r14
    5252:	00 
    5253:	49 89 c5             	mov    %rax,%r13
    5256:	43 8b 44 2e 04       	mov    0x4(%r14,%r13,1),%eax
    525b:	b9 e8 03 00 00       	mov    $0x3e8,%ecx
    5260:	4c 89 f7             	mov    %r14,%rdi
    5263:	44 89 fe             	mov    %r15d,%esi
    5266:	40 89 c2             	rex mov %eax,%edx
    5269:	e8 42 20 00 00       	callq  72b0 <guest_func_memcpy>
    526e:	4c 8b bc 24 10 00 00 	mov    0x10(%rsp),%r15
    5275:	00 
    5276:	4c 8b b4 24 08 00 00 	mov    0x8(%rsp),%r14
    527d:	00 
    527e:	43 8b 44 37 08       	mov    0x8(%r15,%r14,1),%eax
    5283:	44 8b b4 24 30 00 00 	mov    0x30(%rsp),%r14d
    528a:	00 
    528b:	44 8b ac 24 28 00 00 	mov    0x28(%rsp),%r13d
    5292:	00 
    5293:	4c 89 ff             	mov    %r15,%rdi
    5296:	44 89 f6             	mov    %r14d,%esi
    5299:	40 89 c2             	rex mov %eax,%edx
    529c:	44 89 e9             	mov    %r13d,%ecx
    529f:	e8 0c 20 00 00       	callq  72b0 <guest_func_memcpy>
    52a4:	89 84 24 20 00 00 00 	mov    %eax,0x20(%rsp)
    52ab:	41 89 c7             	mov    %eax,%r15d
    52ae:	41 81 c7 00 02 00 00 	add    $0x200,%r15d
    52b5:	44 89 bc 24 1c 00 00 	mov    %r15d,0x1c(%rsp)
    52bc:	00 
    52bd:	4c 8b bc 24 10 00 00 	mov    0x10(%rsp),%r15
    52c4:	00 
    52c5:	41 89 c6             	mov    %eax,%r14d
