lfence_with_v1_1.so:     file format elf64-x86-64


Disassembly of section .plt:

0000000000000c30 <.plt>:
 c30:	ff 35 d2 a3 20 00    	pushq  0x20a3d2(%rip)        # 20b008 <_GLOBAL_OFFSET_TABLE_+0x8>
 c36:	ff 25 d4 a3 20 00    	jmpq   *0x20a3d4(%rip)        # 20b010 <_GLOBAL_OFFSET_TABLE_+0x10>
 c3c:	0f 1f 40 00          	nopl   0x0(%rax)

0000000000000c40 <lucet_vmctx_grow_memory@plt>:
 c40:	ff 25 d2 a3 20 00    	jmpq   *0x20a3d2(%rip)        # 20b018 <lucet_vmctx_grow_memory>
 c46:	68 00 00 00 00       	pushq  $0x0
 c4b:	e9 e0 ff ff ff       	jmpq   c30 <.plt>

0000000000000c50 <lucet_vmctx_current_memory@plt>:
 c50:	ff 25 ca a3 20 00    	jmpq   *0x20a3ca(%rip)        # 20b020 <lucet_vmctx_current_memory>
 c56:	68 01 00 00 00       	pushq  $0x1
 c5b:	e9 d0 ff ff ff       	jmpq   c30 <.plt>

Disassembly of section .text:

0000000000000c60 <guest_func_aligned_alloc>:
     c60:	55                   	push   %rbp
     c61:	48 89 e5             	mov    %rsp,%rbp
     c64:	83 fe 10             	cmp    $0x10,%esi
     c67:	77 0a                	ja     c73 <guest_func_aligned_alloc+0x13>
     c69:	40 89 d6             	rex mov %edx,%esi
     c6c:	e8 9f 3e 00 00       	callq  4b10 <guest_func_8>
     c71:	5d                   	pop    %rbp
     c72:	c3                   	retq   
     c73:	e8 a8 08 00 00       	callq  1520 <guest_func_15>
     c78:	5d                   	pop    %rbp
     c79:	c3                   	retq   
     c7a:	00 00                	add    %al,(%rax)
     c7c:	00 00                	add    %al,(%rax)
	...

0000000000000c80 <guest_func_blake2b>:
     c80:	55                   	push   %rbp
     c81:	48 89 e5             	mov    %rsp,%rbp
     c84:	53                   	push   %rbx
     c85:	41 54                	push   %r12
     c87:	41 55                	push   %r13
     c89:	41 56                	push   %r14
     c8b:	41 57                	push   %r15
     c8d:	48 83 ec 38          	sub    $0x38,%rsp
     c91:	48 89 bc 24 10 00 00 	mov    %rdi,0x10(%rsp)
     c98:	00 
     c99:	89 b4 24 34 00 00 00 	mov    %esi,0x34(%rsp)
     ca0:	89 8c 24 2c 00 00 00 	mov    %ecx,0x2c(%rsp)
     ca7:	44 89 84 24 28 00 00 	mov    %r8d,0x28(%rsp)
     cae:	00 
     caf:	44 89 8c 24 24 00 00 	mov    %r9d,0x24(%rsp)
     cb6:	00 
     cb7:	31 c0                	xor    %eax,%eax
     cb9:	89 84 24 20 00 00 00 	mov    %eax,0x20(%rsp)
     cc0:	31 c0                	xor    %eax,%eax
     cc2:	49 89 ff             	mov    %rdi,%r15
     cc5:	49 8b 4f f0          	mov    -0x10(%r15),%rcx
     cc9:	0f ae e8             	lfence 
     ccc:	8b 09                	mov    (%rcx),%ecx
     cce:	0f ae e8             	lfence 
     cd1:	89 cb                	mov    %ecx,%ebx
     cd3:	81 c3 20 ff ff ff    	add    $0xffffff20,%ebx
     cd9:	89 9c 24 30 00 00 00 	mov    %ebx,0x30(%rsp)
     ce0:	49 8b 5f f0          	mov    -0x10(%r15),%rbx
     ce4:	44 8b bc 24 30 00 00 	mov    0x30(%rsp),%r15d
     ceb:	00 
     cec:	0f ae e8             	lfence 
     cef:	44 89 3b             	mov    %r15d,(%rbx)
     cf2:	bb ff ff ff ff       	mov    $0xffffffff,%ebx
     cf7:	89 d6                	mov    %edx,%esi
     cf9:	83 c6 ff             	add    $0xffffffff,%esi
     cfc:	83 fe 3f             	cmp    $0x3f,%esi
     cff:	0f 87 b0 05 00 00    	ja     12b5 <guest_func_blake2b+0x635>
     d05:	45 89 c7             	mov    %r8d,%r15d
     d08:	41 83 ff 40          	cmp    $0x40,%r15d
     d0c:	0f 87 a3 05 00 00    	ja     12b5 <guest_func_blake2b+0x635>
     d12:	89 cb                	mov    %ecx,%ebx
     d14:	83 c3 e0             	add    $0xffffffe0,%ebx
     d17:	be 38 04 00 00       	mov    $0x438,%esi
     d1c:	89 f6                	mov    %esi,%esi
     d1e:	49 89 ff             	mov    %rdi,%r15
     d21:	49 8b 34 37          	mov    (%r15,%rsi,1),%rsi
     d25:	89 db                	mov    %ebx,%ebx
     d27:	49 89 34 1f          	mov    %rsi,(%r15,%rbx,1)
     d2b:	89 cb                	mov    %ecx,%ebx
     d2d:	83 c3 d8             	add    $0xffffffd8,%ebx
     d30:	be 30 04 00 00       	mov    $0x430,%esi
     d35:	89 f6                	mov    %esi,%esi
     d37:	49 8b 34 37          	mov    (%r15,%rsi,1),%rsi
     d3b:	89 db                	mov    %ebx,%ebx
     d3d:	49 89 34 1f          	mov    %rsi,(%r15,%rbx,1)
     d41:	89 cb                	mov    %ecx,%ebx
     d43:	83 c3 d0             	add    $0xffffffd0,%ebx
     d46:	be 28 04 00 00       	mov    $0x428,%esi
     d4b:	89 f6                	mov    %esi,%esi
     d4d:	49 8b 34 37          	mov    (%r15,%rsi,1),%rsi
     d51:	89 db                	mov    %ebx,%ebx
     d53:	49 89 34 1f          	mov    %rsi,(%r15,%rbx,1)
     d57:	89 cb                	mov    %ecx,%ebx
     d59:	83 c3 c8             	add    $0xffffffc8,%ebx
     d5c:	be 20 04 00 00       	mov    $0x420,%esi
     d61:	89 f6                	mov    %esi,%esi
     d63:	49 8b 34 37          	mov    (%r15,%rsi,1),%rsi
     d67:	89 db                	mov    %ebx,%ebx
     d69:	49 89 34 1f          	mov    %rsi,(%r15,%rbx,1)
     d6d:	89 cb                	mov    %ecx,%ebx
     d6f:	83 c3 c0             	add    $0xffffffc0,%ebx
     d72:	be 18 04 00 00       	mov    $0x418,%esi
     d77:	89 f6                	mov    %esi,%esi
     d79:	49 8b 34 37          	mov    (%r15,%rsi,1),%rsi
     d7d:	89 db                	mov    %ebx,%ebx
     d7f:	49 89 34 1f          	mov    %rsi,(%r15,%rbx,1)
     d83:	89 cb                	mov    %ecx,%ebx
     d85:	83 c3 b8             	add    $0xffffffb8,%ebx
     d88:	be 10 04 00 00       	mov    $0x410,%esi
     d8d:	89 f6                	mov    %esi,%esi
     d8f:	49 8b 34 37          	mov    (%r15,%rsi,1),%rsi
     d93:	89 db                	mov    %ebx,%ebx
     d95:	49 89 34 1f          	mov    %rsi,(%r15,%rbx,1)
     d99:	89 cb                	mov    %ecx,%ebx
     d9b:	83 c3 b0             	add    $0xffffffb0,%ebx
     d9e:	be 08 04 00 00       	mov    $0x408,%esi
     da3:	89 f6                	mov    %esi,%esi
     da5:	49 8b 34 37          	mov    (%r15,%rsi,1),%rsi
     da9:	89 db                	mov    %ebx,%ebx
     dab:	49 89 34 1f          	mov    %rsi,(%r15,%rbx,1)
     daf:	89 cb                	mov    %ecx,%ebx
     db1:	83 c3 f0             	add    $0xfffffff0,%ebx
     db4:	89 db                	mov    %ebx,%ebx
     db6:	49 89 04 1f          	mov    %rax,(%r15,%rbx,1)
     dba:	89 cb                	mov    %ecx,%ebx
     dbc:	83 c3 f8             	add    $0xfffffff8,%ebx
     dbf:	89 db                	mov    %ebx,%ebx
     dc1:	44 8b bc 24 20 00 00 	mov    0x20(%rsp),%r15d
     dc8:	00 
     dc9:	49 89 fe             	mov    %rdi,%r14
     dcc:	45 89 3c 1e          	mov    %r15d,(%r14,%rbx,1)
     dd0:	44 8b bc 24 30 00 00 	mov    0x30(%rsp),%r15d
     dd7:	00 
     dd8:	44 89 fb             	mov    %r15d,%ebx
     ddb:	49 89 ff             	mov    %rdi,%r15
     dde:	49 89 84 1f c8 00 00 	mov    %rax,0xc8(%r15,%rbx,1)
     de5:	00 
     de6:	45 89 c7             	mov    %r8d,%r15d
     de9:	41 c1 e7 08          	shl    $0x8,%r15d
     ded:	41 31 d7             	xor    %edx,%r15d
     df0:	41 81 f7 00 00 01 01 	xor    $0x1010000,%r15d
     df7:	44 89 f8             	mov    %r15d,%eax
     dfa:	48 be 08 c9 bc f3 67 	movabs $0x6a09e667f3bcc908,%rsi
     e01:	e6 09 6a 
     e04:	48 31 f0             	xor    %rsi,%rax
     e07:	49 89 ff             	mov    %rdi,%r15
     e0a:	49 89 84 1f 88 00 00 	mov    %rax,0x88(%r15,%rbx,1)
     e11:	00 
     e12:	41 89 94 1f dc 00 00 	mov    %edx,0xdc(%r15,%rbx,1)
     e19:	00 
     e1a:	81 c1 28 ff ff ff    	add    $0xffffff28,%ecx
     e20:	45 89 c7             	mov    %r8d,%r15d
     e23:	44 01 f9             	add    %r15d,%ecx
     e26:	b8 80 00 00 00       	mov    $0x80,%eax
     e2b:	89 84 24 1c 00 00 00 	mov    %eax,0x1c(%rsp)
     e32:	41 89 c7             	mov    %eax,%r15d
     e35:	45 89 c6             	mov    %r8d,%r14d
     e38:	45 29 f7             	sub    %r14d,%r15d
     e3b:	49 89 fe             	mov    %rdi,%r14
     e3e:	44 8b ac 24 20 00 00 	mov    0x20(%rsp),%r13d
     e45:	00 
     e46:	4c 89 f7             	mov    %r14,%rdi
     e49:	40 89 ce             	rex mov %ecx,%esi
     e4c:	44 89 ea             	mov    %r13d,%edx
     e4f:	44 89 f9             	mov    %r15d,%ecx
     e52:	e8 39 6b 00 00       	callq  7990 <guest_func_memset>
     e57:	44 8b bc 24 28 00 00 	mov    0x28(%rsp),%r15d
     e5e:	00 
     e5f:	45 85 ff             	test   %r15d,%r15d
     e62:	0f 84 6a 01 00 00    	je     fd2 <guest_func_blake2b+0x352>
     e68:	44 8b bc 24 70 00 00 	mov    0x70(%rsp),%r15d
     e6f:	00 
     e70:	44 89 bc 24 18 00 00 	mov    %r15d,0x18(%rsp)
     e77:	00 
     e78:	44 8b bc 24 30 00 00 	mov    0x30(%rsp),%r15d
     e7f:	00 
     e80:	44 89 f8             	mov    %r15d,%eax
     e83:	48 89 84 24 08 00 00 	mov    %rax,0x8(%rsp)
     e8a:	00 
     e8b:	4c 8b bc 24 10 00 00 	mov    0x10(%rsp),%r15
     e92:	00 
     e93:	49 89 c6             	mov    %rax,%r14
     e96:	43 8b 84 37 d8 00 00 	mov    0xd8(%r15,%r14,1),%eax
     e9d:	00 
     e9e:	0f ae e8             	lfence 
     ea1:	81 f8 80 00 00 00    	cmp    $0x80,%eax
     ea7:	0f 85 84 00 00 00    	jne    f31 <guest_func_blake2b+0x2b1>
     ead:	4b 8b 84 37 c8 00 00 	mov    0xc8(%r15,%r14,1),%rax
     eb4:	00 
     eb5:	48 89 c1             	mov    %rax,%rcx
     eb8:	48 81 c1 80 00 00 00 	add    $0x80,%rcx
     ebf:	4b 89 8c 37 c8 00 00 	mov    %rcx,0xc8(%r15,%r14,1)
     ec6:	00 
     ec7:	48 83 f8 80          	cmp    $0xffffffffffffff80,%rax
     ecb:	0f ae e8             	lfence 
     ece:	72 14                	jb     ee4 <guest_func_blake2b+0x264>
     ed0:	4b 8b 84 37 d0 00 00 	mov    0xd0(%r15,%r14,1),%rax
     ed7:	00 
     ed8:	48 83 c0 01          	add    $0x1,%rax
     edc:	4b 89 84 37 d0 00 00 	mov    %rax,0xd0(%r15,%r14,1)
     ee3:	00 
     ee4:	44 8b bc 24 30 00 00 	mov    0x30(%rsp),%r15d
     eeb:	00 
     eec:	41 83 c7 08          	add    $0x8,%r15d
     ef0:	4c 8b b4 24 10 00 00 	mov    0x10(%rsp),%r14
     ef7:	00 
     ef8:	44 8b ac 24 20 00 00 	mov    0x20(%rsp),%r13d
     eff:	00 
     f00:	4c 89 f7             	mov    %r14,%rdi
     f03:	44 89 fe             	mov    %r15d,%esi
     f06:	44 89 ea             	mov    %r13d,%edx
     f09:	e8 c2 27 00 00       	callq  36d0 <guest_func_2>
     f0e:	44 8b bc 24 20 00 00 	mov    0x20(%rsp),%r15d
     f15:	00 
     f16:	4c 8b b4 24 10 00 00 	mov    0x10(%rsp),%r14
     f1d:	00 
     f1e:	4c 8b ac 24 08 00 00 	mov    0x8(%rsp),%r13
     f25:	00 
     f26:	47 89 bc 2e d8 00 00 	mov    %r15d,0xd8(%r14,%r13,1)
     f2d:	00 
     f2e:	44 89 f8             	mov    %r15d,%eax
     f31:	44 8b bc 24 2c 00 00 	mov    0x2c(%rsp),%r15d
     f38:	00 
     f39:	44 89 f9             	mov    %r15d,%ecx
     f3c:	4c 8b bc 24 10 00 00 	mov    0x10(%rsp),%r15
     f43:	00 
     f44:	41 0f b6 0c 0f       	movzbl (%r15,%rcx,1),%ecx
     f49:	89 c2                	mov    %eax,%edx
     f4b:	83 c2 01             	add    $0x1,%edx
     f4e:	44 8b bc 24 30 00 00 	mov    0x30(%rsp),%r15d
     f55:	00 
     f56:	44 89 fb             	mov    %r15d,%ebx
     f59:	4c 8b bc 24 10 00 00 	mov    0x10(%rsp),%r15
     f60:	00 
     f61:	41 89 94 1f d8 00 00 	mov    %edx,0xd8(%r15,%rbx,1)
     f68:	00 
     f69:	44 8b bc 24 30 00 00 	mov    0x30(%rsp),%r15d
     f70:	00 
     f71:	41 83 c7 08          	add    $0x8,%r15d
     f75:	41 01 c7             	add    %eax,%r15d
     f78:	44 89 f8             	mov    %r15d,%eax
     f7b:	4c 8b bc 24 10 00 00 	mov    0x10(%rsp),%r15
     f82:	00 
     f83:	41 88 0c 07          	mov    %cl,(%r15,%rax,1)
     f87:	44 8b bc 24 2c 00 00 	mov    0x2c(%rsp),%r15d
     f8e:	00 
     f8f:	41 83 c7 01          	add    $0x1,%r15d
     f93:	44 89 bc 24 2c 00 00 	mov    %r15d,0x2c(%rsp)
     f9a:	00 
     f9b:	44 8b bc 24 28 00 00 	mov    0x28(%rsp),%r15d
     fa2:	00 
     fa3:	41 83 c7 ff          	add    $0xffffffff,%r15d
     fa7:	44 89 bc 24 28 00 00 	mov    %r15d,0x28(%rsp)
     fae:	00 
     faf:	45 85 ff             	test   %r15d,%r15d
     fb2:	0f 85 c0 fe ff ff    	jne    e78 <guest_func_blake2b+0x1f8>
     fb8:	44 8b bc 24 1c 00 00 	mov    0x1c(%rsp),%r15d
     fbf:	00 
     fc0:	4c 8b b4 24 10 00 00 	mov    0x10(%rsp),%r14
     fc7:	00 
     fc8:	45 89 bc 1e d8 00 00 	mov    %r15d,0xd8(%r14,%rbx,1)
     fcf:	00 
     fd0:	eb 10                	jmp    fe2 <guest_func_blake2b+0x362>
     fd2:	44 8b bc 24 70 00 00 	mov    0x70(%rsp),%r15d
     fd9:	00 
     fda:	44 89 bc 24 18 00 00 	mov    %r15d,0x18(%rsp)
     fe1:	00 
     fe2:	44 8b bc 24 18 00 00 	mov    0x18(%rsp),%r15d
     fe9:	00 
     fea:	45 85 ff             	test   %r15d,%r15d
     fed:	0f 84 40 01 00 00    	je     1133 <guest_func_blake2b+0x4b3>
     ff3:	44 8b bc 24 30 00 00 	mov    0x30(%rsp),%r15d
     ffa:	00 
     ffb:	44 89 f8             	mov    %r15d,%eax
     ffe:	48 89 84 24 00 00 00 	mov    %rax,0x0(%rsp)
    1005:	00 
    1006:	4c 8b bc 24 10 00 00 	mov    0x10(%rsp),%r15
    100d:	00 
    100e:	49 89 c6             	mov    %rax,%r14
    1011:	43 8b 84 37 d8 00 00 	mov    0xd8(%r15,%r14,1),%eax
    1018:	00 
    1019:	0f ae e8             	lfence 
    101c:	81 f8 80 00 00 00    	cmp    $0x80,%eax
    1022:	0f 85 84 00 00 00    	jne    10ac <guest_func_blake2b+0x42c>
    1028:	4b 8b 84 37 c8 00 00 	mov    0xc8(%r15,%r14,1),%rax
    102f:	00 
    1030:	48 89 c1             	mov    %rax,%rcx
    1033:	48 81 c1 80 00 00 00 	add    $0x80,%rcx
    103a:	4b 89 8c 37 c8 00 00 	mov    %rcx,0xc8(%r15,%r14,1)
    1041:	00 
    1042:	48 83 f8 80          	cmp    $0xffffffffffffff80,%rax
    1046:	0f ae e8             	lfence 
    1049:	72 14                	jb     105f <guest_func_blake2b+0x3df>
    104b:	4b 8b 84 37 d0 00 00 	mov    0xd0(%r15,%r14,1),%rax
    1052:	00 
    1053:	48 83 c0 01          	add    $0x1,%rax
    1057:	4b 89 84 37 d0 00 00 	mov    %rax,0xd0(%r15,%r14,1)
    105e:	00 
    105f:	44 8b bc 24 30 00 00 	mov    0x30(%rsp),%r15d
    1066:	00 
    1067:	41 83 c7 08          	add    $0x8,%r15d
    106b:	4c 8b b4 24 10 00 00 	mov    0x10(%rsp),%r14
    1072:	00 
    1073:	44 8b ac 24 20 00 00 	mov    0x20(%rsp),%r13d
    107a:	00 
    107b:	4c 89 f7             	mov    %r14,%rdi
    107e:	44 89 fe             	mov    %r15d,%esi
    1081:	44 89 ea             	mov    %r13d,%edx
    1084:	e8 47 26 00 00       	callq  36d0 <guest_func_2>
    1089:	44 8b bc 24 20 00 00 	mov    0x20(%rsp),%r15d
    1090:	00 
    1091:	4c 8b b4 24 10 00 00 	mov    0x10(%rsp),%r14
    1098:	00 
    1099:	4c 8b ac 24 00 00 00 	mov    0x0(%rsp),%r13
    10a0:	00 
    10a1:	47 89 bc 2e d8 00 00 	mov    %r15d,0xd8(%r14,%r13,1)
    10a8:	00 
    10a9:	44 89 f8             	mov    %r15d,%eax
    10ac:	44 8b bc 24 24 00 00 	mov    0x24(%rsp),%r15d
    10b3:	00 
    10b4:	44 89 f9             	mov    %r15d,%ecx
    10b7:	4c 8b bc 24 10 00 00 	mov    0x10(%rsp),%r15
    10be:	00 
    10bf:	41 0f b6 0c 0f       	movzbl (%r15,%rcx,1),%ecx
    10c4:	89 c2                	mov    %eax,%edx
    10c6:	83 c2 01             	add    $0x1,%edx
    10c9:	44 8b bc 24 30 00 00 	mov    0x30(%rsp),%r15d
    10d0:	00 
    10d1:	44 89 fb             	mov    %r15d,%ebx
    10d4:	4c 8b bc 24 10 00 00 	mov    0x10(%rsp),%r15
    10db:	00 
    10dc:	41 89 94 1f d8 00 00 	mov    %edx,0xd8(%r15,%rbx,1)
    10e3:	00 
    10e4:	44 8b bc 24 30 00 00 	mov    0x30(%rsp),%r15d
    10eb:	00 
    10ec:	41 83 c7 08          	add    $0x8,%r15d
    10f0:	41 01 c7             	add    %eax,%r15d
    10f3:	44 89 f8             	mov    %r15d,%eax
    10f6:	4c 8b bc 24 10 00 00 	mov    0x10(%rsp),%r15
    10fd:	00 
    10fe:	41 88 0c 07          	mov    %cl,(%r15,%rax,1)
    1102:	44 8b bc 24 24 00 00 	mov    0x24(%rsp),%r15d
    1109:	00 
    110a:	41 83 c7 01          	add    $0x1,%r15d
    110e:	44 89 bc 24 24 00 00 	mov    %r15d,0x24(%rsp)
    1115:	00 
    1116:	44 8b bc 24 18 00 00 	mov    0x18(%rsp),%r15d
    111d:	00 
    111e:	41 83 c7 ff          	add    $0xffffffff,%r15d
    1122:	44 89 bc 24 18 00 00 	mov    %r15d,0x18(%rsp)
    1129:	00 
    112a:	45 85 ff             	test   %r15d,%r15d
    112d:	0f 85 c0 fe ff ff    	jne    ff3 <guest_func_blake2b+0x373>
    1133:	44 8b bc 24 30 00 00 	mov    0x30(%rsp),%r15d
    113a:	00 
    113b:	44 89 f8             	mov    %r15d,%eax
    113e:	4c 8b bc 24 10 00 00 	mov    0x10(%rsp),%r15
    1145:	00 
    1146:	49 8b 8c 07 c8 00 00 	mov    0xc8(%r15,%rax,1),%rcx
    114d:	00 
    114e:	41 8b 94 07 d8 00 00 	mov    0xd8(%r15,%rax,1),%edx
    1155:	00 
    1156:	0f ae e8             	lfence 
    1159:	89 d3                	mov    %edx,%ebx
    115b:	48 89 ce             	mov    %rcx,%rsi
    115e:	48 01 de             	add    %rbx,%rsi
    1161:	49 89 b4 07 c8 00 00 	mov    %rsi,0xc8(%r15,%rax,1)
    1168:	00 
    1169:	48 39 ce             	cmp    %rcx,%rsi
    116c:	0f ae e8             	lfence 
    116f:	73 14                	jae    1185 <guest_func_blake2b+0x505>
    1171:	49 8b 8c 07 d0 00 00 	mov    0xd0(%r15,%rax,1),%rcx
    1178:	00 
    1179:	48 83 c1 01          	add    $0x1,%rcx
    117d:	49 89 8c 07 d0 00 00 	mov    %rcx,0xd0(%r15,%rax,1)
    1184:	00 
    1185:	83 fa 7f             	cmp    $0x7f,%edx
    1188:	77 56                	ja     11e0 <guest_func_blake2b+0x560>
    118a:	44 8b bc 24 30 00 00 	mov    0x30(%rsp),%r15d
    1191:	00 
    1192:	44 89 f9             	mov    %r15d,%ecx
    1195:	83 c1 08             	add    $0x8,%ecx
    1198:	89 d3                	mov    %edx,%ebx
    119a:	83 c3 01             	add    $0x1,%ebx
    119d:	4c 8b bc 24 10 00 00 	mov    0x10(%rsp),%r15
    11a4:	00 
    11a5:	41 89 9c 07 d8 00 00 	mov    %ebx,0xd8(%r15,%rax,1)
    11ac:	00 
    11ad:	89 cb                	mov    %ecx,%ebx
    11af:	01 d3                	add    %edx,%ebx
    11b1:	89 da                	mov    %ebx,%edx
    11b3:	44 8b bc 24 20 00 00 	mov    0x20(%rsp),%r15d
    11ba:	00 
    11bb:	4c 8b b4 24 10 00 00 	mov    0x10(%rsp),%r14
    11c2:	00 
    11c3:	44 89 fb             	mov    %r15d,%ebx
    11c6:	41 88 1c 16          	mov    %bl,(%r14,%rdx,1)
    11ca:	4d 89 f7             	mov    %r14,%r15
    11cd:	41 8b 94 07 d8 00 00 	mov    0xd8(%r15,%rax,1),%edx
    11d4:	00 
    11d5:	0f ae e8             	lfence 
    11d8:	81 fa 80 00 00 00    	cmp    $0x80,%edx
    11de:	72 b8                	jb     1198 <guest_func_blake2b+0x518>
    11e0:	44 8b bc 24 30 00 00 	mov    0x30(%rsp),%r15d
    11e7:	00 
    11e8:	41 83 c7 08          	add    $0x8,%r15d
    11ec:	b8 01 00 00 00       	mov    $0x1,%eax
    11f1:	4c 8b b4 24 10 00 00 	mov    0x10(%rsp),%r14
    11f8:	00 
    11f9:	4c 89 f7             	mov    %r14,%rdi
    11fc:	44 89 fe             	mov    %r15d,%esi
    11ff:	40 89 c2             	rex mov %eax,%edx
    1202:	e8 c9 24 00 00       	callq  36d0 <guest_func_2>
    1207:	44 8b bc 24 30 00 00 	mov    0x30(%rsp),%r15d
    120e:	00 
    120f:	44 89 f8             	mov    %r15d,%eax
    1212:	4c 8b bc 24 10 00 00 	mov    0x10(%rsp),%r15
    1219:	00 
    121a:	41 8b 84 07 dc 00 00 	mov    0xdc(%r15,%rax,1),%eax
    1221:	00 
    1222:	0f ae e8             	lfence 
    1225:	85 c0                	test   %eax,%eax
    1227:	75 0d                	jne    1236 <guest_func_blake2b+0x5b6>
    1229:	44 8b bc 24 20 00 00 	mov    0x20(%rsp),%r15d
    1230:	00 
    1231:	44 89 fb             	mov    %r15d,%ebx
    1234:	eb 7f                	jmp    12b5 <guest_func_blake2b+0x635>
    1236:	44 8b bc 24 20 00 00 	mov    0x20(%rsp),%r15d
    123d:	00 
    123e:	45 89 fe             	mov    %r15d,%r14d
    1241:	eb 06                	jmp    1249 <guest_func_blake2b+0x5c9>
    1243:	41 89 d7             	mov    %edx,%r15d
    1246:	41 89 ce             	mov    %ecx,%r14d
    1249:	44 8b ac 24 34 00 00 	mov    0x34(%rsp),%r13d
    1250:	00 
    1251:	45 01 fd             	add    %r15d,%r13d
    1254:	44 89 f9             	mov    %r15d,%ecx
    1257:	83 e1 f8             	and    $0xfffffff8,%ecx
    125a:	44 8b a4 24 30 00 00 	mov    0x30(%rsp),%r12d
    1261:	00 
    1262:	41 01 cc             	add    %ecx,%r12d
    1265:	41 81 c4 88 00 00 00 	add    $0x88,%r12d
    126c:	44 89 e1             	mov    %r12d,%ecx
    126f:	4c 8b a4 24 10 00 00 	mov    0x10(%rsp),%r12
    1276:	00 
    1277:	49 8b 0c 0c          	mov    (%r12,%rcx,1),%rcx
    127b:	44 89 f2             	mov    %r14d,%edx
    127e:	83 e2 38             	and    $0x38,%edx
    1281:	89 d2                	mov    %edx,%edx
    1283:	48 89 cb             	mov    %rcx,%rbx
    1286:	48 89 d1             	mov    %rdx,%rcx
    1289:	48 89 da             	mov    %rbx,%rdx
    128c:	48 d3 ea             	shr    %cl,%rdx
    128f:	44 89 e9             	mov    %r13d,%ecx
    1292:	4d 89 e5             	mov    %r12,%r13
    1295:	41 88 54 0d 00       	mov    %dl,0x0(%r13,%rcx,1)
    129a:	44 89 f1             	mov    %r14d,%ecx
    129d:	83 c1 08             	add    $0x8,%ecx
    12a0:	44 89 fa             	mov    %r15d,%edx
    12a3:	83 c2 01             	add    $0x1,%edx
    12a6:	39 d0                	cmp    %edx,%eax
    12a8:	75 99                	jne    1243 <guest_func_blake2b+0x5c3>
    12aa:	44 8b bc 24 20 00 00 	mov    0x20(%rsp),%r15d
    12b1:	00 
    12b2:	44 89 fb             	mov    %r15d,%ebx
    12b5:	44 8b bc 24 30 00 00 	mov    0x30(%rsp),%r15d
    12bc:	00 
    12bd:	41 81 c7 e0 00 00 00 	add    $0xe0,%r15d
    12c4:	4c 8b b4 24 10 00 00 	mov    0x10(%rsp),%r14
    12cb:	00 
    12cc:	49 8b 46 f0          	mov    -0x10(%r14),%rax
    12d0:	0f ae e8             	lfence 
    12d3:	44 89 38             	mov    %r15d,(%rax)
    12d6:	40 89 d8             	rex mov %ebx,%eax
    12d9:	48 83 c4 38          	add    $0x38,%rsp
    12dd:	41 5f                	pop    %r15
    12df:	41 5e                	pop    %r14
    12e1:	41 5d                	pop    %r13
    12e3:	41 5c                	pop    %r12
    12e5:	5b                   	pop    %rbx
    12e6:	5d                   	pop    %rbp
    12e7:	c3                   	retq   
	...

00000000000012f0 <guest_func_calloc>:
    12f0:	55                   	push   %rbp
    12f1:	48 89 e5             	mov    %rsp,%rbp
    12f4:	41 54                	push   %r12
    12f6:	41 55                	push   %r13
    12f8:	41 56                	push   %r14
    12fa:	41 57                	push   %r15
    12fc:	48 83 ec 20          	sub    $0x20,%rsp
    1300:	48 89 bc 24 08 00 00 	mov    %rdi,0x8(%rsp)
    1307:	00 
    1308:	31 c0                	xor    %eax,%eax
    130a:	89 84 24 1c 00 00 00 	mov    %eax,0x1c(%rsp)
    1311:	85 f6                	test   %esi,%esi
    1313:	74 34                	je     1349 <guest_func_calloc+0x59>
    1315:	89 f0                	mov    %esi,%eax
    1317:	89 d1                	mov    %edx,%ecx
    1319:	48 0f af c1          	imul   %rcx,%rax
    131d:	48 89 c1             	mov    %rax,%rcx
    1320:	89 8c 24 18 00 00 00 	mov    %ecx,0x18(%rsp)
    1327:	09 d6                	or     %edx,%esi
    1329:	81 fe 00 00 01 00    	cmp    $0x10000,%esi
    132f:	72 23                	jb     1354 <guest_func_calloc+0x64>
    1331:	b9 ff ff ff ff       	mov    $0xffffffff,%ecx
    1336:	48 c1 e8 20          	shr    $0x20,%rax
    133a:	85 c0                	test   %eax,%eax
    133c:	75 02                	jne    1340 <guest_func_calloc+0x50>
    133e:	eb 07                	jmp    1347 <guest_func_calloc+0x57>
    1340:	89 8c 24 18 00 00 00 	mov    %ecx,0x18(%rsp)
    1347:	eb 0b                	jmp    1354 <guest_func_calloc+0x64>
    1349:	41 89 c7             	mov    %eax,%r15d
    134c:	44 89 bc 24 18 00 00 	mov    %r15d,0x18(%rsp)
    1353:	00 
    1354:	4c 8b bc 24 08 00 00 	mov    0x8(%rsp),%r15
    135b:	00 
    135c:	44 8b b4 24 18 00 00 	mov    0x18(%rsp),%r14d
    1363:	00 
    1364:	4c 89 ff             	mov    %r15,%rdi
    1367:	44 89 f6             	mov    %r14d,%esi
    136a:	e8 a1 37 00 00       	callq  4b10 <guest_func_8>
    136f:	89 84 24 14 00 00 00 	mov    %eax,0x14(%rsp)
    1376:	41 89 c7             	mov    %eax,%r15d
    1379:	45 85 ff             	test   %r15d,%r15d
    137c:	74 47                	je     13c5 <guest_func_calloc+0xd5>
    137e:	41 83 c7 fc          	add    $0xfffffffc,%r15d
    1382:	44 89 f8             	mov    %r15d,%eax
    1385:	4c 8b bc 24 08 00 00 	mov    0x8(%rsp),%r15
    138c:	00 
    138d:	41 0f b6 04 07       	movzbl (%r15,%rax,1),%eax
    1392:	83 e0 03             	and    $0x3,%eax
    1395:	0f ae e8             	lfence 
    1398:	85 c0                	test   %eax,%eax
    139a:	74 29                	je     13c5 <guest_func_calloc+0xd5>
    139c:	44 8b b4 24 14 00 00 	mov    0x14(%rsp),%r14d
    13a3:	00 
    13a4:	44 8b ac 24 1c 00 00 	mov    0x1c(%rsp),%r13d
    13ab:	00 
    13ac:	44 8b a4 24 18 00 00 	mov    0x18(%rsp),%r12d
    13b3:	00 
    13b4:	4c 89 ff             	mov    %r15,%rdi
    13b7:	44 89 f6             	mov    %r14d,%esi
    13ba:	44 89 ea             	mov    %r13d,%edx
    13bd:	44 89 e1             	mov    %r12d,%ecx
    13c0:	e8 cb 65 00 00       	callq  7990 <guest_func_memset>
    13c5:	44 8b bc 24 14 00 00 	mov    0x14(%rsp),%r15d
    13cc:	00 
    13cd:	44 89 f8             	mov    %r15d,%eax
    13d0:	48 83 c4 20          	add    $0x20,%rsp
    13d4:	41 5f                	pop    %r15
    13d6:	41 5e                	pop    %r14
    13d8:	41 5d                	pop    %r13
    13da:	41 5c                	pop    %r12
    13dc:	5d                   	pop    %rbp
    13dd:	c3                   	retq   
	...

00000000000013e0 <guest_func_sbrk>:
    13e0:	55                   	push   %rbp
    13e1:	48 89 e5             	mov    %rsp,%rbp
    13e4:	41 57                	push   %r15
    13e6:	48 83 ec 18          	sub    $0x18,%rsp
    13ea:	48 89 bc 24 08 00 00 	mov    %rdi,0x8(%rsp)
    13f1:	00 
    13f2:	85 f6                	test   %esi,%esi
    13f4:	75 16                	jne    140c <guest_func_sbrk+0x2c>
    13f6:	49 89 ff             	mov    %rdi,%r15
    13f9:	4c 89 ff             	mov    %r15,%rdi
    13fc:	e8 4f f8 ff ff       	callq  c50 <lucet_vmctx_current_memory@plt>
    1401:	c1 e0 10             	shl    $0x10,%eax
    1404:	48 83 c4 18          	add    $0x18,%rsp
    1408:	41 5f                	pop    %r15
    140a:	5d                   	pop    %rbp
    140b:	c3                   	retq   
    140c:	89 f0                	mov    %esi,%eax
    140e:	81 e0 ff ff 00 00    	and    $0xffff,%eax
    1414:	85 c0                	test   %eax,%eax
    1416:	75 5a                	jne    1472 <guest_func_sbrk+0x92>
    1418:	b8 ff ff ff ff       	mov    $0xffffffff,%eax
    141d:	89 84 24 14 00 00 00 	mov    %eax,0x14(%rsp)
    1424:	83 fe ff             	cmp    $0xffffffff,%esi
    1427:	7e 49                	jle    1472 <guest_func_sbrk+0x92>
    1429:	c1 ee 10             	shr    $0x10,%esi
    142c:	49 89 ff             	mov    %rdi,%r15
    142f:	4c 89 ff             	mov    %r15,%rdi
    1432:	e8 09 f8 ff ff       	callq  c40 <lucet_vmctx_grow_memory@plt>
    1437:	83 f8 ff             	cmp    $0xffffffff,%eax
    143a:	75 2b                	jne    1467 <guest_func_sbrk+0x87>
    143c:	b8 f0 06 00 00       	mov    $0x6f0,%eax
    1441:	b9 30 00 00 00       	mov    $0x30,%ecx
    1446:	89 c0                	mov    %eax,%eax
    1448:	4c 8b bc 24 08 00 00 	mov    0x8(%rsp),%r15
    144f:	00 
    1450:	41 89 0c 07          	mov    %ecx,(%r15,%rax,1)
    1454:	44 8b bc 24 14 00 00 	mov    0x14(%rsp),%r15d
    145b:	00 
    145c:	44 89 f8             	mov    %r15d,%eax
    145f:	48 83 c4 18          	add    $0x18,%rsp
    1463:	41 5f                	pop    %r15
    1465:	5d                   	pop    %rbp
    1466:	c3                   	retq   
    1467:	c1 e0 10             	shl    $0x10,%eax
    146a:	48 83 c4 18          	add    $0x18,%rsp
    146e:	41 5f                	pop    %r15
    1470:	5d                   	pop    %rbp
    1471:	c3                   	retq   
    1472:	0f 0b                	ud2    
	...

0000000000001480 <guest_func_strlen>:
    1480:	55                   	push   %rbp
    1481:	48 89 e5             	mov    %rsp,%rbp
    1484:	53                   	push   %rbx
    1485:	31 c0                	xor    %eax,%eax
    1487:	89 f1                	mov    %esi,%ecx
    1489:	83 e1 03             	and    $0x3,%ecx
    148c:	85 c9                	test   %ecx,%ecx
    148e:	74 36                	je     14c6 <guest_func_strlen+0x46>
    1490:	89 f1                	mov    %esi,%ecx
    1492:	0f b6 0c 0f          	movzbl (%rdi,%rcx,1),%ecx
    1496:	0f ae e8             	lfence 
    1499:	85 c9                	test   %ecx,%ecx
    149b:	75 03                	jne    14a0 <guest_func_strlen+0x20>
    149d:	5b                   	pop    %rbx
    149e:	5d                   	pop    %rbp
    149f:	c3                   	retq   
    14a0:	89 f0                	mov    %esi,%eax
    14a2:	83 c0 01             	add    $0x1,%eax
    14a5:	eb 02                	jmp    14a9 <guest_func_strlen+0x29>
    14a7:	89 d0                	mov    %edx,%eax
    14a9:	89 c1                	mov    %eax,%ecx
    14ab:	83 e1 03             	and    $0x3,%ecx
    14ae:	85 c9                	test   %ecx,%ecx
    14b0:	74 16                	je     14c8 <guest_func_strlen+0x48>
    14b2:	89 c1                	mov    %eax,%ecx
    14b4:	0f b6 0c 0f          	movzbl (%rdi,%rcx,1),%ecx
    14b8:	89 c2                	mov    %eax,%edx
    14ba:	83 c2 01             	add    $0x1,%edx
    14bd:	0f ae e8             	lfence 
    14c0:	85 c9                	test   %ecx,%ecx
    14c2:	75 e3                	jne    14a7 <guest_func_strlen+0x27>
    14c4:	eb 49                	jmp    150f <guest_func_strlen+0x8f>
    14c6:	89 f0                	mov    %esi,%eax
    14c8:	83 c0 fc             	add    $0xfffffffc,%eax
    14cb:	83 c0 04             	add    $0x4,%eax
    14ce:	89 c1                	mov    %eax,%ecx
    14d0:	8b 0c 0f             	mov    (%rdi,%rcx,1),%ecx
    14d3:	0f ae e8             	lfence 
    14d6:	89 ca                	mov    %ecx,%edx
    14d8:	83 f2 ff             	xor    $0xffffffff,%edx
    14db:	89 cb                	mov    %ecx,%ebx
    14dd:	81 c3 ff fe fe fe    	add    $0xfefefeff,%ebx
    14e3:	21 da                	and    %ebx,%edx
    14e5:	81 e2 80 80 80 80    	and    $0x80808080,%edx
    14eb:	85 d2                	test   %edx,%edx
    14ed:	74 dc                	je     14cb <guest_func_strlen+0x4b>
    14ef:	81 e1 ff 00 00 00    	and    $0xff,%ecx
    14f5:	85 c9                	test   %ecx,%ecx
    14f7:	75 05                	jne    14fe <guest_func_strlen+0x7e>
    14f9:	29 f0                	sub    %esi,%eax
    14fb:	5b                   	pop    %rbx
    14fc:	5d                   	pop    %rbp
    14fd:	c3                   	retq   
    14fe:	89 c1                	mov    %eax,%ecx
    1500:	0f b6 4c 0f 01       	movzbl 0x1(%rdi,%rcx,1),%ecx
    1505:	83 c0 01             	add    $0x1,%eax
    1508:	0f ae e8             	lfence 
    150b:	85 c9                	test   %ecx,%ecx
    150d:	75 ef                	jne    14fe <guest_func_strlen+0x7e>
    150f:	29 f0                	sub    %esi,%eax
    1511:	5b                   	pop    %rbx
    1512:	5d                   	pop    %rbp
    1513:	c3                   	retq   
	...

0000000000001520 <guest_func_15>:
    1520:	55                   	push   %rbp
    1521:	48 89 e5             	mov    %rsp,%rbp
    1524:	53                   	push   %rbx
    1525:	41 55                	push   %r13
    1527:	41 56                	push   %r14
    1529:	41 57                	push   %r15
    152b:	48 83 ec 20          	sub    $0x20,%rsp
    152f:	48 89 bc 24 08 00 00 	mov    %rdi,0x8(%rsp)
    1536:	00 
    1537:	31 c0                	xor    %eax,%eax
    1539:	89 84 24 1c 00 00 00 	mov    %eax,0x1c(%rsp)
    1540:	89 f0                	mov    %esi,%eax
    1542:	83 c0 ff             	add    $0xffffffff,%eax
    1545:	21 f0                	and    %esi,%eax
    1547:	85 c0                	test   %eax,%eax
    1549:	75 09                	jne    1554 <guest_func_15+0x34>
    154b:	89 b4 24 18 00 00 00 	mov    %esi,0x18(%rsp)
    1552:	eb 28                	jmp    157c <guest_func_15+0x5c>
    1554:	b8 20 00 00 00       	mov    $0x20,%eax
    1559:	89 84 24 18 00 00 00 	mov    %eax,0x18(%rsp)
    1560:	eb 07                	jmp    1569 <guest_func_15+0x49>
    1562:	89 84 24 18 00 00 00 	mov    %eax,0x18(%rsp)
    1569:	44 8b bc 24 18 00 00 	mov    0x18(%rsp),%r15d
    1570:	00 
    1571:	44 89 f8             	mov    %r15d,%eax
    1574:	c1 e0 01             	shl    $0x1,%eax
    1577:	41 39 f7             	cmp    %esi,%r15d
    157a:	72 e6                	jb     1562 <guest_func_15+0x42>
    157c:	b8 c0 ff ff ff       	mov    $0xffffffc0,%eax
    1581:	44 8b bc 24 18 00 00 	mov    0x18(%rsp),%r15d
    1588:	00 
    1589:	44 29 f8             	sub    %r15d,%eax
    158c:	39 d0                	cmp    %edx,%eax
    158e:	77 30                	ja     15c0 <guest_func_15+0xa0>
    1590:	b8 f0 06 00 00       	mov    $0x6f0,%eax
    1595:	b9 30 00 00 00       	mov    $0x30,%ecx
    159a:	89 c0                	mov    %eax,%eax
    159c:	4c 8b bc 24 08 00 00 	mov    0x8(%rsp),%r15
    15a3:	00 
    15a4:	41 89 0c 07          	mov    %ecx,(%r15,%rax,1)
    15a8:	44 8b bc 24 1c 00 00 	mov    0x1c(%rsp),%r15d
    15af:	00 
    15b0:	44 89 f8             	mov    %r15d,%eax
    15b3:	48 83 c4 20          	add    $0x20,%rsp
    15b7:	41 5f                	pop    %r15
    15b9:	41 5e                	pop    %r14
    15bb:	41 5d                	pop    %r13
    15bd:	5b                   	pop    %rbx
    15be:	5d                   	pop    %rbp
    15bf:	c3                   	retq   
    15c0:	b8 10 00 00 00       	mov    $0x10,%eax
    15c5:	89 84 24 14 00 00 00 	mov    %eax,0x14(%rsp)
    15cc:	89 d0                	mov    %edx,%eax
    15ce:	83 c0 13             	add    $0x13,%eax
    15d1:	83 e0 f0             	and    $0xfffffff0,%eax
    15d4:	83 fa 0b             	cmp    $0xb,%edx
    15d7:	72 07                	jb     15e0 <guest_func_15+0xc0>
    15d9:	89 84 24 14 00 00 00 	mov    %eax,0x14(%rsp)
    15e0:	44 8b bc 24 14 00 00 	mov    0x14(%rsp),%r15d
    15e7:	00 
    15e8:	41 83 cf 0c          	or     $0xc,%r15d
    15ec:	44 8b b4 24 18 00 00 	mov    0x18(%rsp),%r14d
    15f3:	00 
    15f4:	45 01 f7             	add    %r14d,%r15d
    15f7:	4c 8b b4 24 08 00 00 	mov    0x8(%rsp),%r14
    15fe:	00 
    15ff:	4c 89 f7             	mov    %r14,%rdi
    1602:	44 89 fe             	mov    %r15d,%esi
    1605:	e8 06 35 00 00       	callq  4b10 <guest_func_8>
    160a:	85 c0                	test   %eax,%eax
    160c:	75 18                	jne    1626 <guest_func_15+0x106>
    160e:	44 8b bc 24 1c 00 00 	mov    0x1c(%rsp),%r15d
    1615:	00 
    1616:	44 89 f8             	mov    %r15d,%eax
    1619:	48 83 c4 20          	add    $0x20,%rsp
    161d:	41 5f                	pop    %r15
    161f:	41 5e                	pop    %r14
    1621:	41 5d                	pop    %r13
    1623:	5b                   	pop    %rbx
    1624:	5d                   	pop    %rbp
    1625:	c3                   	retq   
    1626:	89 c1                	mov    %eax,%ecx
    1628:	83 c1 f8             	add    $0xfffffff8,%ecx
    162b:	44 8b bc 24 18 00 00 	mov    0x18(%rsp),%r15d
    1632:	00 
    1633:	41 83 c7 ff          	add    $0xffffffff,%r15d
    1637:	41 21 c7             	and    %eax,%r15d
    163a:	45 85 ff             	test   %r15d,%r15d
    163d:	75 0c                	jne    164b <guest_func_15+0x12b>
    163f:	89 8c 24 10 00 00 00 	mov    %ecx,0x10(%rsp)
    1646:	e9 0f 01 00 00       	jmpq   175a <guest_func_15+0x23a>
    164b:	89 c2                	mov    %eax,%edx
    164d:	83 c2 fc             	add    $0xfffffffc,%edx
    1650:	89 d2                	mov    %edx,%edx
    1652:	4c 8b bc 24 08 00 00 	mov    0x8(%rsp),%r15
    1659:	00 
    165a:	41 8b 1c 17          	mov    (%r15,%rdx,1),%ebx
    165e:	0f ae e8             	lfence 
    1661:	89 de                	mov    %ebx,%esi
    1663:	83 e6 f8             	and    $0xfffffff8,%esi
    1666:	44 8b bc 24 18 00 00 	mov    0x18(%rsp),%r15d
    166d:	00 
    166e:	41 01 c7             	add    %eax,%r15d
    1671:	41 83 c7 ff          	add    $0xffffffff,%r15d
    1675:	44 8b b4 24 1c 00 00 	mov    0x1c(%rsp),%r14d
    167c:	00 
    167d:	44 8b ac 24 18 00 00 	mov    0x18(%rsp),%r13d
    1684:	00 
    1685:	45 29 ee             	sub    %r13d,%r14d
    1688:	45 21 f7             	and    %r14d,%r15d
    168b:	41 83 c7 f8          	add    $0xfffffff8,%r15d
    168f:	44 89 bc 24 10 00 00 	mov    %r15d,0x10(%rsp)
    1696:	00 
    1697:	45 89 ef             	mov    %r13d,%r15d
    169a:	44 8b b4 24 10 00 00 	mov    0x10(%rsp),%r14d
    16a1:	00 
    16a2:	44 89 f8             	mov    %r15d,%eax
    16a5:	44 01 f0             	add    %r14d,%eax
    16a8:	45 89 f7             	mov    %r14d,%r15d
    16ab:	41 29 cf             	sub    %ecx,%r15d
    16ae:	41 83 ff 0f          	cmp    $0xf,%r15d
    16b2:	77 07                	ja     16bb <guest_func_15+0x19b>
    16b4:	89 84 24 10 00 00 00 	mov    %eax,0x10(%rsp)
    16bb:	44 8b bc 24 10 00 00 	mov    0x10(%rsp),%r15d
    16c2:	00 
    16c3:	44 89 f8             	mov    %r15d,%eax
    16c6:	29 c8                	sub    %ecx,%eax
    16c8:	29 c6                	sub    %eax,%esi
    16ca:	83 e3 03             	and    $0x3,%ebx
    16cd:	85 db                	test   %ebx,%ebx
    16cf:	75 1e                	jne    16ef <guest_func_15+0x1cf>
    16d1:	44 89 fa             	mov    %r15d,%edx
    16d4:	4c 8b bc 24 08 00 00 	mov    0x8(%rsp),%r15
    16db:	00 
    16dc:	41 89 74 17 04       	mov    %esi,0x4(%r15,%rdx,1)
    16e1:	89 c9                	mov    %ecx,%ecx
    16e3:	41 8b 0c 0f          	mov    (%r15,%rcx,1),%ecx
    16e7:	01 c1                	add    %eax,%ecx
    16e9:	41 89 0c 17          	mov    %ecx,(%r15,%rdx,1)
    16ed:	eb 6b                	jmp    175a <guest_func_15+0x23a>
    16ef:	44 89 fb             	mov    %r15d,%ebx
    16f2:	4c 8b bc 24 08 00 00 	mov    0x8(%rsp),%r15
    16f9:	00 
    16fa:	41 8b 7c 1f 04       	mov    0x4(%r15,%rbx,1),%edi
    16ff:	83 e7 01             	and    $0x1,%edi
    1702:	09 f7                	or     %esi,%edi
    1704:	83 cf 02             	or     $0x2,%edi
    1707:	41 89 7c 1f 04       	mov    %edi,0x4(%r15,%rbx,1)
    170c:	44 8b bc 24 10 00 00 	mov    0x10(%rsp),%r15d
    1713:	00 
    1714:	41 01 f7             	add    %esi,%r15d
    1717:	44 89 fe             	mov    %r15d,%esi
    171a:	4c 8b bc 24 08 00 00 	mov    0x8(%rsp),%r15
    1721:	00 
    1722:	41 8b 7c 37 04       	mov    0x4(%r15,%rsi,1),%edi
    1727:	83 cf 01             	or     $0x1,%edi
    172a:	41 89 7c 37 04       	mov    %edi,0x4(%r15,%rsi,1)
    172f:	41 8b 34 17          	mov    (%r15,%rdx,1),%esi
    1733:	83 e6 01             	and    $0x1,%esi
    1736:	09 c6                	or     %eax,%esi
    1738:	83 ce 02             	or     $0x2,%esi
    173b:	41 89 34 17          	mov    %esi,(%r15,%rdx,1)
    173f:	41 8b 54 1f 04       	mov    0x4(%r15,%rbx,1),%edx
    1744:	83 ca 01             	or     $0x1,%edx
    1747:	41 89 54 1f 04       	mov    %edx,0x4(%r15,%rbx,1)
    174c:	4c 89 ff             	mov    %r15,%rdi
    174f:	40 89 ce             	rex mov %ecx,%esi
    1752:	40 89 c2             	rex mov %eax,%edx
    1755:	e8 a6 16 00 00       	callq  2e00 <guest_func_13>
    175a:	44 8b bc 24 10 00 00 	mov    0x10(%rsp),%r15d
    1761:	00 
    1762:	44 89 f8             	mov    %r15d,%eax
    1765:	4c 8b bc 24 08 00 00 	mov    0x8(%rsp),%r15
    176c:	00 
    176d:	41 8b 4c 07 04       	mov    0x4(%r15,%rax,1),%ecx
    1772:	0f ae e8             	lfence 
    1775:	89 ca                	mov    %ecx,%edx
    1777:	83 e2 03             	and    $0x3,%edx
    177a:	85 d2                	test   %edx,%edx
    177c:	0f 84 9e 00 00 00    	je     1820 <guest_func_15+0x300>
    1782:	89 ca                	mov    %ecx,%edx
    1784:	83 e2 f8             	and    $0xfffffff8,%edx
    1787:	44 8b bc 24 14 00 00 	mov    0x14(%rsp),%r15d
    178e:	00 
    178f:	41 83 c7 10          	add    $0x10,%r15d
    1793:	44 39 fa             	cmp    %r15d,%edx
    1796:	0f 86 84 00 00 00    	jbe    1820 <guest_func_15+0x300>
    179c:	83 e1 01             	and    $0x1,%ecx
    179f:	44 8b bc 24 14 00 00 	mov    0x14(%rsp),%r15d
    17a6:	00 
    17a7:	44 09 f9             	or     %r15d,%ecx
    17aa:	83 c9 02             	or     $0x2,%ecx
    17ad:	4c 8b bc 24 08 00 00 	mov    0x8(%rsp),%r15
    17b4:	00 
    17b5:	41 89 4c 07 04       	mov    %ecx,0x4(%r15,%rax,1)
    17ba:	44 8b bc 24 14 00 00 	mov    0x14(%rsp),%r15d
    17c1:	00 
    17c2:	44 8b b4 24 10 00 00 	mov    0x10(%rsp),%r14d
    17c9:	00 
    17ca:	45 01 f7             	add    %r14d,%r15d
    17cd:	89 d0                	mov    %edx,%eax
    17cf:	44 8b b4 24 14 00 00 	mov    0x14(%rsp),%r14d
    17d6:	00 
    17d7:	44 29 f0             	sub    %r14d,%eax
    17da:	89 c1                	mov    %eax,%ecx
    17dc:	83 c9 03             	or     $0x3,%ecx
    17df:	44 89 fb             	mov    %r15d,%ebx
    17e2:	4c 8b b4 24 08 00 00 	mov    0x8(%rsp),%r14
    17e9:	00 
    17ea:	41 89 4c 1e 04       	mov    %ecx,0x4(%r14,%rbx,1)
    17ef:	44 8b b4 24 10 00 00 	mov    0x10(%rsp),%r14d
    17f6:	00 
    17f7:	41 01 d6             	add    %edx,%r14d
    17fa:	44 89 f1             	mov    %r14d,%ecx
    17fd:	4c 8b b4 24 08 00 00 	mov    0x8(%rsp),%r14
    1804:	00 
    1805:	41 8b 54 0e 04       	mov    0x4(%r14,%rcx,1),%edx
    180a:	83 ca 01             	or     $0x1,%edx
    180d:	41 89 54 0e 04       	mov    %edx,0x4(%r14,%rcx,1)
    1812:	4c 89 f7             	mov    %r14,%rdi
    1815:	44 89 fe             	mov    %r15d,%esi
    1818:	40 89 c2             	rex mov %eax,%edx
    181b:	e8 e0 15 00 00       	callq  2e00 <guest_func_13>
    1820:	44 8b bc 24 10 00 00 	mov    0x10(%rsp),%r15d
    1827:	00 
    1828:	41 83 c7 08          	add    $0x8,%r15d
    182c:	44 89 f8             	mov    %r15d,%eax
    182f:	48 83 c4 20          	add    $0x20,%rsp
    1833:	41 5f                	pop    %r15
    1835:	41 5e                	pop    %r14
    1837:	41 5d                	pop    %r13
    1839:	5b                   	pop    %rbx
    183a:	5d                   	pop    %rbp
    183b:	c3                   	retq   
    183c:	00 00                	add    %al,(%rax)
	...

0000000000001840 <guest_func_realloc>:
    1840:	55                   	push   %rbp
    1841:	48 89 e5             	mov    %rsp,%rbp
    1844:	53                   	push   %rbx
    1845:	41 54                	push   %r12
    1847:	41 55                	push   %r13
    1849:	41 56                	push   %r14
    184b:	41 57                	push   %r15
    184d:	48 83 ec 28          	sub    $0x28,%rsp
    1851:	48 89 bc 24 00 00 00 	mov    %rdi,0x0(%rsp)
    1858:	00 
    1859:	89 b4 24 24 00 00 00 	mov    %esi,0x24(%rsp)
    1860:	89 94 24 20 00 00 00 	mov    %edx,0x20(%rsp)
    1867:	31 c0                	xor    %eax,%eax
    1869:	89 84 24 1c 00 00 00 	mov    %eax,0x1c(%rsp)
    1870:	41 89 f7             	mov    %esi,%r15d
    1873:	45 85 ff             	test   %r15d,%r15d
    1876:	75 20                	jne    1898 <guest_func_realloc+0x58>
    1878:	49 89 ff             	mov    %rdi,%r15
    187b:	41 89 d6             	mov    %edx,%r14d
    187e:	4c 89 ff             	mov    %r15,%rdi
    1881:	44 89 f6             	mov    %r14d,%esi
    1884:	e8 87 32 00 00       	callq  4b10 <guest_func_8>
    1889:	48 83 c4 28          	add    $0x28,%rsp
    188d:	41 5f                	pop    %r15
    188f:	41 5e                	pop    %r14
    1891:	41 5d                	pop    %r13
    1893:	41 5c                	pop    %r12
    1895:	5b                   	pop    %rbx
    1896:	5d                   	pop    %rbp
    1897:	c3                   	retq   
    1898:	41 89 d7             	mov    %edx,%r15d
    189b:	41 83 ff c0          	cmp    $0xffffffc0,%r15d
    189f:	72 2d                	jb     18ce <guest_func_realloc+0x8e>
    18a1:	b8 f0 06 00 00       	mov    $0x6f0,%eax
    18a6:	b9 30 00 00 00       	mov    $0x30,%ecx
    18ab:	89 c0                	mov    %eax,%eax
    18ad:	49 89 ff             	mov    %rdi,%r15
    18b0:	41 89 0c 07          	mov    %ecx,(%r15,%rax,1)
    18b4:	44 8b bc 24 1c 00 00 	mov    0x1c(%rsp),%r15d
    18bb:	00 
    18bc:	44 89 f8             	mov    %r15d,%eax
    18bf:	48 83 c4 28          	add    $0x28,%rsp
    18c3:	41 5f                	pop    %r15
    18c5:	41 5e                	pop    %r14
    18c7:	41 5d                	pop    %r13
    18c9:	41 5c                	pop    %r12
    18cb:	5b                   	pop    %rbx
    18cc:	5d                   	pop    %rbp
    18cd:	c3                   	retq   
    18ce:	41 83 ff 0b          	cmp    $0xb,%r15d
    18d2:	0f 92 c0             	setb   %al
    18d5:	41 83 c7 13          	add    $0x13,%r15d
    18d9:	44 89 f9             	mov    %r15d,%ecx
    18dc:	83 e1 f0             	and    $0xfffffff0,%ecx
    18df:	ba f8 ff ff ff       	mov    $0xfffffff8,%edx
    18e4:	89 94 24 14 00 00 00 	mov    %edx,0x14(%rsp)
    18eb:	41 89 f7             	mov    %esi,%r15d
    18ee:	41 83 c7 f8          	add    $0xfffffff8,%r15d
    18f2:	44 89 bc 24 18 00 00 	mov    %r15d,0x18(%rsp)
    18f9:	00 
    18fa:	ba fc ff ff ff       	mov    $0xfffffffc,%edx
    18ff:	89 94 24 10 00 00 00 	mov    %edx,0x10(%rsp)
    1906:	41 89 f7             	mov    %esi,%r15d
    1909:	41 83 c7 fc          	add    $0xfffffffc,%r15d
    190d:	44 89 bc 24 08 00 00 	mov    %r15d,0x8(%rsp)
    1914:	00 
    1915:	44 89 fa             	mov    %r15d,%edx
    1918:	49 89 ff             	mov    %rdi,%r15
    191b:	41 8b 1c 17          	mov    (%r15,%rdx,1),%ebx
    191f:	0f ae e8             	lfence 
    1922:	89 de                	mov    %ebx,%esi
    1924:	83 e6 03             	and    $0x3,%esi
    1927:	bf 10 05 00 00       	mov    $0x510,%edi
    192c:	89 ff                	mov    %edi,%edi
    192e:	41 8b 3c 3f          	mov    (%r15,%rdi,1),%edi
    1932:	0f ae e8             	lfence 
    1935:	41 89 d8             	mov    %ebx,%r8d
    1938:	41 83 e0 f8          	and    $0xfffffff8,%r8d
    193c:	41 83 f8 01          	cmp    $0x1,%r8d
    1940:	7c 0d                	jl     194f <guest_func_realloc+0x10f>
    1942:	44 8b bc 24 18 00 00 	mov    0x18(%rsp),%r15d
    1949:	00 
    194a:	44 39 ff             	cmp    %r15d,%edi
    194d:	77 00                	ja     194f <guest_func_realloc+0x10f>
    194f:	41 b9 10 00 00 00    	mov    $0x10,%r9d
    1955:	84 c0                	test   %al,%al
    1957:	75 05                	jne    195e <guest_func_realloc+0x11e>
    1959:	40 89 c8             	rex mov %ecx,%eax
    195c:	eb 03                	jmp    1961 <guest_func_realloc+0x121>
    195e:	44 89 c8             	mov    %r9d,%eax
    1961:	85 f6                	test   %esi,%esi
    1963:	75 54                	jne    19b9 <guest_func_realloc+0x179>
    1965:	81 f8 00 01 00 00    	cmp    $0x100,%eax
    196b:	0f 82 c1 05 00 00    	jb     1f32 <guest_func_realloc+0x6f2>
    1971:	89 c1                	mov    %eax,%ecx
    1973:	83 c9 04             	or     $0x4,%ecx
    1976:	41 39 c8             	cmp    %ecx,%r8d
    1979:	0f 82 c5 05 00 00    	jb     1f44 <guest_func_realloc+0x704>
    197f:	41 29 c0             	sub    %eax,%r8d
    1982:	b8 e0 06 00 00       	mov    $0x6e0,%eax
    1987:	89 c0                	mov    %eax,%eax
    1989:	4c 8b bc 24 00 00 00 	mov    0x0(%rsp),%r15
    1990:	00 
    1991:	41 8b 04 07          	mov    (%r15,%rax,1),%eax
    1995:	c1 e0 01             	shl    $0x1,%eax
    1998:	41 39 c0             	cmp    %eax,%r8d
    199b:	0f ae e8             	lfence 
    199e:	0f 86 c7 06 00 00    	jbe    206b <guest_func_realloc+0x82b>
    19a4:	44 8b bc 24 24 00 00 	mov    0x24(%rsp),%r15d
    19ab:	00 
    19ac:	44 89 bc 24 0c 00 00 	mov    %r15d,0xc(%rsp)
    19b3:	00 
    19b4:	e9 e3 05 00 00       	jmpq   1f9c <guest_func_realloc+0x75c>
    19b9:	44 89 c1             	mov    %r8d,%ecx
    19bc:	44 8b bc 24 18 00 00 	mov    0x18(%rsp),%r15d
    19c3:	00 
    19c4:	44 01 f9             	add    %r15d,%ecx
    19c7:	41 39 c0             	cmp    %eax,%r8d
    19ca:	72 78                	jb     1a44 <guest_func_realloc+0x204>
    19cc:	44 89 c6             	mov    %r8d,%esi
    19cf:	29 c6                	sub    %eax,%esi
    19d1:	83 fe 10             	cmp    $0x10,%esi
    19d4:	0f 82 91 06 00 00    	jb     206b <guest_func_realloc+0x82b>
    19da:	83 e3 01             	and    $0x1,%ebx
    19dd:	09 c3                	or     %eax,%ebx
    19df:	83 cb 02             	or     $0x2,%ebx
    19e2:	4c 8b bc 24 00 00 00 	mov    0x0(%rsp),%r15
    19e9:	00 
    19ea:	41 89 1c 17          	mov    %ebx,(%r15,%rdx,1)
    19ee:	44 8b bc 24 18 00 00 	mov    0x18(%rsp),%r15d
    19f5:	00 
    19f6:	44 01 f8             	add    %r15d,%eax
    19f9:	89 f2                	mov    %esi,%edx
    19fb:	83 ca 03             	or     $0x3,%edx
    19fe:	89 c3                	mov    %eax,%ebx
    1a00:	4c 8b bc 24 00 00 00 	mov    0x0(%rsp),%r15
    1a07:	00 
    1a08:	41 89 54 1f 04       	mov    %edx,0x4(%r15,%rbx,1)
    1a0d:	89 c9                	mov    %ecx,%ecx
    1a0f:	41 8b 54 0f 04       	mov    0x4(%r15,%rcx,1),%edx
    1a14:	83 ca 01             	or     $0x1,%edx
    1a17:	41 89 54 0f 04       	mov    %edx,0x4(%r15,%rcx,1)
    1a1c:	4c 89 ff             	mov    %r15,%rdi
    1a1f:	40 89 f2             	rex mov %esi,%edx
    1a22:	40 89 c6             	rex mov %eax,%esi
    1a25:	e8 d6 13 00 00       	callq  2e00 <guest_func_13>
    1a2a:	44 8b bc 24 24 00 00 	mov    0x24(%rsp),%r15d
    1a31:	00 
    1a32:	44 89 f8             	mov    %r15d,%eax
    1a35:	48 83 c4 28          	add    $0x28,%rsp
    1a39:	41 5f                	pop    %r15
    1a3b:	41 5e                	pop    %r14
    1a3d:	41 5d                	pop    %r13
    1a3f:	41 5c                	pop    %r12
    1a41:	5b                   	pop    %rbx
    1a42:	5d                   	pop    %rbp
    1a43:	c3                   	retq   
    1a44:	be 18 05 00 00       	mov    $0x518,%esi
    1a49:	89 f6                	mov    %esi,%esi
    1a4b:	4c 8b bc 24 00 00 00 	mov    0x0(%rsp),%r15
    1a52:	00 
    1a53:	45 8b 14 37          	mov    (%r15,%rsi,1),%r10d
    1a57:	44 39 d1             	cmp    %r10d,%ecx
    1a5a:	0f ae e8             	lfence 
    1a5d:	75 68                	jne    1ac7 <guest_func_realloc+0x287>
    1a5f:	b9 0c 05 00 00       	mov    $0x50c,%ecx
    1a64:	89 c9                	mov    %ecx,%ecx
    1a66:	41 8b 3c 0f          	mov    (%r15,%rcx,1),%edi
    1a6a:	44 01 c7             	add    %r8d,%edi
    1a6d:	39 c7                	cmp    %eax,%edi
    1a6f:	0f ae e8             	lfence 
    1a72:	0f 86 de 04 00 00    	jbe    1f56 <guest_func_realloc+0x716>
    1a78:	83 e3 01             	and    $0x1,%ebx
    1a7b:	09 c3                	or     %eax,%ebx
    1a7d:	83 cb 02             	or     $0x2,%ebx
    1a80:	41 89 1c 17          	mov    %ebx,(%r15,%rdx,1)
    1a84:	89 c2                	mov    %eax,%edx
    1a86:	44 8b bc 24 18 00 00 	mov    0x18(%rsp),%r15d
    1a8d:	00 
    1a8e:	44 01 fa             	add    %r15d,%edx
    1a91:	4c 8b bc 24 00 00 00 	mov    0x0(%rsp),%r15
    1a98:	00 
    1a99:	41 89 14 37          	mov    %edx,(%r15,%rsi,1)
    1a9d:	29 c7                	sub    %eax,%edi
    1a9f:	41 89 3c 0f          	mov    %edi,(%r15,%rcx,1)
    1aa3:	83 cf 01             	or     $0x1,%edi
    1aa6:	89 d0                	mov    %edx,%eax
    1aa8:	41 89 7c 07 04       	mov    %edi,0x4(%r15,%rax,1)
    1aad:	44 8b bc 24 24 00 00 	mov    0x24(%rsp),%r15d
    1ab4:	00 
    1ab5:	44 89 f8             	mov    %r15d,%eax
    1ab8:	48 83 c4 28          	add    $0x28,%rsp
    1abc:	41 5f                	pop    %r15
    1abe:	41 5e                	pop    %r14
    1ac0:	41 5d                	pop    %r13
    1ac2:	41 5c                	pop    %r12
    1ac4:	5b                   	pop    %rbx
    1ac5:	5d                   	pop    %rbp
    1ac6:	c3                   	retq   
    1ac7:	be 14 05 00 00       	mov    $0x514,%esi
    1acc:	89 f6                	mov    %esi,%esi
    1ace:	45 8b 14 37          	mov    (%r15,%rsi,1),%r10d
    1ad2:	44 39 d1             	cmp    %r10d,%ecx
    1ad5:	0f ae e8             	lfence 
    1ad8:	0f 85 ec 00 00 00    	jne    1bca <guest_func_realloc+0x38a>
    1ade:	b9 08 05 00 00       	mov    $0x508,%ecx
    1ae3:	89 c9                	mov    %ecx,%ecx
    1ae5:	41 8b 3c 0f          	mov    (%r15,%rcx,1),%edi
    1ae9:	0f ae e8             	lfence 
    1aec:	44 01 c7             	add    %r8d,%edi
    1aef:	39 c7                	cmp    %eax,%edi
    1af1:	0f 82 71 04 00 00    	jb     1f68 <guest_func_realloc+0x728>
    1af7:	41 89 f8             	mov    %edi,%r8d
    1afa:	41 29 c0             	sub    %eax,%r8d
    1afd:	41 83 f8 10          	cmp    $0x10,%r8d
    1b01:	72 5f                	jb     1b62 <guest_func_realloc+0x322>
    1b03:	83 e3 01             	and    $0x1,%ebx
    1b06:	09 c3                	or     %eax,%ebx
    1b08:	83 cb 02             	or     $0x2,%ebx
    1b0b:	41 89 1c 17          	mov    %ebx,(%r15,%rdx,1)
    1b0f:	44 8b bc 24 18 00 00 	mov    0x18(%rsp),%r15d
    1b16:	00 
    1b17:	44 01 f8             	add    %r15d,%eax
    1b1a:	44 89 c2             	mov    %r8d,%edx
    1b1d:	83 ca 01             	or     $0x1,%edx
    1b20:	89 c3                	mov    %eax,%ebx
    1b22:	4c 8b bc 24 00 00 00 	mov    0x0(%rsp),%r15
    1b29:	00 
    1b2a:	41 89 54 1f 04       	mov    %edx,0x4(%r15,%rbx,1)
    1b2f:	44 8b bc 24 18 00 00 	mov    0x18(%rsp),%r15d
    1b36:	00 
    1b37:	44 01 ff             	add    %r15d,%edi
    1b3a:	89 fa                	mov    %edi,%edx
    1b3c:	4c 8b bc 24 00 00 00 	mov    0x0(%rsp),%r15
    1b43:	00 
    1b44:	45 89 04 17          	mov    %r8d,(%r15,%rdx,1)
    1b48:	41 8b 5c 17 04       	mov    0x4(%r15,%rdx,1),%ebx
    1b4d:	83 e3 fe             	and    $0xfffffffe,%ebx
    1b50:	41 89 5c 17 04       	mov    %ebx,0x4(%r15,%rdx,1)
    1b55:	44 89 84 24 1c 00 00 	mov    %r8d,0x1c(%rsp)
    1b5c:	00 
    1b5d:	41 89 c7             	mov    %eax,%r15d
    1b60:	eb 36                	jmp    1b98 <guest_func_realloc+0x358>
    1b62:	83 e3 01             	and    $0x1,%ebx
    1b65:	09 fb                	or     %edi,%ebx
    1b67:	83 cb 02             	or     $0x2,%ebx
    1b6a:	41 89 1c 17          	mov    %ebx,(%r15,%rdx,1)
    1b6e:	44 8b bc 24 18 00 00 	mov    0x18(%rsp),%r15d
    1b75:	00 
    1b76:	44 01 ff             	add    %r15d,%edi
    1b79:	89 f8                	mov    %edi,%eax
    1b7b:	4c 8b bc 24 00 00 00 	mov    0x0(%rsp),%r15
    1b82:	00 
    1b83:	41 8b 54 07 04       	mov    0x4(%r15,%rax,1),%edx
    1b88:	83 ca 01             	or     $0x1,%edx
    1b8b:	41 89 54 07 04       	mov    %edx,0x4(%r15,%rax,1)
    1b90:	44 8b bc 24 1c 00 00 	mov    0x1c(%rsp),%r15d
    1b97:	00 
    1b98:	4c 8b b4 24 00 00 00 	mov    0x0(%rsp),%r14
    1b9f:	00 
    1ba0:	45 89 3c 36          	mov    %r15d,(%r14,%rsi,1)
    1ba4:	44 8b bc 24 1c 00 00 	mov    0x1c(%rsp),%r15d
    1bab:	00 
    1bac:	45 89 3c 0e          	mov    %r15d,(%r14,%rcx,1)
    1bb0:	44 8b bc 24 24 00 00 	mov    0x24(%rsp),%r15d
    1bb7:	00 
    1bb8:	44 89 f8             	mov    %r15d,%eax
    1bbb:	48 83 c4 28          	add    $0x28,%rsp
    1bbf:	41 5f                	pop    %r15
    1bc1:	41 5e                	pop    %r14
    1bc3:	41 5d                	pop    %r13
    1bc5:	41 5c                	pop    %r12
    1bc7:	5b                   	pop    %rbx
    1bc8:	5d                   	pop    %rbp
    1bc9:	c3                   	retq   
    1bca:	89 ca                	mov    %ecx,%edx
    1bcc:	41 8b 74 17 04       	mov    0x4(%r15,%rdx,1),%esi
    1bd1:	0f ae e8             	lfence 
    1bd4:	41 89 f2             	mov    %esi,%r10d
    1bd7:	41 83 e2 02          	and    $0x2,%r10d
    1bdb:	45 85 d2             	test   %r10d,%r10d
    1bde:	0f 85 96 03 00 00    	jne    1f7a <guest_func_realloc+0x73a>
    1be4:	41 89 f2             	mov    %esi,%r10d
    1be7:	41 83 e2 f8          	and    $0xfffffff8,%r10d
    1beb:	45 01 c2             	add    %r8d,%r10d
    1bee:	41 39 c2             	cmp    %eax,%r10d
    1bf1:	0f 82 95 03 00 00    	jb     1f8c <guest_func_realloc+0x74c>
    1bf7:	45 89 d0             	mov    %r10d,%r8d
    1bfa:	41 29 c0             	sub    %eax,%r8d
    1bfd:	81 fe ff 00 00 00    	cmp    $0xff,%esi
    1c03:	77 73                	ja     1c78 <guest_func_realloc+0x438>
    1c05:	41 8b 4c 17 0c       	mov    0xc(%r15,%rdx,1),%ecx
    1c0a:	0f ae e8             	lfence 
    1c0d:	41 8b 54 17 08       	mov    0x8(%r15,%rdx,1),%edx
    1c12:	0f ae e8             	lfence 
    1c15:	c1 ee 03             	shr    $0x3,%esi
    1c18:	89 f7                	mov    %esi,%edi
    1c1a:	c1 e7 03             	shl    $0x3,%edi
    1c1d:	81 c7 28 05 00 00    	add    $0x528,%edi
    1c23:	39 fa                	cmp    %edi,%edx
    1c25:	74 00                	je     1c27 <guest_func_realloc+0x3e7>
    1c27:	39 d1                	cmp    %edx,%ecx
    1c29:	75 2e                	jne    1c59 <guest_func_realloc+0x419>
    1c2b:	b9 00 05 00 00       	mov    $0x500,%ecx
    1c30:	89 c9                	mov    %ecx,%ecx
    1c32:	4c 8b bc 24 00 00 00 	mov    0x0(%rsp),%r15
    1c39:	00 
    1c3a:	41 8b 14 0f          	mov    (%r15,%rcx,1),%edx
    1c3e:	bf fe ff ff ff       	mov    $0xfffffffe,%edi
    1c43:	49 89 c9             	mov    %rcx,%r9
    1c46:	40 89 f1             	rex mov %esi,%ecx
    1c49:	4c 89 ce             	mov    %r9,%rsi
    1c4c:	d3 c7                	rol    %cl,%edi
    1c4e:	21 fa                	and    %edi,%edx
    1c50:	41 89 14 37          	mov    %edx,(%r15,%rsi,1)
    1c54:	e9 ec 01 00 00       	jmpq   1e45 <guest_func_realloc+0x605>
    1c59:	39 f9                	cmp    %edi,%ecx
    1c5b:	74 00                	je     1c5d <guest_func_realloc+0x41d>
    1c5d:	89 ce                	mov    %ecx,%esi
    1c5f:	4c 8b bc 24 00 00 00 	mov    0x0(%rsp),%r15
    1c66:	00 
    1c67:	41 89 54 37 08       	mov    %edx,0x8(%r15,%rsi,1)
    1c6c:	89 d2                	mov    %edx,%edx
    1c6e:	41 89 4c 17 0c       	mov    %ecx,0xc(%r15,%rdx,1)
    1c73:	e9 cd 01 00 00       	jmpq   1e45 <guest_func_realloc+0x605>
    1c78:	41 8b 74 17 18       	mov    0x18(%r15,%rdx,1),%esi
    1c7d:	0f ae e8             	lfence 
    1c80:	45 8b 5c 17 0c       	mov    0xc(%r15,%rdx,1),%r11d
    1c85:	0f ae e8             	lfence 
    1c88:	41 39 cb             	cmp    %ecx,%r11d
    1c8b:	74 32                	je     1cbf <guest_func_realloc+0x47f>
    1c8d:	45 8b 64 17 08       	mov    0x8(%r15,%rdx,1),%r12d
    1c92:	0f ae e8             	lfence 
    1c95:	44 39 e7             	cmp    %r12d,%edi
    1c98:	77 08                	ja     1ca2 <guest_func_realloc+0x462>
    1c9a:	44 89 e7             	mov    %r12d,%edi
    1c9d:	41 8b 7c 3f 0c       	mov    0xc(%r15,%rdi,1),%edi
    1ca2:	44 89 df             	mov    %r11d,%edi
    1ca5:	4c 8b bc 24 00 00 00 	mov    0x0(%rsp),%r15
    1cac:	00 
    1cad:	45 89 64 3f 08       	mov    %r12d,0x8(%r15,%rdi,1)
    1cb2:	44 89 e7             	mov    %r12d,%edi
    1cb5:	45 89 5c 3f 0c       	mov    %r11d,0xc(%r15,%rdi,1)
    1cba:	e9 a2 00 00 00       	jmpq   1d61 <guest_func_realloc+0x521>
    1cbf:	89 cf                	mov    %ecx,%edi
    1cc1:	83 c7 14             	add    $0x14,%edi
    1cc4:	41 89 fb             	mov    %edi,%r11d
    1cc7:	47 8b 1c 1f          	mov    (%r15,%r11,1),%r11d
    1ccb:	0f ae e8             	lfence 
    1cce:	45 85 db             	test   %r11d,%r11d
    1cd1:	75 21                	jne    1cf4 <guest_func_realloc+0x4b4>
    1cd3:	89 cf                	mov    %ecx,%edi
    1cd5:	83 c7 10             	add    $0x10,%edi
    1cd8:	41 89 fb             	mov    %edi,%r11d
    1cdb:	47 8b 1c 1f          	mov    (%r15,%r11,1),%r11d
    1cdf:	0f ae e8             	lfence 
    1ce2:	45 85 db             	test   %r11d,%r11d
    1ce5:	75 0d                	jne    1cf4 <guest_func_realloc+0x4b4>
    1ce7:	44 8b bc 24 1c 00 00 	mov    0x1c(%rsp),%r15d
    1cee:	00 
    1cef:	45 89 fb             	mov    %r15d,%r11d
    1cf2:	eb 6d                	jmp    1d61 <guest_func_realloc+0x521>
    1cf4:	eb 20                	jmp    1d16 <guest_func_realloc+0x4d6>
    1cf6:	44 89 ef             	mov    %r13d,%edi
    1cf9:	45 89 e3             	mov    %r12d,%r11d
    1cfc:	45 89 de             	mov    %r11d,%r14d
    1cff:	41 89 fb             	mov    %edi,%r11d
    1d02:	44 89 f7             	mov    %r14d,%edi
    1d05:	eb 0f                	jmp    1d16 <guest_func_realloc+0x4d6>
    1d07:	44 89 ef             	mov    %r13d,%edi
    1d0a:	45 89 e3             	mov    %r12d,%r11d
    1d0d:	45 89 de             	mov    %r11d,%r14d
    1d10:	41 89 fb             	mov    %edi,%r11d
    1d13:	44 89 f7             	mov    %r14d,%edi
    1d16:	45 89 dc             	mov    %r11d,%r12d
    1d19:	41 83 c4 14          	add    $0x14,%r12d
    1d1d:	45 89 e5             	mov    %r12d,%r13d
    1d20:	4c 8b bc 24 00 00 00 	mov    0x0(%rsp),%r15
    1d27:	00 
    1d28:	47 8b 2c 2f          	mov    (%r15,%r13,1),%r13d
    1d2c:	0f ae e8             	lfence 
    1d2f:	45 85 ed             	test   %r13d,%r13d
    1d32:	75 c2                	jne    1cf6 <guest_func_realloc+0x4b6>
    1d34:	45 89 dc             	mov    %r11d,%r12d
    1d37:	41 83 c4 10          	add    $0x10,%r12d
    1d3b:	45 89 dd             	mov    %r11d,%r13d
    1d3e:	47 8b 6c 2f 10       	mov    0x10(%r15,%r13,1),%r13d
    1d43:	0f ae e8             	lfence 
    1d46:	45 85 ed             	test   %r13d,%r13d
    1d49:	75 bc                	jne    1d07 <guest_func_realloc+0x4c7>
    1d4b:	89 ff                	mov    %edi,%edi
    1d4d:	44 8b bc 24 1c 00 00 	mov    0x1c(%rsp),%r15d
    1d54:	00 
    1d55:	4c 8b b4 24 00 00 00 	mov    0x0(%rsp),%r14
    1d5c:	00 
    1d5d:	45 89 3c 3e          	mov    %r15d,(%r14,%rdi,1)
    1d61:	85 f6                	test   %esi,%esi
    1d63:	0f 84 dc 00 00 00    	je     1e45 <guest_func_realloc+0x605>
    1d69:	4c 8b bc 24 00 00 00 	mov    0x0(%rsp),%r15
    1d70:	00 
    1d71:	41 8b 7c 17 1c       	mov    0x1c(%r15,%rdx,1),%edi
    1d76:	41 89 fc             	mov    %edi,%r12d
    1d79:	41 c1 e4 02          	shl    $0x2,%r12d
    1d7d:	41 81 c4 30 06 00 00 	add    $0x630,%r12d
    1d84:	0f ae e8             	lfence 
    1d87:	45 89 e4             	mov    %r12d,%r12d
    1d8a:	47 8b 2c 27          	mov    (%r15,%r12,1),%r13d
    1d8e:	44 39 e9             	cmp    %r13d,%ecx
    1d91:	0f ae e8             	lfence 
    1d94:	75 2f                	jne    1dc5 <guest_func_realloc+0x585>
    1d96:	47 89 1c 27          	mov    %r11d,(%r15,%r12,1)
    1d9a:	45 85 db             	test   %r11d,%r11d
    1d9d:	75 57                	jne    1df6 <guest_func_realloc+0x5b6>
    1d9f:	b9 04 05 00 00       	mov    $0x504,%ecx
    1da4:	89 c9                	mov    %ecx,%ecx
    1da6:	41 8b 14 0f          	mov    (%r15,%rcx,1),%edx
    1daa:	be fe ff ff ff       	mov    $0xfffffffe,%esi
    1daf:	49 89 c9             	mov    %rcx,%r9
    1db2:	40 89 f9             	rex mov %edi,%ecx
    1db5:	4c 89 cf             	mov    %r9,%rdi
    1db8:	d3 c6                	rol    %cl,%esi
    1dba:	21 f2                	and    %esi,%edx
    1dbc:	41 89 14 3f          	mov    %edx,(%r15,%rdi,1)
    1dc0:	e9 80 00 00 00       	jmpq   1e45 <guest_func_realloc+0x605>
    1dc5:	bf 14 00 00 00       	mov    $0x14,%edi
    1dca:	41 89 f4             	mov    %esi,%r12d
    1dcd:	47 8b 64 27 10       	mov    0x10(%r15,%r12,1),%r12d
    1dd2:	41 39 cc             	cmp    %ecx,%r12d
    1dd5:	0f ae e8             	lfence 
    1dd8:	74 05                	je     1ddf <guest_func_realloc+0x59f>
    1dda:	89 f9                	mov    %edi,%ecx
    1ddc:	41 89 c9             	mov    %ecx,%r9d
    1ddf:	41 01 f1             	add    %esi,%r9d
    1de2:	44 89 c9             	mov    %r9d,%ecx
    1de5:	4c 8b bc 24 00 00 00 	mov    0x0(%rsp),%r15
    1dec:	00 
    1ded:	45 89 1c 0f          	mov    %r11d,(%r15,%rcx,1)
    1df1:	45 85 db             	test   %r11d,%r11d
    1df4:	74 4f                	je     1e45 <guest_func_realloc+0x605>
    1df6:	44 89 d9             	mov    %r11d,%ecx
    1df9:	4c 8b bc 24 00 00 00 	mov    0x0(%rsp),%r15
    1e00:	00 
    1e01:	41 89 74 0f 18       	mov    %esi,0x18(%r15,%rcx,1)
    1e06:	41 8b 74 17 10       	mov    0x10(%r15,%rdx,1),%esi
    1e0b:	0f ae e8             	lfence 
    1e0e:	85 f6                	test   %esi,%esi
    1e10:	74 0c                	je     1e1e <guest_func_realloc+0x5de>
    1e12:	41 89 74 0f 10       	mov    %esi,0x10(%r15,%rcx,1)
    1e17:	89 f1                	mov    %esi,%ecx
    1e19:	45 89 5c 0f 18       	mov    %r11d,0x18(%r15,%rcx,1)
    1e1e:	4c 8b bc 24 00 00 00 	mov    0x0(%rsp),%r15
    1e25:	00 
    1e26:	41 8b 4c 17 14       	mov    0x14(%r15,%rdx,1),%ecx
    1e2b:	0f ae e8             	lfence 
    1e2e:	85 c9                	test   %ecx,%ecx
    1e30:	74 13                	je     1e45 <guest_func_realloc+0x605>
    1e32:	44 89 da             	mov    %r11d,%edx
    1e35:	83 c2 14             	add    $0x14,%edx
    1e38:	89 d2                	mov    %edx,%edx
    1e3a:	41 89 0c 17          	mov    %ecx,(%r15,%rdx,1)
    1e3e:	89 c9                	mov    %ecx,%ecx
    1e40:	45 89 5c 0f 18       	mov    %r11d,0x18(%r15,%rcx,1)
    1e45:	41 83 f8 0f          	cmp    $0xf,%r8d
    1e49:	77 5d                	ja     1ea8 <guest_func_realloc+0x668>
    1e4b:	83 e3 01             	and    $0x1,%ebx
    1e4e:	44 09 d3             	or     %r10d,%ebx
    1e51:	83 cb 02             	or     $0x2,%ebx
    1e54:	44 8b bc 24 08 00 00 	mov    0x8(%rsp),%r15d
    1e5b:	00 
    1e5c:	44 89 f8             	mov    %r15d,%eax
    1e5f:	4c 8b bc 24 00 00 00 	mov    0x0(%rsp),%r15
    1e66:	00 
    1e67:	41 89 1c 07          	mov    %ebx,(%r15,%rax,1)
    1e6b:	44 8b bc 24 18 00 00 	mov    0x18(%rsp),%r15d
    1e72:	00 
    1e73:	45 01 d7             	add    %r10d,%r15d
    1e76:	44 89 f8             	mov    %r15d,%eax
    1e79:	4c 8b bc 24 00 00 00 	mov    0x0(%rsp),%r15
    1e80:	00 
    1e81:	41 8b 4c 07 04       	mov    0x4(%r15,%rax,1),%ecx
    1e86:	83 c9 01             	or     $0x1,%ecx
    1e89:	41 89 4c 07 04       	mov    %ecx,0x4(%r15,%rax,1)
    1e8e:	44 8b bc 24 24 00 00 	mov    0x24(%rsp),%r15d
    1e95:	00 
    1e96:	44 89 f8             	mov    %r15d,%eax
    1e99:	48 83 c4 28          	add    $0x28,%rsp
    1e9d:	41 5f                	pop    %r15
    1e9f:	41 5e                	pop    %r14
    1ea1:	41 5d                	pop    %r13
    1ea3:	41 5c                	pop    %r12
    1ea5:	5b                   	pop    %rbx
    1ea6:	5d                   	pop    %rbp
    1ea7:	c3                   	retq   
    1ea8:	83 e3 01             	and    $0x1,%ebx
    1eab:	09 c3                	or     %eax,%ebx
    1ead:	83 cb 02             	or     $0x2,%ebx
    1eb0:	44 8b bc 24 08 00 00 	mov    0x8(%rsp),%r15d
    1eb7:	00 
    1eb8:	44 89 f9             	mov    %r15d,%ecx
    1ebb:	4c 8b bc 24 00 00 00 	mov    0x0(%rsp),%r15
    1ec2:	00 
    1ec3:	41 89 1c 0f          	mov    %ebx,(%r15,%rcx,1)
    1ec7:	44 8b bc 24 18 00 00 	mov    0x18(%rsp),%r15d
    1ece:	00 
    1ecf:	44 01 f8             	add    %r15d,%eax
    1ed2:	44 89 c1             	mov    %r8d,%ecx
    1ed5:	83 c9 03             	or     $0x3,%ecx
    1ed8:	89 c2                	mov    %eax,%edx
    1eda:	4c 8b bc 24 00 00 00 	mov    0x0(%rsp),%r15
    1ee1:	00 
    1ee2:	41 89 4c 17 04       	mov    %ecx,0x4(%r15,%rdx,1)
    1ee7:	44 8b bc 24 18 00 00 	mov    0x18(%rsp),%r15d
    1eee:	00 
    1eef:	45 01 d7             	add    %r10d,%r15d
    1ef2:	44 89 f9             	mov    %r15d,%ecx
    1ef5:	4c 8b bc 24 00 00 00 	mov    0x0(%rsp),%r15
    1efc:	00 
    1efd:	41 8b 54 0f 04       	mov    0x4(%r15,%rcx,1),%edx
    1f02:	83 ca 01             	or     $0x1,%edx
    1f05:	41 89 54 0f 04       	mov    %edx,0x4(%r15,%rcx,1)
    1f0a:	4c 89 ff             	mov    %r15,%rdi
    1f0d:	40 89 c6             	rex mov %eax,%esi
    1f10:	44 89 c2             	mov    %r8d,%edx
    1f13:	e8 e8 0e 00 00       	callq  2e00 <guest_func_13>
    1f18:	44 8b bc 24 24 00 00 	mov    0x24(%rsp),%r15d
    1f1f:	00 
    1f20:	44 89 f8             	mov    %r15d,%eax
    1f23:	48 83 c4 28          	add    $0x28,%rsp
    1f27:	41 5f                	pop    %r15
    1f29:	41 5e                	pop    %r14
    1f2b:	41 5d                	pop    %r13
    1f2d:	41 5c                	pop    %r12
    1f2f:	5b                   	pop    %rbx
    1f30:	5d                   	pop    %rbp
    1f31:	c3                   	retq   
    1f32:	44 8b bc 24 24 00 00 	mov    0x24(%rsp),%r15d
    1f39:	00 
    1f3a:	44 89 bc 24 0c 00 00 	mov    %r15d,0xc(%rsp)
    1f41:	00 
    1f42:	eb 58                	jmp    1f9c <guest_func_realloc+0x75c>
    1f44:	44 8b bc 24 24 00 00 	mov    0x24(%rsp),%r15d
    1f4b:	00 
    1f4c:	44 89 bc 24 0c 00 00 	mov    %r15d,0xc(%rsp)
    1f53:	00 
    1f54:	eb 46                	jmp    1f9c <guest_func_realloc+0x75c>
    1f56:	44 8b bc 24 24 00 00 	mov    0x24(%rsp),%r15d
    1f5d:	00 
    1f5e:	44 89 bc 24 0c 00 00 	mov    %r15d,0xc(%rsp)
    1f65:	00 
    1f66:	eb 34                	jmp    1f9c <guest_func_realloc+0x75c>
    1f68:	44 8b bc 24 24 00 00 	mov    0x24(%rsp),%r15d
    1f6f:	00 
    1f70:	44 89 bc 24 0c 00 00 	mov    %r15d,0xc(%rsp)
    1f77:	00 
    1f78:	eb 22                	jmp    1f9c <guest_func_realloc+0x75c>
    1f7a:	44 8b bc 24 24 00 00 	mov    0x24(%rsp),%r15d
    1f81:	00 
    1f82:	44 89 bc 24 0c 00 00 	mov    %r15d,0xc(%rsp)
    1f89:	00 
    1f8a:	eb 10                	jmp    1f9c <guest_func_realloc+0x75c>
    1f8c:	44 8b bc 24 24 00 00 	mov    0x24(%rsp),%r15d
    1f93:	00 
    1f94:	44 89 bc 24 0c 00 00 	mov    %r15d,0xc(%rsp)
    1f9b:	00 
    1f9c:	4c 8b bc 24 00 00 00 	mov    0x0(%rsp),%r15
    1fa3:	00 
    1fa4:	44 8b b4 24 20 00 00 	mov    0x20(%rsp),%r14d
    1fab:	00 
    1fac:	4c 89 ff             	mov    %r15,%rdi
    1faf:	44 89 f6             	mov    %r14d,%esi
    1fb2:	e8 59 2b 00 00       	callq  4b10 <guest_func_8>
    1fb7:	85 c0                	test   %eax,%eax
    1fb9:	75 1a                	jne    1fd5 <guest_func_realloc+0x795>
    1fbb:	44 8b bc 24 1c 00 00 	mov    0x1c(%rsp),%r15d
    1fc2:	00 
    1fc3:	44 89 f8             	mov    %r15d,%eax
    1fc6:	48 83 c4 28          	add    $0x28,%rsp
    1fca:	41 5f                	pop    %r15
    1fcc:	41 5e                	pop    %r14
    1fce:	41 5d                	pop    %r13
    1fd0:	41 5c                	pop    %r12
    1fd2:	5b                   	pop    %rbx
    1fd3:	5d                   	pop    %rbp
    1fd4:	c3                   	retq   
    1fd5:	44 8b bc 24 08 00 00 	mov    0x8(%rsp),%r15d
    1fdc:	00 
    1fdd:	44 89 f9             	mov    %r15d,%ecx
    1fe0:	4c 8b bc 24 00 00 00 	mov    0x0(%rsp),%r15
    1fe7:	00 
    1fe8:	41 8b 0c 0f          	mov    (%r15,%rcx,1),%ecx
    1fec:	0f ae e8             	lfence 
    1fef:	89 ca                	mov    %ecx,%edx
    1ff1:	83 e2 03             	and    $0x3,%edx
    1ff4:	85 d2                	test   %edx,%edx
    1ff6:	75 10                	jne    2008 <guest_func_realloc+0x7c8>
    1ff8:	44 8b bc 24 14 00 00 	mov    0x14(%rsp),%r15d
    1fff:	00 
    2000:	44 89 bc 24 10 00 00 	mov    %r15d,0x10(%rsp)
    2007:	00 
    2008:	83 e1 f8             	and    $0xfffffff8,%ecx
    200b:	44 8b bc 24 10 00 00 	mov    0x10(%rsp),%r15d
    2012:	00 
    2013:	44 89 fa             	mov    %r15d,%edx
    2016:	01 ca                	add    %ecx,%edx
    2018:	44 8b bc 24 20 00 00 	mov    0x20(%rsp),%r15d
    201f:	00 
    2020:	44 39 fa             	cmp    %r15d,%edx
    2023:	72 03                	jb     2028 <guest_func_realloc+0x7e8>
    2025:	44 89 fa             	mov    %r15d,%edx
    2028:	4c 8b bc 24 00 00 00 	mov    0x0(%rsp),%r15
    202f:	00 
    2030:	44 8b b4 24 0c 00 00 	mov    0xc(%rsp),%r14d
    2037:	00 
    2038:	4c 89 ff             	mov    %r15,%rdi
    203b:	40 89 c6             	rex mov %eax,%esi
    203e:	40 89 d1             	rex mov %edx,%ecx
    2041:	44 89 f2             	mov    %r14d,%edx
    2044:	e8 37 24 00 00       	callq  4480 <guest_func_memcpy>
    2049:	89 84 24 24 00 00 00 	mov    %eax,0x24(%rsp)
    2050:	4c 8b bc 24 00 00 00 	mov    0x0(%rsp),%r15
    2057:	00 
    2058:	44 8b b4 24 0c 00 00 	mov    0xc(%rsp),%r14d
    205f:	00 
    2060:	4c 89 ff             	mov    %r15,%rdi
    2063:	44 89 f6             	mov    %r14d,%esi
    2066:	e8 25 00 00 00       	callq  2090 <guest_func_10>
    206b:	44 8b bc 24 24 00 00 	mov    0x24(%rsp),%r15d
    2072:	00 
    2073:	44 89 f8             	mov    %r15d,%eax
    2076:	48 83 c4 28          	add    $0x28,%rsp
    207a:	41 5f                	pop    %r15
    207c:	41 5e                	pop    %r14
    207e:	41 5d                	pop    %r13
    2080:	41 5c                	pop    %r12
    2082:	5b                   	pop    %rbx
    2083:	5d                   	pop    %rbp
    2084:	c3                   	retq   
	...

0000000000002090 <guest_func_10>:
    2090:	55                   	push   %rbp
    2091:	48 89 e5             	mov    %rsp,%rbp
    2094:	53                   	push   %rbx
    2095:	41 54                	push   %r12
    2097:	41 55                	push   %r13
    2099:	41 56                	push   %r14
    209b:	41 57                	push   %r15
    209d:	31 c0                	xor    %eax,%eax
    209f:	85 f6                	test   %esi,%esi
    20a1:	0f 84 34 09 00 00    	je     29db <guest_func_10+0x94b>
    20a7:	89 f1                	mov    %esi,%ecx
    20a9:	83 c1 f8             	add    $0xfffffff8,%ecx
    20ac:	83 c6 fc             	add    $0xfffffffc,%esi
    20af:	89 f2                	mov    %esi,%edx
    20b1:	8b 14 17             	mov    (%rdi,%rdx,1),%edx
    20b4:	0f ae e8             	lfence 
    20b7:	89 d3                	mov    %edx,%ebx
    20b9:	83 e3 f8             	and    $0xfffffff8,%ebx
    20bc:	89 ce                	mov    %ecx,%esi
    20be:	01 de                	add    %ebx,%esi
    20c0:	41 b8 01 00 00 00    	mov    $0x1,%r8d
    20c6:	41 89 d1             	mov    %edx,%r9d
    20c9:	41 83 e1 01          	and    $0x1,%r9d
    20cd:	45 85 c9             	test   %r9d,%r9d
    20d0:	0f 85 b2 02 00 00    	jne    2388 <guest_func_10+0x2f8>
    20d6:	83 e2 03             	and    $0x3,%edx
    20d9:	85 d2                	test   %edx,%edx
    20db:	0f 84 fa 08 00 00    	je     29db <guest_func_10+0x94b>
    20e1:	89 ca                	mov    %ecx,%edx
    20e3:	8b 14 17             	mov    (%rdi,%rdx,1),%edx
    20e6:	0f ae e8             	lfence 
    20e9:	29 d1                	sub    %edx,%ecx
    20eb:	41 b9 10 05 00 00    	mov    $0x510,%r9d
    20f1:	45 89 c9             	mov    %r9d,%r9d
    20f4:	46 8b 0c 0f          	mov    (%rdi,%r9,1),%r9d
    20f8:	0f ae e8             	lfence 
    20fb:	44 39 c9             	cmp    %r9d,%ecx
    20fe:	0f 82 d7 08 00 00    	jb     29db <guest_func_10+0x94b>
    2104:	01 d3                	add    %edx,%ebx
    2106:	41 ba 14 05 00 00    	mov    $0x514,%r10d
    210c:	45 89 d2             	mov    %r10d,%r10d
    210f:	46 8b 14 17          	mov    (%rdi,%r10,1),%r10d
    2113:	44 39 d1             	cmp    %r10d,%ecx
    2116:	0f ae e8             	lfence 
    2119:	0f 84 22 02 00 00    	je     2341 <guest_func_10+0x2b1>
    211f:	81 fa ff 00 00 00    	cmp    $0xff,%edx
    2125:	77 76                	ja     219d <guest_func_10+0x10d>
    2127:	41 89 c9             	mov    %ecx,%r9d
    212a:	46 8b 54 0f 0c       	mov    0xc(%rdi,%r9,1),%r10d
    212f:	0f ae e8             	lfence 
    2132:	46 8b 4c 0f 08       	mov    0x8(%rdi,%r9,1),%r9d
    2137:	0f ae e8             	lfence 
    213a:	c1 ea 03             	shr    $0x3,%edx
    213d:	41 89 d3             	mov    %edx,%r11d
    2140:	41 c1 e3 03          	shl    $0x3,%r11d
    2144:	41 81 c3 28 05 00 00 	add    $0x528,%r11d
    214b:	45 39 d9             	cmp    %r11d,%r9d
    214e:	74 00                	je     2150 <guest_func_10+0xc0>
    2150:	45 39 ca             	cmp    %r9d,%r10d
    2153:	75 2e                	jne    2183 <guest_func_10+0xf3>
    2155:	41 b9 00 05 00 00    	mov    $0x500,%r9d
    215b:	45 89 c9             	mov    %r9d,%r9d
    215e:	46 8b 14 0f          	mov    (%rdi,%r9,1),%r10d
    2162:	41 bb fe ff ff ff    	mov    $0xfffffffe,%r11d
    2168:	41 89 cc             	mov    %ecx,%r12d
    216b:	40 89 d1             	rex mov %edx,%ecx
    216e:	44 89 e2             	mov    %r12d,%edx
    2171:	41 d3 c3             	rol    %cl,%r11d
    2174:	45 21 da             	and    %r11d,%r10d
    2177:	46 89 14 0f          	mov    %r10d,(%rdi,%r9,1)
    217b:	40 89 d1             	rex mov %edx,%ecx
    217e:	e9 05 02 00 00       	jmpq   2388 <guest_func_10+0x2f8>
    2183:	45 39 da             	cmp    %r11d,%r10d
    2186:	74 00                	je     2188 <guest_func_10+0xf8>
    2188:	44 89 d2             	mov    %r10d,%edx
    218b:	44 89 4c 17 08       	mov    %r9d,0x8(%rdi,%rdx,1)
    2190:	44 89 ca             	mov    %r9d,%edx
    2193:	44 89 54 17 0c       	mov    %r10d,0xc(%rdi,%rdx,1)
    2198:	e9 eb 01 00 00       	jmpq   2388 <guest_func_10+0x2f8>
    219d:	89 ca                	mov    %ecx,%edx
    219f:	44 8b 54 17 18       	mov    0x18(%rdi,%rdx,1),%r10d
    21a4:	0f ae e8             	lfence 
    21a7:	44 8b 5c 17 0c       	mov    0xc(%rdi,%rdx,1),%r11d
    21ac:	0f ae e8             	lfence 
    21af:	44 39 d9             	cmp    %r11d,%ecx
    21b2:	74 2a                	je     21de <guest_func_10+0x14e>
    21b4:	44 8b 64 17 08       	mov    0x8(%rdi,%rdx,1),%r12d
    21b9:	0f ae e8             	lfence 
    21bc:	45 39 e1             	cmp    %r12d,%r9d
    21bf:	77 08                	ja     21c9 <guest_func_10+0x139>
    21c1:	45 89 e1             	mov    %r12d,%r9d
    21c4:	46 8b 4c 0f 0c       	mov    0xc(%rdi,%r9,1),%r9d
    21c9:	45 89 d9             	mov    %r11d,%r9d
    21cc:	46 89 64 0f 08       	mov    %r12d,0x8(%rdi,%r9,1)
    21d1:	45 89 e1             	mov    %r12d,%r9d
    21d4:	46 89 5c 0f 0c       	mov    %r11d,0xc(%rdi,%r9,1)
    21d9:	e9 8a 00 00 00       	jmpq   2268 <guest_func_10+0x1d8>
    21de:	41 89 c9             	mov    %ecx,%r9d
    21e1:	41 83 c1 14          	add    $0x14,%r9d
    21e5:	45 89 cb             	mov    %r9d,%r11d
    21e8:	46 8b 1c 1f          	mov    (%rdi,%r11,1),%r11d
    21ec:	0f ae e8             	lfence 
    21ef:	45 85 db             	test   %r11d,%r11d
    21f2:	75 1e                	jne    2212 <guest_func_10+0x182>
    21f4:	41 89 c9             	mov    %ecx,%r9d
    21f7:	41 83 c1 10          	add    $0x10,%r9d
    21fb:	45 89 cb             	mov    %r9d,%r11d
    21fe:	46 8b 1c 1f          	mov    (%rdi,%r11,1),%r11d
    2202:	0f ae e8             	lfence 
    2205:	45 85 db             	test   %r11d,%r11d
    2208:	75 08                	jne    2212 <guest_func_10+0x182>
    220a:	41 89 c1             	mov    %eax,%r9d
    220d:	45 89 cb             	mov    %r9d,%r11d
    2210:	eb 56                	jmp    2268 <guest_func_10+0x1d8>
    2212:	eb 20                	jmp    2234 <guest_func_10+0x1a4>
    2214:	45 89 e9             	mov    %r13d,%r9d
    2217:	45 89 e3             	mov    %r12d,%r11d
    221a:	45 89 de             	mov    %r11d,%r14d
    221d:	45 89 cb             	mov    %r9d,%r11d
    2220:	45 89 f1             	mov    %r14d,%r9d
    2223:	eb 0f                	jmp    2234 <guest_func_10+0x1a4>
    2225:	45 89 e9             	mov    %r13d,%r9d
    2228:	45 89 e3             	mov    %r12d,%r11d
    222b:	45 89 de             	mov    %r11d,%r14d
    222e:	45 89 cb             	mov    %r9d,%r11d
    2231:	45 89 f1             	mov    %r14d,%r9d
    2234:	45 89 dc             	mov    %r11d,%r12d
    2237:	41 83 c4 14          	add    $0x14,%r12d
    223b:	45 89 e5             	mov    %r12d,%r13d
    223e:	46 8b 2c 2f          	mov    (%rdi,%r13,1),%r13d
    2242:	0f ae e8             	lfence 
    2245:	45 85 ed             	test   %r13d,%r13d
    2248:	75 ca                	jne    2214 <guest_func_10+0x184>
    224a:	45 89 dc             	mov    %r11d,%r12d
    224d:	41 83 c4 10          	add    $0x10,%r12d
    2251:	45 89 dd             	mov    %r11d,%r13d
    2254:	46 8b 6c 2f 10       	mov    0x10(%rdi,%r13,1),%r13d
    2259:	0f ae e8             	lfence 
    225c:	45 85 ed             	test   %r13d,%r13d
    225f:	75 c4                	jne    2225 <guest_func_10+0x195>
    2261:	45 89 c9             	mov    %r9d,%r9d
    2264:	42 89 04 0f          	mov    %eax,(%rdi,%r9,1)
    2268:	45 85 d2             	test   %r10d,%r10d
    226b:	0f 84 17 01 00 00    	je     2388 <guest_func_10+0x2f8>
    2271:	44 8b 4c 17 1c       	mov    0x1c(%rdi,%rdx,1),%r9d
    2276:	45 89 cc             	mov    %r9d,%r12d
    2279:	41 c1 e4 02          	shl    $0x2,%r12d
    227d:	41 81 c4 30 06 00 00 	add    $0x630,%r12d
    2284:	0f ae e8             	lfence 
    2287:	45 89 e4             	mov    %r12d,%r12d
    228a:	46 8b 2c 27          	mov    (%rdi,%r12,1),%r13d
    228e:	44 39 e9             	cmp    %r13d,%ecx
    2291:	0f ae e8             	lfence 
    2294:	75 35                	jne    22cb <guest_func_10+0x23b>
    2296:	46 89 1c 27          	mov    %r11d,(%rdi,%r12,1)
    229a:	45 85 db             	test   %r11d,%r11d
    229d:	75 5e                	jne    22fd <guest_func_10+0x26d>
    229f:	ba 04 05 00 00       	mov    $0x504,%edx
    22a4:	89 d2                	mov    %edx,%edx
    22a6:	44 8b 14 17          	mov    (%rdi,%rdx,1),%r10d
    22aa:	41 bb fe ff ff ff    	mov    $0xfffffffe,%r11d
    22b0:	41 89 cc             	mov    %ecx,%r12d
    22b3:	44 89 c9             	mov    %r9d,%ecx
    22b6:	45 89 e1             	mov    %r12d,%r9d
    22b9:	41 d3 c3             	rol    %cl,%r11d
    22bc:	45 21 da             	and    %r11d,%r10d
    22bf:	44 89 14 17          	mov    %r10d,(%rdi,%rdx,1)
    22c3:	44 89 c9             	mov    %r9d,%ecx
    22c6:	e9 bd 00 00 00       	jmpq   2388 <guest_func_10+0x2f8>
    22cb:	41 b9 10 00 00 00    	mov    $0x10,%r9d
    22d1:	41 bc 14 00 00 00    	mov    $0x14,%r12d
    22d7:	45 89 d5             	mov    %r10d,%r13d
    22da:	46 8b 6c 2f 10       	mov    0x10(%rdi,%r13,1),%r13d
    22df:	41 39 cd             	cmp    %ecx,%r13d
    22e2:	0f ae e8             	lfence 
    22e5:	74 03                	je     22ea <guest_func_10+0x25a>
    22e7:	45 89 e1             	mov    %r12d,%r9d
    22ea:	45 01 d1             	add    %r10d,%r9d
    22ed:	45 89 c9             	mov    %r9d,%r9d
    22f0:	46 89 1c 0f          	mov    %r11d,(%rdi,%r9,1)
    22f4:	45 85 db             	test   %r11d,%r11d
    22f7:	0f 84 8b 00 00 00    	je     2388 <guest_func_10+0x2f8>
    22fd:	45 89 d9             	mov    %r11d,%r9d
    2300:	46 89 54 0f 18       	mov    %r10d,0x18(%rdi,%r9,1)
    2305:	44 8b 54 17 10       	mov    0x10(%rdi,%rdx,1),%r10d
    230a:	0f ae e8             	lfence 
    230d:	45 85 d2             	test   %r10d,%r10d
    2310:	74 0d                	je     231f <guest_func_10+0x28f>
    2312:	46 89 54 0f 10       	mov    %r10d,0x10(%rdi,%r9,1)
    2317:	45 89 d1             	mov    %r10d,%r9d
    231a:	46 89 5c 0f 18       	mov    %r11d,0x18(%rdi,%r9,1)
    231f:	8b 54 17 14          	mov    0x14(%rdi,%rdx,1),%edx
    2323:	0f ae e8             	lfence 
    2326:	85 d2                	test   %edx,%edx
    2328:	74 5e                	je     2388 <guest_func_10+0x2f8>
    232a:	45 89 d9             	mov    %r11d,%r9d
    232d:	41 83 c1 14          	add    $0x14,%r9d
    2331:	45 89 c9             	mov    %r9d,%r9d
    2334:	42 89 14 0f          	mov    %edx,(%rdi,%r9,1)
    2338:	89 d2                	mov    %edx,%edx
    233a:	44 89 5c 17 18       	mov    %r11d,0x18(%rdi,%rdx,1)
    233f:	eb 47                	jmp    2388 <guest_func_10+0x2f8>
    2341:	89 f2                	mov    %esi,%edx
    2343:	44 8b 4c 17 04       	mov    0x4(%rdi,%rdx,1),%r9d
    2348:	45 89 ca             	mov    %r9d,%r10d
    234b:	41 83 e2 03          	and    $0x3,%r10d
    234f:	41 83 fa 03          	cmp    $0x3,%r10d
    2353:	0f ae e8             	lfence 
    2356:	75 30                	jne    2388 <guest_func_10+0x2f8>
    2358:	41 83 e1 fe          	and    $0xfffffffe,%r9d
    235c:	44 89 4c 17 04       	mov    %r9d,0x4(%rdi,%rdx,1)
    2361:	b8 08 05 00 00       	mov    $0x508,%eax
    2366:	89 c0                	mov    %eax,%eax
    2368:	89 1c 07             	mov    %ebx,(%rdi,%rax,1)
    236b:	89 d8                	mov    %ebx,%eax
    236d:	01 c8                	add    %ecx,%eax
    236f:	89 c0                	mov    %eax,%eax
    2371:	89 1c 07             	mov    %ebx,(%rdi,%rax,1)
    2374:	83 cb 01             	or     $0x1,%ebx
    2377:	89 c8                	mov    %ecx,%eax
    2379:	89 5c 07 04          	mov    %ebx,0x4(%rdi,%rax,1)
    237d:	41 5f                	pop    %r15
    237f:	41 5e                	pop    %r14
    2381:	41 5d                	pop    %r13
    2383:	41 5c                	pop    %r12
    2385:	5b                   	pop    %rbx
    2386:	5d                   	pop    %rbp
    2387:	c3                   	retq   
    2388:	39 ce                	cmp    %ecx,%esi
    238a:	0f 86 4b 06 00 00    	jbe    29db <guest_func_10+0x94b>
    2390:	89 f2                	mov    %esi,%edx
    2392:	44 8b 4c 17 04       	mov    0x4(%rdi,%rdx,1),%r9d
    2397:	0f ae e8             	lfence 
    239a:	45 89 ca             	mov    %r9d,%r10d
    239d:	41 83 e2 01          	and    $0x1,%r10d
    23a1:	45 85 d2             	test   %r10d,%r10d
    23a4:	0f 84 31 06 00 00    	je     29db <guest_func_10+0x94b>
    23aa:	45 89 ca             	mov    %r9d,%r10d
    23ad:	41 83 e2 02          	and    $0x2,%r10d
    23b1:	45 85 d2             	test   %r10d,%r10d
    23b4:	0f 85 40 03 00 00    	jne    26fa <guest_func_10+0x66a>
    23ba:	41 ba 18 05 00 00    	mov    $0x518,%r10d
    23c0:	45 89 d2             	mov    %r10d,%r10d
    23c3:	46 8b 14 17          	mov    (%rdi,%r10,1),%r10d
    23c7:	44 39 d6             	cmp    %r10d,%esi
    23ca:	0f ae e8             	lfence 
    23cd:	75 4f                	jne    241e <guest_func_10+0x38e>
    23cf:	ba 18 05 00 00       	mov    $0x518,%edx
    23d4:	89 d2                	mov    %edx,%edx
    23d6:	89 0c 17             	mov    %ecx,(%rdi,%rdx,1)
    23d9:	ba 0c 05 00 00       	mov    $0x50c,%edx
    23de:	89 d2                	mov    %edx,%edx
    23e0:	8b 34 17             	mov    (%rdi,%rdx,1),%esi
    23e3:	01 de                	add    %ebx,%esi
    23e5:	89 34 17             	mov    %esi,(%rdi,%rdx,1)
    23e8:	83 ce 01             	or     $0x1,%esi
    23eb:	89 ca                	mov    %ecx,%edx
    23ed:	89 74 17 04          	mov    %esi,0x4(%rdi,%rdx,1)
    23f1:	ba 14 05 00 00       	mov    $0x514,%edx
    23f6:	89 d2                	mov    %edx,%edx
    23f8:	8b 1c 17             	mov    (%rdi,%rdx,1),%ebx
    23fb:	39 cb                	cmp    %ecx,%ebx
    23fd:	0f ae e8             	lfence 
    2400:	0f 85 d5 05 00 00    	jne    29db <guest_func_10+0x94b>
    2406:	b9 08 05 00 00       	mov    $0x508,%ecx
    240b:	89 c9                	mov    %ecx,%ecx
    240d:	89 04 0f             	mov    %eax,(%rdi,%rcx,1)
    2410:	89 04 17             	mov    %eax,(%rdi,%rdx,1)
    2413:	41 5f                	pop    %r15
    2415:	41 5e                	pop    %r14
    2417:	41 5d                	pop    %r13
    2419:	41 5c                	pop    %r12
    241b:	5b                   	pop    %rbx
    241c:	5d                   	pop    %rbp
    241d:	c3                   	retq   
    241e:	41 ba 14 05 00 00    	mov    $0x514,%r10d
    2424:	45 89 d2             	mov    %r10d,%r10d
    2427:	46 8b 1c 17          	mov    (%rdi,%r10,1),%r11d
    242b:	44 39 de             	cmp    %r11d,%esi
    242e:	0f ae e8             	lfence 
    2431:	75 3b                	jne    246e <guest_func_10+0x3de>
    2433:	b8 14 05 00 00       	mov    $0x514,%eax
    2438:	89 c0                	mov    %eax,%eax
    243a:	89 0c 07             	mov    %ecx,(%rdi,%rax,1)
    243d:	b8 08 05 00 00       	mov    $0x508,%eax
    2442:	89 c0                	mov    %eax,%eax
    2444:	8b 14 07             	mov    (%rdi,%rax,1),%edx
    2447:	01 da                	add    %ebx,%edx
    2449:	89 14 07             	mov    %edx,(%rdi,%rax,1)
    244c:	89 d0                	mov    %edx,%eax
    244e:	83 c8 01             	or     $0x1,%eax
    2451:	89 cb                	mov    %ecx,%ebx
    2453:	89 44 1f 04          	mov    %eax,0x4(%rdi,%rbx,1)
    2457:	89 d0                	mov    %edx,%eax
    2459:	01 c8                	add    %ecx,%eax
    245b:	89 c0                	mov    %eax,%eax
    245d:	0f ae e8             	lfence 
    2460:	89 14 07             	mov    %edx,(%rdi,%rax,1)
    2463:	41 5f                	pop    %r15
    2465:	41 5e                	pop    %r14
    2467:	41 5d                	pop    %r13
    2469:	41 5c                	pop    %r12
    246b:	5b                   	pop    %rbx
    246c:	5d                   	pop    %rbp
    246d:	c3                   	retq   
    246e:	45 89 cb             	mov    %r9d,%r11d
    2471:	41 83 e3 f8          	and    $0xfffffff8,%r11d
    2475:	41 01 db             	add    %ebx,%r11d
    2478:	41 81 f9 ff 00 00 00 	cmp    $0xff,%r9d
    247f:	0f 87 82 00 00 00    	ja     2507 <guest_func_10+0x477>
    2485:	8b 5c 17 0c          	mov    0xc(%rdi,%rdx,1),%ebx
    2489:	0f ae e8             	lfence 
    248c:	8b 54 17 08          	mov    0x8(%rdi,%rdx,1),%edx
    2490:	0f ae e8             	lfence 
    2493:	44 89 ce             	mov    %r9d,%esi
    2496:	c1 ee 03             	shr    $0x3,%esi
    2499:	41 89 f1             	mov    %esi,%r9d
    249c:	41 c1 e1 03          	shl    $0x3,%r9d
    24a0:	41 81 c1 28 05 00 00 	add    $0x528,%r9d
    24a7:	44 39 ca             	cmp    %r9d,%edx
    24aa:	74 0d                	je     24b9 <guest_func_10+0x429>
    24ac:	41 bc 10 05 00 00    	mov    $0x510,%r12d
    24b2:	45 89 e4             	mov    %r12d,%r12d
    24b5:	46 8b 24 27          	mov    (%rdi,%r12,1),%r12d
    24b9:	39 d3                	cmp    %edx,%ebx
    24bb:	75 2a                	jne    24e7 <guest_func_10+0x457>
    24bd:	ba 00 05 00 00       	mov    $0x500,%edx
    24c2:	89 d2                	mov    %edx,%edx
    24c4:	8b 1c 17             	mov    (%rdi,%rdx,1),%ebx
    24c7:	41 b9 fe ff ff ff    	mov    $0xfffffffe,%r9d
    24cd:	41 89 cc             	mov    %ecx,%r12d
    24d0:	40 89 f1             	rex mov %esi,%ecx
    24d3:	44 89 e6             	mov    %r12d,%esi
    24d6:	41 d3 c1             	rol    %cl,%r9d
    24d9:	44 21 cb             	and    %r9d,%ebx
    24dc:	89 1c 17             	mov    %ebx,(%rdi,%rdx,1)
    24df:	40 89 f1             	rex mov %esi,%ecx
    24e2:	e9 d7 01 00 00       	jmpq   26be <guest_func_10+0x62e>
    24e7:	44 39 cb             	cmp    %r9d,%ebx
    24ea:	74 0a                	je     24f6 <guest_func_10+0x466>
    24ec:	be 10 05 00 00       	mov    $0x510,%esi
    24f1:	89 f6                	mov    %esi,%esi
    24f3:	8b 34 37             	mov    (%rdi,%rsi,1),%esi
    24f6:	89 de                	mov    %ebx,%esi
    24f8:	89 54 37 08          	mov    %edx,0x8(%rdi,%rsi,1)
    24fc:	89 d2                	mov    %edx,%edx
    24fe:	89 5c 17 0c          	mov    %ebx,0xc(%rdi,%rdx,1)
    2502:	e9 b7 01 00 00       	jmpq   26be <guest_func_10+0x62e>
    2507:	8b 5c 17 18          	mov    0x18(%rdi,%rdx,1),%ebx
    250b:	0f ae e8             	lfence 
    250e:	44 8b 4c 17 0c       	mov    0xc(%rdi,%rdx,1),%r9d
    2513:	0f ae e8             	lfence 
    2516:	41 39 f1             	cmp    %esi,%r9d
    2519:	74 41                	je     255c <guest_func_10+0x4cc>
    251b:	41 bc 10 05 00 00    	mov    $0x510,%r12d
    2521:	45 89 e4             	mov    %r12d,%r12d
    2524:	46 8b 24 27          	mov    (%rdi,%r12,1),%r12d
    2528:	44 8b 6c 17 08       	mov    0x8(%rdi,%rdx,1),%r13d
    252d:	0f ae e8             	lfence 
    2530:	45 39 ec             	cmp    %r13d,%r12d
    2533:	0f ae e8             	lfence 
    2536:	0f 87 08 00 00 00    	ja     2544 <guest_func_10+0x4b4>
    253c:	45 89 ec             	mov    %r13d,%r12d
    253f:	46 8b 64 27 0c       	mov    0xc(%rdi,%r12,1),%r12d
    2544:	45 89 cc             	mov    %r9d,%r12d
    2547:	46 89 6c 27 08       	mov    %r13d,0x8(%rdi,%r12,1)
    254c:	45 89 ec             	mov    %r13d,%r12d
    254f:	46 89 4c 27 0c       	mov    %r9d,0xc(%rdi,%r12,1)
    2554:	45 89 cc             	mov    %r9d,%r12d
    2557:	e9 91 00 00 00       	jmpq   25ed <guest_func_10+0x55d>
    255c:	41 89 f1             	mov    %esi,%r9d
    255f:	41 83 c1 14          	add    $0x14,%r9d
    2563:	45 89 cc             	mov    %r9d,%r12d
    2566:	46 8b 24 27          	mov    (%rdi,%r12,1),%r12d
    256a:	0f ae e8             	lfence 
    256d:	45 85 e4             	test   %r12d,%r12d
    2570:	75 22                	jne    2594 <guest_func_10+0x504>
    2572:	41 89 f1             	mov    %esi,%r9d
    2575:	41 83 c1 10          	add    $0x10,%r9d
    2579:	45 89 cc             	mov    %r9d,%r12d
    257c:	46 8b 24 27          	mov    (%rdi,%r12,1),%r12d
    2580:	0f ae e8             	lfence 
    2583:	45 85 e4             	test   %r12d,%r12d
    2586:	0f 85 08 00 00 00    	jne    2594 <guest_func_10+0x504>
    258c:	41 89 c1             	mov    %eax,%r9d
    258f:	45 89 cc             	mov    %r9d,%r12d
    2592:	eb 59                	jmp    25ed <guest_func_10+0x55d>
    2594:	eb 23                	jmp    25b9 <guest_func_10+0x529>
    2596:	45 89 f1             	mov    %r14d,%r9d
    2599:	45 89 ec             	mov    %r13d,%r12d
    259c:	45 89 e7             	mov    %r12d,%r15d
    259f:	45 89 cc             	mov    %r9d,%r12d
    25a2:	45 89 f9             	mov    %r15d,%r9d
    25a5:	e9 0f 00 00 00       	jmpq   25b9 <guest_func_10+0x529>
    25aa:	45 89 f1             	mov    %r14d,%r9d
    25ad:	45 89 ec             	mov    %r13d,%r12d
    25b0:	45 89 e7             	mov    %r12d,%r15d
    25b3:	45 89 cc             	mov    %r9d,%r12d
    25b6:	45 89 f9             	mov    %r15d,%r9d
    25b9:	45 89 e5             	mov    %r12d,%r13d
    25bc:	41 83 c5 14          	add    $0x14,%r13d
    25c0:	45 89 ee             	mov    %r13d,%r14d
    25c3:	46 8b 34 37          	mov    (%rdi,%r14,1),%r14d
    25c7:	0f ae e8             	lfence 
    25ca:	45 85 f6             	test   %r14d,%r14d
    25cd:	75 c7                	jne    2596 <guest_func_10+0x506>
    25cf:	45 89 e5             	mov    %r12d,%r13d
    25d2:	41 83 c5 10          	add    $0x10,%r13d
    25d6:	45 89 e6             	mov    %r12d,%r14d
    25d9:	46 8b 74 37 10       	mov    0x10(%rdi,%r14,1),%r14d
    25de:	0f ae e8             	lfence 
    25e1:	45 85 f6             	test   %r14d,%r14d
    25e4:	75 c4                	jne    25aa <guest_func_10+0x51a>
    25e6:	45 89 c9             	mov    %r9d,%r9d
    25e9:	42 89 04 0f          	mov    %eax,(%rdi,%r9,1)
    25ed:	85 db                	test   %ebx,%ebx
    25ef:	0f 84 c9 00 00 00    	je     26be <guest_func_10+0x62e>
    25f5:	44 8b 4c 17 1c       	mov    0x1c(%rdi,%rdx,1),%r9d
    25fa:	45 89 cd             	mov    %r9d,%r13d
    25fd:	41 c1 e5 02          	shl    $0x2,%r13d
    2601:	41 81 c5 30 06 00 00 	add    $0x630,%r13d
    2608:	0f ae e8             	lfence 
    260b:	45 89 ed             	mov    %r13d,%r13d
    260e:	46 8b 34 2f          	mov    (%rdi,%r13,1),%r14d
    2612:	44 39 f6             	cmp    %r14d,%esi
    2615:	0f ae e8             	lfence 
    2618:	75 2d                	jne    2647 <guest_func_10+0x5b7>
    261a:	46 89 24 2f          	mov    %r12d,(%rdi,%r13,1)
    261e:	45 85 e4             	test   %r12d,%r12d
    2621:	75 59                	jne    267c <guest_func_10+0x5ec>
    2623:	ba 04 05 00 00       	mov    $0x504,%edx
    2628:	89 d2                	mov    %edx,%edx
    262a:	8b 1c 17             	mov    (%rdi,%rdx,1),%ebx
    262d:	be fe ff ff ff       	mov    $0xfffffffe,%esi
    2632:	41 89 cc             	mov    %ecx,%r12d
    2635:	44 89 c9             	mov    %r9d,%ecx
    2638:	45 89 e1             	mov    %r12d,%r9d
    263b:	d3 c6                	rol    %cl,%esi
    263d:	21 f3                	and    %esi,%ebx
    263f:	89 1c 17             	mov    %ebx,(%rdi,%rdx,1)
    2642:	44 89 c9             	mov    %r9d,%ecx
    2645:	eb 77                	jmp    26be <guest_func_10+0x62e>
    2647:	41 b9 10 00 00 00    	mov    $0x10,%r9d
    264d:	41 bd 14 00 00 00    	mov    $0x14,%r13d
    2653:	41 89 de             	mov    %ebx,%r14d
    2656:	46 8b 74 37 10       	mov    0x10(%rdi,%r14,1),%r14d
    265b:	41 39 f6             	cmp    %esi,%r14d
    265e:	0f ae e8             	lfence 
    2661:	0f 84 06 00 00 00    	je     266d <guest_func_10+0x5dd>
    2667:	44 89 ee             	mov    %r13d,%esi
    266a:	41 89 f1             	mov    %esi,%r9d
    266d:	41 01 d9             	add    %ebx,%r9d
    2670:	44 89 ce             	mov    %r9d,%esi
    2673:	44 89 24 37          	mov    %r12d,(%rdi,%rsi,1)
    2677:	45 85 e4             	test   %r12d,%r12d
    267a:	74 42                	je     26be <guest_func_10+0x62e>
    267c:	44 89 e6             	mov    %r12d,%esi
    267f:	89 5c 37 18          	mov    %ebx,0x18(%rdi,%rsi,1)
    2683:	8b 5c 17 10          	mov    0x10(%rdi,%rdx,1),%ebx
    2687:	0f ae e8             	lfence 
    268a:	85 db                	test   %ebx,%ebx
    268c:	0f 84 0b 00 00 00    	je     269d <guest_func_10+0x60d>
    2692:	89 5c 37 10          	mov    %ebx,0x10(%rdi,%rsi,1)
    2696:	89 db                	mov    %ebx,%ebx
    2698:	44 89 64 1f 18       	mov    %r12d,0x18(%rdi,%rbx,1)
    269d:	8b 54 17 14          	mov    0x14(%rdi,%rdx,1),%edx
    26a1:	0f ae e8             	lfence 
    26a4:	85 d2                	test   %edx,%edx
    26a6:	0f 84 12 00 00 00    	je     26be <guest_func_10+0x62e>
    26ac:	44 89 e3             	mov    %r12d,%ebx
    26af:	83 c3 14             	add    $0x14,%ebx
    26b2:	89 db                	mov    %ebx,%ebx
    26b4:	89 14 1f             	mov    %edx,(%rdi,%rbx,1)
    26b7:	89 d2                	mov    %edx,%edx
    26b9:	44 89 64 17 18       	mov    %r12d,0x18(%rdi,%rdx,1)
    26be:	44 89 da             	mov    %r11d,%edx
    26c1:	01 ca                	add    %ecx,%edx
    26c3:	89 d2                	mov    %edx,%edx
    26c5:	44 89 1c 17          	mov    %r11d,(%rdi,%rdx,1)
    26c9:	44 89 da             	mov    %r11d,%edx
    26cc:	83 ca 01             	or     $0x1,%edx
    26cf:	89 cb                	mov    %ecx,%ebx
    26d1:	89 54 1f 04          	mov    %edx,0x4(%rdi,%rbx,1)
    26d5:	42 8b 14 17          	mov    (%rdi,%r10,1),%edx
    26d9:	39 ca                	cmp    %ecx,%edx
    26db:	0f ae e8             	lfence 
    26de:	0f 85 38 00 00 00    	jne    271c <guest_func_10+0x68c>
    26e4:	b8 08 05 00 00       	mov    $0x508,%eax
    26e9:	89 c0                	mov    %eax,%eax
    26eb:	44 89 1c 07          	mov    %r11d,(%rdi,%rax,1)
    26ef:	41 5f                	pop    %r15
    26f1:	41 5e                	pop    %r14
    26f3:	41 5d                	pop    %r13
    26f5:	41 5c                	pop    %r12
    26f7:	5b                   	pop    %rbx
    26f8:	5d                   	pop    %rbp
    26f9:	c3                   	retq   
    26fa:	41 83 e1 fe          	and    $0xfffffffe,%r9d
    26fe:	44 89 4c 17 04       	mov    %r9d,0x4(%rdi,%rdx,1)
    2703:	89 da                	mov    %ebx,%edx
    2705:	01 ca                	add    %ecx,%edx
    2707:	89 d2                	mov    %edx,%edx
    2709:	89 1c 17             	mov    %ebx,(%rdi,%rdx,1)
    270c:	89 da                	mov    %ebx,%edx
    270e:	83 ca 01             	or     $0x1,%edx
    2711:	89 ce                	mov    %ecx,%esi
    2713:	89 54 37 04          	mov    %edx,0x4(%rdi,%rsi,1)
    2717:	e9 03 00 00 00       	jmpq   271f <guest_func_10+0x68f>
    271c:	44 89 db             	mov    %r11d,%ebx
    271f:	81 fb ff 00 00 00    	cmp    $0xff,%ebx
    2725:	77 75                	ja     279c <guest_func_10+0x70c>
    2727:	c1 eb 03             	shr    $0x3,%ebx
    272a:	89 d8                	mov    %ebx,%eax
    272c:	c1 e0 03             	shl    $0x3,%eax
    272f:	81 c0 28 05 00 00    	add    $0x528,%eax
    2735:	ba 00 05 00 00       	mov    $0x500,%edx
    273a:	89 d2                	mov    %edx,%edx
    273c:	8b 34 17             	mov    (%rdi,%rdx,1),%esi
    273f:	41 89 c9             	mov    %ecx,%r9d
    2742:	40 89 d9             	rex mov %ebx,%ecx
    2745:	44 89 cb             	mov    %r9d,%ebx
    2748:	41 d3 e0             	shl    %cl,%r8d
    274b:	89 f1                	mov    %esi,%ecx
    274d:	44 21 c1             	and    %r8d,%ecx
    2750:	41 89 c9             	mov    %ecx,%r9d
    2753:	40 89 d9             	rex mov %ebx,%ecx
    2756:	44 89 cb             	mov    %r9d,%ebx
    2759:	0f ae e8             	lfence 
    275c:	85 db                	test   %ebx,%ebx
    275e:	0f 85 0e 00 00 00    	jne    2772 <guest_func_10+0x6e2>
    2764:	41 09 f0             	or     %esi,%r8d
    2767:	44 89 04 17          	mov    %r8d,(%rdi,%rdx,1)
    276b:	89 c2                	mov    %eax,%edx
    276d:	e9 06 00 00 00       	jmpq   2778 <guest_func_10+0x6e8>
    2772:	89 c2                	mov    %eax,%edx
    2774:	8b 54 17 08          	mov    0x8(%rdi,%rdx,1),%edx
    2778:	89 d3                	mov    %edx,%ebx
    277a:	0f ae e8             	lfence 
    277d:	89 4c 1f 0c          	mov    %ecx,0xc(%rdi,%rbx,1)
    2781:	89 c3                	mov    %eax,%ebx
    2783:	89 4c 1f 08          	mov    %ecx,0x8(%rdi,%rbx,1)
    2787:	89 c9                	mov    %ecx,%ecx
    2789:	89 44 0f 0c          	mov    %eax,0xc(%rdi,%rcx,1)
    278d:	89 54 0f 08          	mov    %edx,0x8(%rdi,%rcx,1)
    2791:	41 5f                	pop    %r15
    2793:	41 5e                	pop    %r14
    2795:	41 5d                	pop    %r13
    2797:	41 5c                	pop    %r12
    2799:	5b                   	pop    %rbx
    279a:	5d                   	pop    %rbp
    279b:	c3                   	retq   
    279c:	31 d2                	xor    %edx,%edx
    279e:	89 ce                	mov    %ecx,%esi
    27a0:	48 89 54 37 10       	mov    %rdx,0x10(%rdi,%rsi,1)
    27a5:	89 ca                	mov    %ecx,%edx
    27a7:	83 c2 1c             	add    $0x1c,%edx
    27aa:	41 89 d9             	mov    %ebx,%r9d
    27ad:	41 c1 e9 08          	shr    $0x8,%r9d
    27b1:	45 85 c9             	test   %r9d,%r9d
    27b4:	0f 84 a5 00 00 00    	je     285f <guest_func_10+0x7cf>
    27ba:	41 ba 1f 00 00 00    	mov    $0x1f,%r10d
    27c0:	81 fb ff ff ff 00    	cmp    $0xffffff,%ebx
    27c6:	0f 87 9b 00 00 00    	ja     2867 <guest_func_10+0x7d7>
    27cc:	45 89 ca             	mov    %r9d,%r10d
    27cf:	41 81 c2 00 ff 0f 00 	add    $0xfff00,%r10d
    27d6:	41 c1 ea 10          	shr    $0x10,%r10d
    27da:	41 83 e2 08          	and    $0x8,%r10d
    27de:	41 89 cb             	mov    %ecx,%r11d
    27e1:	44 89 d1             	mov    %r10d,%ecx
    27e4:	45 89 da             	mov    %r11d,%r10d
    27e7:	41 d3 e1             	shl    %cl,%r9d
    27ea:	45 89 cb             	mov    %r9d,%r11d
    27ed:	41 81 c3 00 f0 07 00 	add    $0x7f000,%r11d
    27f4:	41 c1 eb 10          	shr    $0x10,%r11d
    27f8:	41 83 e3 04          	and    $0x4,%r11d
    27fc:	41 89 cc             	mov    %ecx,%r12d
    27ff:	44 89 d9             	mov    %r11d,%ecx
    2802:	45 89 e3             	mov    %r12d,%r11d
    2805:	41 d3 e1             	shl    %cl,%r9d
    2808:	45 89 cc             	mov    %r9d,%r12d
    280b:	41 81 c4 00 c0 03 00 	add    $0x3c000,%r12d
    2812:	41 c1 ec 10          	shr    $0x10,%r12d
    2816:	41 83 e4 02          	and    $0x2,%r12d
    281a:	41 89 cd             	mov    %ecx,%r13d
    281d:	44 89 e1             	mov    %r12d,%ecx
    2820:	45 89 ec             	mov    %r13d,%r12d
    2823:	41 d3 e1             	shl    %cl,%r9d
    2826:	41 c1 e9 0f          	shr    $0xf,%r9d
    282a:	45 09 dc             	or     %r11d,%r12d
    282d:	41 09 cc             	or     %ecx,%r12d
    2830:	45 29 e1             	sub    %r12d,%r9d
    2833:	44 89 c9             	mov    %r9d,%ecx
    2836:	c1 e1 01             	shl    $0x1,%ecx
    2839:	41 83 c1 15          	add    $0x15,%r9d
    283d:	41 89 db             	mov    %ebx,%r11d
    2840:	41 89 cc             	mov    %ecx,%r12d
    2843:	44 89 c9             	mov    %r9d,%ecx
    2846:	45 89 e1             	mov    %r12d,%r9d
    2849:	41 d3 eb             	shr    %cl,%r11d
    284c:	41 83 e3 01          	and    $0x1,%r11d
    2850:	45 09 d9             	or     %r11d,%r9d
    2853:	41 83 c1 1c          	add    $0x1c,%r9d
    2857:	44 89 d1             	mov    %r10d,%ecx
    285a:	e9 0b 00 00 00       	jmpq   286a <guest_func_10+0x7da>
    285f:	41 89 c1             	mov    %eax,%r9d
    2862:	e9 03 00 00 00       	jmpq   286a <guest_func_10+0x7da>
    2867:	45 89 d1             	mov    %r10d,%r9d
    286a:	89 d2                	mov    %edx,%edx
    286c:	44 89 0c 17          	mov    %r9d,(%rdi,%rdx,1)
    2870:	44 89 ca             	mov    %r9d,%edx
    2873:	c1 e2 02             	shl    $0x2,%edx
    2876:	81 c2 30 06 00 00    	add    $0x630,%edx
    287c:	41 ba 04 05 00 00    	mov    $0x504,%r10d
    2882:	45 89 d2             	mov    %r10d,%r10d
    2885:	46 8b 1c 17          	mov    (%rdi,%r10,1),%r11d
    2889:	45 89 c4             	mov    %r8d,%r12d
    288c:	41 89 c8             	mov    %ecx,%r8d
    288f:	44 89 c9             	mov    %r9d,%ecx
    2892:	41 d3 e4             	shl    %cl,%r12d
    2895:	45 89 d9             	mov    %r11d,%r9d
    2898:	45 21 e1             	and    %r12d,%r9d
    289b:	45 89 cd             	mov    %r9d,%r13d
    289e:	41 89 c9             	mov    %ecx,%r9d
    28a1:	44 89 c1             	mov    %r8d,%ecx
    28a4:	45 89 e8             	mov    %r13d,%r8d
    28a7:	0f ae e8             	lfence 
    28aa:	45 85 c0             	test   %r8d,%r8d
    28ad:	0f 85 23 00 00 00    	jne    28d6 <guest_func_10+0x846>
    28b3:	89 d0                	mov    %edx,%eax
    28b5:	89 0c 07             	mov    %ecx,(%rdi,%rax,1)
    28b8:	45 09 e3             	or     %r12d,%r11d
    28bb:	46 89 1c 17          	mov    %r11d,(%rdi,%r10,1)
    28bf:	89 c8                	mov    %ecx,%eax
    28c1:	83 c0 18             	add    $0x18,%eax
    28c4:	89 c0                	mov    %eax,%eax
    28c6:	89 14 07             	mov    %edx,(%rdi,%rax,1)
    28c9:	89 4c 37 08          	mov    %ecx,0x8(%rdi,%rsi,1)
    28cd:	89 4c 37 0c          	mov    %ecx,0xc(%rdi,%rsi,1)
    28d1:	e9 c4 00 00 00       	jmpq   299a <guest_func_10+0x90a>
    28d6:	41 b8 19 00 00 00    	mov    $0x19,%r8d
    28dc:	45 89 ca             	mov    %r9d,%r10d
    28df:	41 c1 ea 01          	shr    $0x1,%r10d
    28e3:	45 29 d0             	sub    %r10d,%r8d
    28e6:	41 83 f9 1f          	cmp    $0x1f,%r9d
    28ea:	0f 84 05 00 00 00    	je     28f5 <guest_func_10+0x865>
    28f0:	e9 03 00 00 00       	jmpq   28f8 <guest_func_10+0x868>
    28f5:	41 89 c0             	mov    %eax,%r8d
    28f8:	41 89 d9             	mov    %ebx,%r9d
    28fb:	41 89 ca             	mov    %ecx,%r10d
    28fe:	44 89 c1             	mov    %r8d,%ecx
    2901:	45 89 d0             	mov    %r10d,%r8d
    2904:	41 d3 e1             	shl    %cl,%r9d
    2907:	89 d1                	mov    %edx,%ecx
    2909:	8b 0c 0f             	mov    (%rdi,%rcx,1),%ecx
    290c:	40 89 ca             	rex mov %ecx,%edx
    290f:	44 89 c1             	mov    %r8d,%ecx
    2912:	e9 03 00 00 00       	jmpq   291a <guest_func_10+0x88a>
    2917:	44 89 d2             	mov    %r10d,%edx
    291a:	0f ae e8             	lfence 
    291d:	41 89 d0             	mov    %edx,%r8d
    2920:	46 8b 54 07 04       	mov    0x4(%rdi,%r8,1),%r10d
    2925:	41 83 e2 f8          	and    $0xfffffff8,%r10d
    2929:	41 39 da             	cmp    %ebx,%r10d
    292c:	0f ae e8             	lfence 
    292f:	0f 84 40 00 00 00    	je     2975 <guest_func_10+0x8e5>
    2935:	45 89 c8             	mov    %r9d,%r8d
    2938:	41 c1 e8 1d          	shr    $0x1d,%r8d
    293c:	41 c1 e1 01          	shl    $0x1,%r9d
    2940:	41 83 e0 04          	and    $0x4,%r8d
    2944:	41 01 d0             	add    %edx,%r8d
    2947:	41 83 c0 10          	add    $0x10,%r8d
    294b:	45 89 c0             	mov    %r8d,%r8d
    294e:	46 8b 14 07          	mov    (%rdi,%r8,1),%r10d
    2952:	0f ae e8             	lfence 
    2955:	45 85 d2             	test   %r10d,%r10d
    2958:	75 bd                	jne    2917 <guest_func_10+0x887>
    295a:	42 89 0c 07          	mov    %ecx,(%rdi,%r8,1)
    295e:	89 c8                	mov    %ecx,%eax
    2960:	83 c0 18             	add    $0x18,%eax
    2963:	89 c0                	mov    %eax,%eax
    2965:	89 14 07             	mov    %edx,(%rdi,%rax,1)
    2968:	89 4c 37 0c          	mov    %ecx,0xc(%rdi,%rsi,1)
    296c:	89 4c 37 08          	mov    %ecx,0x8(%rdi,%rsi,1)
    2970:	e9 25 00 00 00       	jmpq   299a <guest_func_10+0x90a>
    2975:	42 8b 5c 07 08       	mov    0x8(%rdi,%r8,1),%ebx
    297a:	42 89 4c 07 08       	mov    %ecx,0x8(%rdi,%r8,1)
    297f:	41 89 d8             	mov    %ebx,%r8d
    2982:	0f ae e8             	lfence 
    2985:	42 89 4c 07 0c       	mov    %ecx,0xc(%rdi,%r8,1)
    298a:	83 c1 18             	add    $0x18,%ecx
    298d:	89 c9                	mov    %ecx,%ecx
    298f:	89 04 0f             	mov    %eax,(%rdi,%rcx,1)
    2992:	89 5c 37 08          	mov    %ebx,0x8(%rdi,%rsi,1)
    2996:	89 54 37 0c          	mov    %edx,0xc(%rdi,%rsi,1)
    299a:	b8 20 05 00 00       	mov    $0x520,%eax
    299f:	89 c0                	mov    %eax,%eax
    29a1:	8b 0c 07             	mov    (%rdi,%rax,1),%ecx
    29a4:	ba ff ff ff ff       	mov    $0xffffffff,%edx
    29a9:	83 c1 ff             	add    $0xffffffff,%ecx
    29ac:	89 0c 07             	mov    %ecx,(%rdi,%rax,1)
    29af:	0f ae e8             	lfence 
    29b2:	85 c9                	test   %ecx,%ecx
    29b4:	0f 85 21 00 00 00    	jne    29db <guest_func_10+0x94b>
    29ba:	b9 c8 06 00 00       	mov    $0x6c8,%ecx
    29bf:	e9 03 00 00 00       	jmpq   29c7 <guest_func_10+0x937>
    29c4:	40 89 d9             	rex mov %ebx,%ecx
    29c7:	89 c9                	mov    %ecx,%ecx
    29c9:	8b 0c 0f             	mov    (%rdi,%rcx,1),%ecx
    29cc:	0f ae e8             	lfence 
    29cf:	89 cb                	mov    %ecx,%ebx
    29d1:	83 c3 08             	add    $0x8,%ebx
    29d4:	85 c9                	test   %ecx,%ecx
    29d6:	75 ec                	jne    29c4 <guest_func_10+0x934>
    29d8:	89 14 07             	mov    %edx,(%rdi,%rax,1)
    29db:	41 5f                	pop    %r15
    29dd:	41 5e                	pop    %r14
    29df:	41 5d                	pop    %r13
    29e1:	41 5c                	pop    %r12
    29e3:	5b                   	pop    %rbx
    29e4:	5d                   	pop    %rbp
    29e5:	c3                   	retq   
	...

00000000000029f0 <guest_func_blake2b_init>:
    29f0:	55                   	push   %rbp
    29f1:	48 89 e5             	mov    %rsp,%rbp
    29f4:	53                   	push   %rbx
    29f5:	41 54                	push   %r12
    29f7:	41 55                	push   %r13
    29f9:	41 56                	push   %r14
    29fb:	41 57                	push   %r15
    29fd:	48 83 ec 38          	sub    $0x38,%rsp
    2a01:	48 89 bc 24 18 00 00 	mov    %rdi,0x18(%rsp)
    2a08:	00 
    2a09:	89 b4 24 34 00 00 00 	mov    %esi,0x34(%rsp)
    2a10:	89 8c 24 2c 00 00 00 	mov    %ecx,0x2c(%rsp)
    2a17:	44 89 84 24 28 00 00 	mov    %r8d,0x28(%rsp)
    2a1e:	00 
    2a1f:	31 c0                	xor    %eax,%eax
    2a21:	89 84 24 24 00 00 00 	mov    %eax,0x24(%rsp)
    2a28:	31 c0                	xor    %eax,%eax
    2a2a:	b9 ff ff ff ff       	mov    $0xffffffff,%ecx
    2a2f:	89 d3                	mov    %edx,%ebx
    2a31:	83 c3 ff             	add    $0xffffffff,%ebx
    2a34:	83 fb 3f             	cmp    $0x3f,%ebx
    2a37:	0f 87 8c 03 00 00    	ja     2dc9 <guest_func_blake2b_init+0x3d9>
    2a3d:	45 89 c7             	mov    %r8d,%r15d
    2a40:	41 83 ff 40          	cmp    $0x40,%r15d
    2a44:	0f 87 88 03 00 00    	ja     2dd2 <guest_func_blake2b_init+0x3e2>
    2a4a:	b9 80 00 00 00       	mov    $0x80,%ecx
    2a4f:	89 8c 24 30 00 00 00 	mov    %ecx,0x30(%rsp)
    2a56:	41 89 f7             	mov    %esi,%r15d
    2a59:	41 81 c7 80 00 00 00 	add    $0x80,%r15d
    2a60:	b9 00 04 00 00       	mov    $0x400,%ecx
    2a65:	89 c9                	mov    %ecx,%ecx
    2a67:	49 89 fe             	mov    %rdi,%r14
    2a6a:	49 8b 0c 0e          	mov    (%r14,%rcx,1),%rcx
    2a6e:	44 89 fb             	mov    %r15d,%ebx
    2a71:	49 89 ff             	mov    %rdi,%r15
    2a74:	49 89 0c 1f          	mov    %rcx,(%r15,%rbx,1)
    2a78:	41 89 f7             	mov    %esi,%r15d
    2a7b:	44 89 f9             	mov    %r15d,%ecx
    2a7e:	49 89 ff             	mov    %rdi,%r15
    2a81:	49 89 84 0f c0 00 00 	mov    %rax,0xc0(%r15,%rcx,1)
    2a88:	00 
    2a89:	41 89 f7             	mov    %esi,%r15d
    2a8c:	41 81 c7 b8 00 00 00 	add    $0xb8,%r15d
    2a93:	be 38 04 00 00       	mov    $0x438,%esi
    2a98:	89 f6                	mov    %esi,%esi
    2a9a:	49 8b 34 36          	mov    (%r14,%rsi,1),%rsi
    2a9e:	44 89 ff             	mov    %r15d,%edi
    2aa1:	4d 89 f7             	mov    %r14,%r15
    2aa4:	49 89 34 3f          	mov    %rsi,(%r15,%rdi,1)
    2aa8:	44 8b bc 24 34 00 00 	mov    0x34(%rsp),%r15d
    2aaf:	00 
    2ab0:	41 81 c7 b0 00 00 00 	add    $0xb0,%r15d
    2ab7:	be 30 04 00 00       	mov    $0x430,%esi
    2abc:	89 f6                	mov    %esi,%esi
    2abe:	49 8b 34 36          	mov    (%r14,%rsi,1),%rsi
    2ac2:	44 89 ff             	mov    %r15d,%edi
    2ac5:	4d 89 f7             	mov    %r14,%r15
    2ac8:	49 89 34 3f          	mov    %rsi,(%r15,%rdi,1)
    2acc:	44 8b bc 24 34 00 00 	mov    0x34(%rsp),%r15d
    2ad3:	00 
    2ad4:	41 81 c7 a8 00 00 00 	add    $0xa8,%r15d
    2adb:	be 28 04 00 00       	mov    $0x428,%esi
    2ae0:	89 f6                	mov    %esi,%esi
    2ae2:	49 8b 34 36          	mov    (%r14,%rsi,1),%rsi
    2ae6:	44 89 ff             	mov    %r15d,%edi
    2ae9:	4d 89 f7             	mov    %r14,%r15
    2aec:	49 89 34 3f          	mov    %rsi,(%r15,%rdi,1)
    2af0:	44 8b bc 24 34 00 00 	mov    0x34(%rsp),%r15d
    2af7:	00 
    2af8:	41 81 c7 a0 00 00 00 	add    $0xa0,%r15d
    2aff:	be 20 04 00 00       	mov    $0x420,%esi
    2b04:	89 f6                	mov    %esi,%esi
    2b06:	49 8b 34 36          	mov    (%r14,%rsi,1),%rsi
    2b0a:	44 89 ff             	mov    %r15d,%edi
    2b0d:	4d 89 f7             	mov    %r14,%r15
    2b10:	49 89 34 3f          	mov    %rsi,(%r15,%rdi,1)
    2b14:	44 8b bc 24 34 00 00 	mov    0x34(%rsp),%r15d
    2b1b:	00 
    2b1c:	41 81 c7 98 00 00 00 	add    $0x98,%r15d
    2b23:	be 18 04 00 00       	mov    $0x418,%esi
    2b28:	89 f6                	mov    %esi,%esi
    2b2a:	49 8b 34 36          	mov    (%r14,%rsi,1),%rsi
    2b2e:	44 89 ff             	mov    %r15d,%edi
    2b31:	4d 89 f7             	mov    %r14,%r15
    2b34:	49 89 34 3f          	mov    %rsi,(%r15,%rdi,1)
    2b38:	44 8b bc 24 34 00 00 	mov    0x34(%rsp),%r15d
    2b3f:	00 
    2b40:	41 81 c7 90 00 00 00 	add    $0x90,%r15d
    2b47:	be 10 04 00 00       	mov    $0x410,%esi
    2b4c:	89 f6                	mov    %esi,%esi
    2b4e:	49 8b 34 36          	mov    (%r14,%rsi,1),%rsi
    2b52:	44 89 ff             	mov    %r15d,%edi
    2b55:	4d 89 f7             	mov    %r14,%r15
    2b58:	49 89 34 3f          	mov    %rsi,(%r15,%rdi,1)
    2b5c:	44 8b bc 24 34 00 00 	mov    0x34(%rsp),%r15d
    2b63:	00 
    2b64:	41 81 c7 88 00 00 00 	add    $0x88,%r15d
    2b6b:	be 08 04 00 00       	mov    $0x408,%esi
    2b70:	89 f6                	mov    %esi,%esi
    2b72:	49 8b 34 36          	mov    (%r14,%rsi,1),%rsi
    2b76:	44 89 ff             	mov    %r15d,%edi
    2b79:	4d 89 f7             	mov    %r14,%r15
    2b7c:	49 89 34 3f          	mov    %rsi,(%r15,%rdi,1)
    2b80:	44 8b bc 24 34 00 00 	mov    0x34(%rsp),%r15d
    2b87:	00 
    2b88:	41 81 c7 c8 00 00 00 	add    $0xc8,%r15d
    2b8f:	44 89 fe             	mov    %r15d,%esi
    2b92:	4d 89 f7             	mov    %r14,%r15
    2b95:	49 89 04 37          	mov    %rax,(%r15,%rsi,1)
    2b99:	44 8b bc 24 34 00 00 	mov    0x34(%rsp),%r15d
    2ba0:	00 
    2ba1:	41 81 c7 d0 00 00 00 	add    $0xd0,%r15d
    2ba8:	44 89 f8             	mov    %r15d,%eax
    2bab:	44 8b bc 24 24 00 00 	mov    0x24(%rsp),%r15d
    2bb2:	00 
    2bb3:	45 89 3c 06          	mov    %r15d,(%r14,%rax,1)
    2bb7:	45 89 c7             	mov    %r8d,%r15d
    2bba:	41 c1 e7 08          	shl    $0x8,%r15d
    2bbe:	41 31 d7             	xor    %edx,%r15d
    2bc1:	41 81 f7 00 00 01 01 	xor    $0x1010000,%r15d
    2bc8:	44 89 f8             	mov    %r15d,%eax
    2bcb:	48 be 08 c9 bc f3 67 	movabs $0x6a09e667f3bcc908,%rsi
    2bd2:	e6 09 6a 
    2bd5:	48 31 f0             	xor    %rsi,%rax
    2bd8:	4d 89 f7             	mov    %r14,%r15
    2bdb:	49 89 04 1f          	mov    %rax,(%r15,%rbx,1)
    2bdf:	41 89 94 0f d4 00 00 	mov    %edx,0xd4(%r15,%rcx,1)
    2be6:	00 
    2be7:	44 8b bc 24 34 00 00 	mov    0x34(%rsp),%r15d
    2bee:	00 
    2bef:	45 89 c6             	mov    %r8d,%r14d
    2bf2:	45 01 f7             	add    %r14d,%r15d
    2bf5:	44 8b b4 24 30 00 00 	mov    0x30(%rsp),%r14d
    2bfc:	00 
    2bfd:	45 89 c5             	mov    %r8d,%r13d
    2c00:	45 29 ee             	sub    %r13d,%r14d
    2c03:	4c 8b ac 24 18 00 00 	mov    0x18(%rsp),%r13
    2c0a:	00 
    2c0b:	44 8b a4 24 24 00 00 	mov    0x24(%rsp),%r12d
    2c12:	00 
    2c13:	4c 89 ef             	mov    %r13,%rdi
    2c16:	44 89 fe             	mov    %r15d,%esi
    2c19:	44 89 e2             	mov    %r12d,%edx
    2c1c:	44 89 f1             	mov    %r14d,%ecx
    2c1f:	e8 6c 4d 00 00       	callq  7990 <guest_func_memset>
    2c24:	44 8b bc 24 28 00 00 	mov    0x28(%rsp),%r15d
    2c2b:	00 
    2c2c:	45 85 ff             	test   %r15d,%r15d
    2c2f:	0f 84 a4 01 00 00    	je     2dd9 <guest_func_blake2b_init+0x3e9>
    2c35:	44 8b bc 24 34 00 00 	mov    0x34(%rsp),%r15d
    2c3c:	00 
    2c3d:	41 81 c7 c0 00 00 00 	add    $0xc0,%r15d
    2c44:	44 89 f8             	mov    %r15d,%eax
    2c47:	48 89 84 24 10 00 00 	mov    %rax,0x10(%rsp)
    2c4e:	00 
    2c4f:	44 8b bc 24 24 00 00 	mov    0x24(%rsp),%r15d
    2c56:	00 
    2c57:	44 89 bc 24 20 00 00 	mov    %r15d,0x20(%rsp)
    2c5e:	00 
    2c5f:	44 8b bc 24 34 00 00 	mov    0x34(%rsp),%r15d
    2c66:	00 
    2c67:	44 89 f8             	mov    %r15d,%eax
    2c6a:	48 89 84 24 08 00 00 	mov    %rax,0x8(%rsp)
    2c71:	00 
    2c72:	4c 8b bc 24 18 00 00 	mov    0x18(%rsp),%r15
    2c79:	00 
    2c7a:	49 89 c6             	mov    %rax,%r14
    2c7d:	43 8b 84 37 d0 00 00 	mov    0xd0(%r15,%r14,1),%eax
    2c84:	00 
    2c85:	0f ae e8             	lfence 
    2c88:	81 f8 80 00 00 00    	cmp    $0x80,%eax
    2c8e:	0f 85 88 00 00 00    	jne    2d1c <guest_func_blake2b_init+0x32c>
    2c94:	4c 8b b4 24 10 00 00 	mov    0x10(%rsp),%r14
    2c9b:	00 
    2c9c:	4b 8b 04 37          	mov    (%r15,%r14,1),%rax
    2ca0:	48 89 c1             	mov    %rax,%rcx
    2ca3:	48 81 c1 80 00 00 00 	add    $0x80,%rcx
    2caa:	4b 89 0c 37          	mov    %rcx,(%r15,%r14,1)
    2cae:	48 83 f8 80          	cmp    $0xffffffffffffff80,%rax
    2cb2:	0f ae e8             	lfence 
    2cb5:	72 1c                	jb     2cd3 <guest_func_blake2b_init+0x2e3>
    2cb7:	4c 8b b4 24 08 00 00 	mov    0x8(%rsp),%r14
    2cbe:	00 
    2cbf:	4b 8b 84 37 c8 00 00 	mov    0xc8(%r15,%r14,1),%rax
    2cc6:	00 
    2cc7:	48 83 c0 01          	add    $0x1,%rax
    2ccb:	4b 89 84 37 c8 00 00 	mov    %rax,0xc8(%r15,%r14,1)
    2cd2:	00 
    2cd3:	4c 8b bc 24 18 00 00 	mov    0x18(%rsp),%r15
    2cda:	00 
    2cdb:	44 8b b4 24 34 00 00 	mov    0x34(%rsp),%r14d
    2ce2:	00 
    2ce3:	44 8b ac 24 24 00 00 	mov    0x24(%rsp),%r13d
    2cea:	00 
    2ceb:	4c 89 ff             	mov    %r15,%rdi
    2cee:	44 89 f6             	mov    %r14d,%esi
    2cf1:	44 89 ea             	mov    %r13d,%edx
    2cf4:	e8 d7 09 00 00       	callq  36d0 <guest_func_2>
    2cf9:	44 8b bc 24 24 00 00 	mov    0x24(%rsp),%r15d
    2d00:	00 
    2d01:	4c 8b b4 24 18 00 00 	mov    0x18(%rsp),%r14
    2d08:	00 
    2d09:	4c 8b ac 24 08 00 00 	mov    0x8(%rsp),%r13
    2d10:	00 
    2d11:	47 89 bc 2e d0 00 00 	mov    %r15d,0xd0(%r14,%r13,1)
    2d18:	00 
    2d19:	44 89 f8             	mov    %r15d,%eax
    2d1c:	44 8b bc 24 2c 00 00 	mov    0x2c(%rsp),%r15d
    2d23:	00 
    2d24:	44 89 f9             	mov    %r15d,%ecx
    2d27:	4c 8b bc 24 18 00 00 	mov    0x18(%rsp),%r15
    2d2e:	00 
    2d2f:	41 0f b6 0c 0f       	movzbl (%r15,%rcx,1),%ecx
    2d34:	89 c2                	mov    %eax,%edx
    2d36:	83 c2 01             	add    $0x1,%edx
    2d39:	44 8b bc 24 34 00 00 	mov    0x34(%rsp),%r15d
    2d40:	00 
    2d41:	44 89 fb             	mov    %r15d,%ebx
    2d44:	4c 8b bc 24 18 00 00 	mov    0x18(%rsp),%r15
    2d4b:	00 
    2d4c:	41 89 94 1f d0 00 00 	mov    %edx,0xd0(%r15,%rbx,1)
    2d53:	00 
    2d54:	44 8b bc 24 34 00 00 	mov    0x34(%rsp),%r15d
    2d5b:	00 
    2d5c:	41 01 c7             	add    %eax,%r15d
    2d5f:	44 89 f8             	mov    %r15d,%eax
    2d62:	4c 8b bc 24 18 00 00 	mov    0x18(%rsp),%r15
    2d69:	00 
    2d6a:	41 88 0c 07          	mov    %cl,(%r15,%rax,1)
    2d6e:	44 8b bc 24 2c 00 00 	mov    0x2c(%rsp),%r15d
    2d75:	00 
    2d76:	41 83 c7 01          	add    $0x1,%r15d
    2d7a:	44 89 bc 24 2c 00 00 	mov    %r15d,0x2c(%rsp)
    2d81:	00 
    2d82:	44 8b bc 24 28 00 00 	mov    0x28(%rsp),%r15d
    2d89:	00 
    2d8a:	41 83 c7 ff          	add    $0xffffffff,%r15d
    2d8e:	44 89 bc 24 28 00 00 	mov    %r15d,0x28(%rsp)
    2d95:	00 
    2d96:	45 85 ff             	test   %r15d,%r15d
    2d99:	0f 85 c0 fe ff ff    	jne    2c5f <guest_func_blake2b_init+0x26f>
    2d9f:	44 8b bc 24 30 00 00 	mov    0x30(%rsp),%r15d
    2da6:	00 
    2da7:	4c 8b b4 24 18 00 00 	mov    0x18(%rsp),%r14
    2dae:	00 
    2daf:	45 89 bc 1e d0 00 00 	mov    %r15d,0xd0(%r14,%rbx,1)
    2db6:	00 
    2db7:	44 8b bc 24 20 00 00 	mov    0x20(%rsp),%r15d
    2dbe:	00 
    2dbf:	44 89 bc 24 24 00 00 	mov    %r15d,0x24(%rsp)
    2dc6:	00 
    2dc7:	eb 10                	jmp    2dd9 <guest_func_blake2b_init+0x3e9>
    2dc9:	89 8c 24 24 00 00 00 	mov    %ecx,0x24(%rsp)
    2dd0:	eb 07                	jmp    2dd9 <guest_func_blake2b_init+0x3e9>
    2dd2:	89 8c 24 24 00 00 00 	mov    %ecx,0x24(%rsp)
    2dd9:	44 8b bc 24 24 00 00 	mov    0x24(%rsp),%r15d
    2de0:	00 
    2de1:	44 89 f8             	mov    %r15d,%eax
    2de4:	48 83 c4 38          	add    $0x38,%rsp
    2de8:	41 5f                	pop    %r15
    2dea:	41 5e                	pop    %r14
    2dec:	41 5d                	pop    %r13
    2dee:	41 5c                	pop    %r12
    2df0:	5b                   	pop    %rbx
    2df1:	5d                   	pop    %rbp
    2df2:	c3                   	retq   
	...

0000000000002e00 <guest_func_13>:
    2e00:	55                   	push   %rbp
    2e01:	48 89 e5             	mov    %rsp,%rbp
    2e04:	53                   	push   %rbx
    2e05:	41 54                	push   %r12
    2e07:	41 55                	push   %r13
    2e09:	41 56                	push   %r14
    2e0b:	41 57                	push   %r15
    2e0d:	31 c0                	xor    %eax,%eax
    2e0f:	89 f1                	mov    %esi,%ecx
    2e11:	01 d1                	add    %edx,%ecx
    2e13:	89 f3                	mov    %esi,%ebx
    2e15:	44 8b 44 1f 04       	mov    0x4(%rdi,%rbx,1),%r8d
    2e1a:	0f ae e8             	lfence 
    2e1d:	41 b9 01 00 00 00    	mov    $0x1,%r9d
    2e23:	45 89 c2             	mov    %r8d,%r10d
    2e26:	41 83 e2 01          	and    $0x1,%r10d
    2e2a:	45 85 d2             	test   %r10d,%r10d
    2e2d:	0f 85 c6 02 00 00    	jne    30f9 <guest_func_13+0x2f9>
    2e33:	41 83 e0 03          	and    $0x3,%r8d
    2e37:	45 85 c0             	test   %r8d,%r8d
    2e3a:	0f 84 83 08 00 00    	je     36c3 <guest_func_13+0x8c3>
    2e40:	8b 1c 1f             	mov    (%rdi,%rbx,1),%ebx
    2e43:	0f ae e8             	lfence 
    2e46:	41 89 d8             	mov    %ebx,%r8d
    2e49:	41 01 d0             	add    %edx,%r8d
    2e4c:	40 89 f2             	rex mov %esi,%edx
    2e4f:	29 da                	sub    %ebx,%edx
    2e51:	be 14 05 00 00       	mov    $0x514,%esi
    2e56:	89 f6                	mov    %esi,%esi
    2e58:	8b 34 37             	mov    (%rdi,%rsi,1),%esi
    2e5b:	39 f2                	cmp    %esi,%edx
    2e5d:	0f ae e8             	lfence 
    2e60:	0f 84 33 02 00 00    	je     3099 <guest_func_13+0x299>
    2e66:	be 10 05 00 00       	mov    $0x510,%esi
    2e6b:	89 f6                	mov    %esi,%esi
    2e6d:	8b 34 37             	mov    (%rdi,%rsi,1),%esi
    2e70:	81 fb ff 00 00 00    	cmp    $0xff,%ebx
    2e76:	77 7c                	ja     2ef4 <guest_func_13+0xf4>
    2e78:	89 d6                	mov    %edx,%esi
    2e7a:	44 8b 54 37 0c       	mov    0xc(%rdi,%rsi,1),%r10d
    2e7f:	0f ae e8             	lfence 
    2e82:	8b 74 37 08          	mov    0x8(%rdi,%rsi,1),%esi
    2e86:	0f ae e8             	lfence 
    2e89:	c1 eb 03             	shr    $0x3,%ebx
    2e8c:	41 89 db             	mov    %ebx,%r11d
    2e8f:	41 c1 e3 03          	shl    $0x3,%r11d
    2e93:	41 81 c3 28 05 00 00 	add    $0x528,%r11d
    2e9a:	44 39 de             	cmp    %r11d,%esi
    2e9d:	74 00                	je     2e9f <guest_func_13+0x9f>
    2e9f:	41 39 f2             	cmp    %esi,%r10d
    2ea2:	75 32                	jne    2ed6 <guest_func_13+0xd6>
    2ea4:	be 00 05 00 00       	mov    $0x500,%esi
    2ea9:	89 f6                	mov    %esi,%esi
    2eab:	44 8b 14 37          	mov    (%rdi,%rsi,1),%r10d
    2eaf:	41 bb fe ff ff ff    	mov    $0xfffffffe,%r11d
    2eb5:	41 89 cc             	mov    %ecx,%r12d
    2eb8:	40 89 d9             	rex mov %ebx,%ecx
    2ebb:	44 89 e3             	mov    %r12d,%ebx
    2ebe:	41 d3 c3             	rol    %cl,%r11d
    2ec1:	45 21 da             	and    %r11d,%r10d
    2ec4:	44 89 14 37          	mov    %r10d,(%rdi,%rsi,1)
    2ec8:	40 89 d9             	rex mov %ebx,%ecx
    2ecb:	40 89 d6             	rex mov %edx,%esi
    2ece:	44 89 c2             	mov    %r8d,%edx
    2ed1:	e9 23 02 00 00       	jmpq   30f9 <guest_func_13+0x2f9>
    2ed6:	45 39 da             	cmp    %r11d,%r10d
    2ed9:	74 00                	je     2edb <guest_func_13+0xdb>
    2edb:	44 89 d3             	mov    %r10d,%ebx
    2ede:	89 74 1f 08          	mov    %esi,0x8(%rdi,%rbx,1)
    2ee2:	89 f3                	mov    %esi,%ebx
    2ee4:	44 89 54 1f 0c       	mov    %r10d,0xc(%rdi,%rbx,1)
    2ee9:	40 89 d6             	rex mov %edx,%esi
    2eec:	44 89 c2             	mov    %r8d,%edx
    2eef:	e9 05 02 00 00       	jmpq   30f9 <guest_func_13+0x2f9>
    2ef4:	89 d3                	mov    %edx,%ebx
    2ef6:	44 8b 54 1f 18       	mov    0x18(%rdi,%rbx,1),%r10d
    2efb:	0f ae e8             	lfence 
    2efe:	44 8b 5c 1f 0c       	mov    0xc(%rdi,%rbx,1),%r11d
    2f03:	0f ae e8             	lfence 
    2f06:	44 39 da             	cmp    %r11d,%edx
    2f09:	74 2c                	je     2f37 <guest_func_13+0x137>
    2f0b:	44 8b 64 1f 08       	mov    0x8(%rdi,%rbx,1),%r12d
    2f10:	0f ae e8             	lfence 
    2f13:	44 39 e6             	cmp    %r12d,%esi
    2f16:	0f ae e8             	lfence 
    2f19:	77 07                	ja     2f22 <guest_func_13+0x122>
    2f1b:	44 89 e6             	mov    %r12d,%esi
    2f1e:	8b 74 37 0c          	mov    0xc(%rdi,%rsi,1),%esi
    2f22:	44 89 de             	mov    %r11d,%esi
    2f25:	44 89 64 37 08       	mov    %r12d,0x8(%rdi,%rsi,1)
    2f2a:	44 89 e6             	mov    %r12d,%esi
    2f2d:	44 89 5c 37 0c       	mov    %r11d,0xc(%rdi,%rsi,1)
    2f32:	e9 83 00 00 00       	jmpq   2fba <guest_func_13+0x1ba>
    2f37:	89 d6                	mov    %edx,%esi
    2f39:	83 c6 14             	add    $0x14,%esi
    2f3c:	41 89 f3             	mov    %esi,%r11d
    2f3f:	46 8b 1c 1f          	mov    (%rdi,%r11,1),%r11d
    2f43:	0f ae e8             	lfence 
    2f46:	45 85 db             	test   %r11d,%r11d
    2f49:	75 1b                	jne    2f66 <guest_func_13+0x166>
    2f4b:	89 d6                	mov    %edx,%esi
    2f4d:	83 c6 10             	add    $0x10,%esi
    2f50:	41 89 f3             	mov    %esi,%r11d
    2f53:	46 8b 1c 1f          	mov    (%rdi,%r11,1),%r11d
    2f57:	0f ae e8             	lfence 
    2f5a:	45 85 db             	test   %r11d,%r11d
    2f5d:	75 07                	jne    2f66 <guest_func_13+0x166>
    2f5f:	89 c6                	mov    %eax,%esi
    2f61:	41 89 f3             	mov    %esi,%r11d
    2f64:	eb 54                	jmp    2fba <guest_func_13+0x1ba>
    2f66:	eb 20                	jmp    2f88 <guest_func_13+0x188>
    2f68:	44 89 ee             	mov    %r13d,%esi
    2f6b:	45 89 e3             	mov    %r12d,%r11d
    2f6e:	45 89 de             	mov    %r11d,%r14d
    2f71:	41 89 f3             	mov    %esi,%r11d
    2f74:	44 89 f6             	mov    %r14d,%esi
    2f77:	eb 0f                	jmp    2f88 <guest_func_13+0x188>
    2f79:	44 89 ee             	mov    %r13d,%esi
    2f7c:	45 89 e3             	mov    %r12d,%r11d
    2f7f:	45 89 de             	mov    %r11d,%r14d
    2f82:	41 89 f3             	mov    %esi,%r11d
    2f85:	44 89 f6             	mov    %r14d,%esi
    2f88:	45 89 dc             	mov    %r11d,%r12d
    2f8b:	41 83 c4 14          	add    $0x14,%r12d
    2f8f:	45 89 e5             	mov    %r12d,%r13d
    2f92:	46 8b 2c 2f          	mov    (%rdi,%r13,1),%r13d
    2f96:	0f ae e8             	lfence 
    2f99:	45 85 ed             	test   %r13d,%r13d
    2f9c:	75 ca                	jne    2f68 <guest_func_13+0x168>
    2f9e:	45 89 dc             	mov    %r11d,%r12d
    2fa1:	41 83 c4 10          	add    $0x10,%r12d
    2fa5:	45 89 dd             	mov    %r11d,%r13d
    2fa8:	46 8b 6c 2f 10       	mov    0x10(%rdi,%r13,1),%r13d
    2fad:	0f ae e8             	lfence 
    2fb0:	45 85 ed             	test   %r13d,%r13d
    2fb3:	75 c4                	jne    2f79 <guest_func_13+0x179>
    2fb5:	89 f6                	mov    %esi,%esi
    2fb7:	89 04 37             	mov    %eax,(%rdi,%rsi,1)
    2fba:	45 85 d2             	test   %r10d,%r10d
    2fbd:	0f 84 18 01 00 00    	je     30db <guest_func_13+0x2db>
    2fc3:	8b 74 1f 1c          	mov    0x1c(%rdi,%rbx,1),%esi
    2fc7:	41 89 f4             	mov    %esi,%r12d
    2fca:	41 c1 e4 02          	shl    $0x2,%r12d
    2fce:	41 81 c4 30 06 00 00 	add    $0x630,%r12d
    2fd5:	0f ae e8             	lfence 
    2fd8:	45 89 e4             	mov    %r12d,%r12d
    2fdb:	46 8b 2c 27          	mov    (%rdi,%r12,1),%r13d
    2fdf:	44 39 ea             	cmp    %r13d,%edx
    2fe2:	0f ae e8             	lfence 
    2fe5:	75 3b                	jne    3022 <guest_func_13+0x222>
    2fe7:	46 89 1c 27          	mov    %r11d,(%rdi,%r12,1)
    2feb:	45 85 db             	test   %r11d,%r11d
    2fee:	75 62                	jne    3052 <guest_func_13+0x252>
    2ff0:	bb 04 05 00 00       	mov    $0x504,%ebx
    2ff5:	89 db                	mov    %ebx,%ebx
    2ff7:	44 8b 14 1f          	mov    (%rdi,%rbx,1),%r10d
    2ffb:	41 bb fe ff ff ff    	mov    $0xfffffffe,%r11d
    3001:	41 89 cc             	mov    %ecx,%r12d
    3004:	40 89 f1             	rex mov %esi,%ecx
    3007:	44 89 e6             	mov    %r12d,%esi
    300a:	41 d3 c3             	rol    %cl,%r11d
    300d:	45 21 da             	and    %r11d,%r10d
    3010:	44 89 14 1f          	mov    %r10d,(%rdi,%rbx,1)
    3014:	40 89 f1             	rex mov %esi,%ecx
    3017:	40 89 d6             	rex mov %edx,%esi
    301a:	44 89 c2             	mov    %r8d,%edx
    301d:	e9 d7 00 00 00       	jmpq   30f9 <guest_func_13+0x2f9>
    3022:	be 10 00 00 00       	mov    $0x10,%esi
    3027:	41 bc 14 00 00 00    	mov    $0x14,%r12d
    302d:	45 89 d5             	mov    %r10d,%r13d
    3030:	46 8b 6c 2f 10       	mov    0x10(%rdi,%r13,1),%r13d
    3035:	41 39 d5             	cmp    %edx,%r13d
    3038:	0f ae e8             	lfence 
    303b:	74 03                	je     3040 <guest_func_13+0x240>
    303d:	44 89 e6             	mov    %r12d,%esi
    3040:	44 01 d6             	add    %r10d,%esi
    3043:	89 f6                	mov    %esi,%esi
    3045:	44 89 1c 37          	mov    %r11d,(%rdi,%rsi,1)
    3049:	45 85 db             	test   %r11d,%r11d
    304c:	0f 84 91 00 00 00    	je     30e3 <guest_func_13+0x2e3>
    3052:	44 89 de             	mov    %r11d,%esi
    3055:	44 89 54 37 18       	mov    %r10d,0x18(%rdi,%rsi,1)
    305a:	44 8b 54 1f 10       	mov    0x10(%rdi,%rbx,1),%r10d
    305f:	0f ae e8             	lfence 
    3062:	45 85 d2             	test   %r10d,%r10d
    3065:	74 0d                	je     3074 <guest_func_13+0x274>
    3067:	44 89 54 37 10       	mov    %r10d,0x10(%rdi,%rsi,1)
    306c:	44 89 d6             	mov    %r10d,%esi
    306f:	44 89 5c 37 18       	mov    %r11d,0x18(%rdi,%rsi,1)
    3074:	8b 5c 1f 14          	mov    0x14(%rdi,%rbx,1),%ebx
    3078:	0f ae e8             	lfence 
    307b:	85 db                	test   %ebx,%ebx
    307d:	74 6c                	je     30eb <guest_func_13+0x2eb>
    307f:	44 89 de             	mov    %r11d,%esi
    3082:	83 c6 14             	add    $0x14,%esi
    3085:	89 f6                	mov    %esi,%esi
    3087:	89 1c 37             	mov    %ebx,(%rdi,%rsi,1)
    308a:	89 db                	mov    %ebx,%ebx
    308c:	44 89 5c 1f 18       	mov    %r11d,0x18(%rdi,%rbx,1)
    3091:	40 89 d6             	rex mov %edx,%esi
    3094:	44 89 c2             	mov    %r8d,%edx
    3097:	eb 60                	jmp    30f9 <guest_func_13+0x2f9>
    3099:	89 cb                	mov    %ecx,%ebx
    309b:	8b 74 1f 04          	mov    0x4(%rdi,%rbx,1),%esi
    309f:	41 89 f2             	mov    %esi,%r10d
    30a2:	41 83 e2 03          	and    $0x3,%r10d
    30a6:	41 83 fa 03          	cmp    $0x3,%r10d
    30aa:	0f ae e8             	lfence 
    30ad:	75 44                	jne    30f3 <guest_func_13+0x2f3>
    30af:	83 e6 fe             	and    $0xfffffffe,%esi
    30b2:	89 74 1f 04          	mov    %esi,0x4(%rdi,%rbx,1)
    30b6:	b8 08 05 00 00       	mov    $0x508,%eax
    30bb:	89 c0                	mov    %eax,%eax
    30bd:	44 89 04 07          	mov    %r8d,(%rdi,%rax,1)
    30c1:	44 89 04 1f          	mov    %r8d,(%rdi,%rbx,1)
    30c5:	41 83 c8 01          	or     $0x1,%r8d
    30c9:	89 d0                	mov    %edx,%eax
    30cb:	44 89 44 07 04       	mov    %r8d,0x4(%rdi,%rax,1)
    30d0:	41 5f                	pop    %r15
    30d2:	41 5e                	pop    %r14
    30d4:	41 5d                	pop    %r13
    30d6:	41 5c                	pop    %r12
    30d8:	5b                   	pop    %rbx
    30d9:	5d                   	pop    %rbp
    30da:	c3                   	retq   
    30db:	40 89 d6             	rex mov %edx,%esi
    30de:	44 89 c2             	mov    %r8d,%edx
    30e1:	eb 16                	jmp    30f9 <guest_func_13+0x2f9>
    30e3:	40 89 d6             	rex mov %edx,%esi
    30e6:	44 89 c2             	mov    %r8d,%edx
    30e9:	eb 0e                	jmp    30f9 <guest_func_13+0x2f9>
    30eb:	40 89 d6             	rex mov %edx,%esi
    30ee:	44 89 c2             	mov    %r8d,%edx
    30f1:	eb 06                	jmp    30f9 <guest_func_13+0x2f9>
    30f3:	40 89 d6             	rex mov %edx,%esi
    30f6:	44 89 c2             	mov    %r8d,%edx
    30f9:	89 cb                	mov    %ecx,%ebx
    30fb:	44 8b 44 1f 04       	mov    0x4(%rdi,%rbx,1),%r8d
    3100:	0f ae e8             	lfence 
    3103:	45 89 c2             	mov    %r8d,%r10d
    3106:	41 83 e2 02          	and    $0x2,%r10d
    310a:	45 85 d2             	test   %r10d,%r10d
    310d:	0f 85 0f 03 00 00    	jne    3422 <guest_func_13+0x622>
    3113:	41 ba 18 05 00 00    	mov    $0x518,%r10d
    3119:	45 89 d2             	mov    %r10d,%r10d
    311c:	46 8b 14 17          	mov    (%rdi,%r10,1),%r10d
    3120:	44 39 d1             	cmp    %r10d,%ecx
    3123:	0f ae e8             	lfence 
    3126:	75 4f                	jne    3177 <guest_func_13+0x377>
    3128:	b9 18 05 00 00       	mov    $0x518,%ecx
    312d:	89 c9                	mov    %ecx,%ecx
    312f:	89 34 0f             	mov    %esi,(%rdi,%rcx,1)
    3132:	b9 0c 05 00 00       	mov    $0x50c,%ecx
    3137:	89 c9                	mov    %ecx,%ecx
    3139:	8b 1c 0f             	mov    (%rdi,%rcx,1),%ebx
    313c:	01 d3                	add    %edx,%ebx
    313e:	89 1c 0f             	mov    %ebx,(%rdi,%rcx,1)
    3141:	83 cb 01             	or     $0x1,%ebx
    3144:	89 f1                	mov    %esi,%ecx
    3146:	89 5c 0f 04          	mov    %ebx,0x4(%rdi,%rcx,1)
    314a:	b9 14 05 00 00       	mov    $0x514,%ecx
    314f:	89 c9                	mov    %ecx,%ecx
    3151:	8b 14 0f             	mov    (%rdi,%rcx,1),%edx
    3154:	39 f2                	cmp    %esi,%edx
    3156:	0f ae e8             	lfence 
    3159:	0f 85 64 05 00 00    	jne    36c3 <guest_func_13+0x8c3>
    315f:	ba 08 05 00 00       	mov    $0x508,%edx
    3164:	89 d2                	mov    %edx,%edx
    3166:	89 04 17             	mov    %eax,(%rdi,%rdx,1)
    3169:	89 04 0f             	mov    %eax,(%rdi,%rcx,1)
    316c:	41 5f                	pop    %r15
    316e:	41 5e                	pop    %r14
    3170:	41 5d                	pop    %r13
    3172:	41 5c                	pop    %r12
    3174:	5b                   	pop    %rbx
    3175:	5d                   	pop    %rbp
    3176:	c3                   	retq   
    3177:	41 ba 14 05 00 00    	mov    $0x514,%r10d
    317d:	45 89 d2             	mov    %r10d,%r10d
    3180:	46 8b 1c 17          	mov    (%rdi,%r10,1),%r11d
    3184:	44 39 d9             	cmp    %r11d,%ecx
    3187:	0f ae e8             	lfence 
    318a:	75 39                	jne    31c5 <guest_func_13+0x3c5>
    318c:	b8 14 05 00 00       	mov    $0x514,%eax
    3191:	89 c0                	mov    %eax,%eax
    3193:	89 34 07             	mov    %esi,(%rdi,%rax,1)
    3196:	b8 08 05 00 00       	mov    $0x508,%eax
    319b:	89 c0                	mov    %eax,%eax
    319d:	8b 0c 07             	mov    (%rdi,%rax,1),%ecx
    31a0:	01 d1                	add    %edx,%ecx
    31a2:	89 0c 07             	mov    %ecx,(%rdi,%rax,1)
    31a5:	89 c8                	mov    %ecx,%eax
    31a7:	83 c8 01             	or     $0x1,%eax
    31aa:	89 f2                	mov    %esi,%edx
    31ac:	89 44 17 04          	mov    %eax,0x4(%rdi,%rdx,1)
    31b0:	01 ce                	add    %ecx,%esi
    31b2:	89 f0                	mov    %esi,%eax
    31b4:	0f ae e8             	lfence 
    31b7:	89 0c 07             	mov    %ecx,(%rdi,%rax,1)
    31ba:	41 5f                	pop    %r15
    31bc:	41 5e                	pop    %r14
    31be:	41 5d                	pop    %r13
    31c0:	41 5c                	pop    %r12
    31c2:	5b                   	pop    %rbx
    31c3:	5d                   	pop    %rbp
    31c4:	c3                   	retq   
    31c5:	41 bb 10 05 00 00    	mov    $0x510,%r11d
    31cb:	45 89 db             	mov    %r11d,%r11d
    31ce:	46 8b 1c 1f          	mov    (%rdi,%r11,1),%r11d
    31d2:	45 89 c4             	mov    %r8d,%r12d
    31d5:	41 83 e4 f8          	and    $0xfffffff8,%r12d
    31d9:	41 01 d4             	add    %edx,%r12d
    31dc:	41 81 f8 ff 00 00 00 	cmp    $0xff,%r8d
    31e3:	77 68                	ja     324d <guest_func_13+0x44d>
    31e5:	8b 4c 1f 0c          	mov    0xc(%rdi,%rbx,1),%ecx
    31e9:	0f ae e8             	lfence 
    31ec:	8b 54 1f 08          	mov    0x8(%rdi,%rbx,1),%edx
    31f0:	0f ae e8             	lfence 
    31f3:	44 89 c3             	mov    %r8d,%ebx
    31f6:	c1 eb 03             	shr    $0x3,%ebx
    31f9:	41 89 d8             	mov    %ebx,%r8d
    31fc:	41 c1 e0 03          	shl    $0x3,%r8d
    3200:	41 81 c0 28 05 00 00 	add    $0x528,%r8d
    3207:	44 39 c2             	cmp    %r8d,%edx
    320a:	74 00                	je     320c <guest_func_13+0x40c>
    320c:	39 d1                	cmp    %edx,%ecx
    320e:	75 27                	jne    3237 <guest_func_13+0x437>
    3210:	b9 00 05 00 00       	mov    $0x500,%ecx
    3215:	89 c9                	mov    %ecx,%ecx
    3217:	8b 14 0f             	mov    (%rdi,%rcx,1),%edx
    321a:	41 b8 fe ff ff ff    	mov    $0xfffffffe,%r8d
    3220:	49 89 cb             	mov    %rcx,%r11
    3223:	40 89 d9             	rex mov %ebx,%ecx
    3226:	4c 89 db             	mov    %r11,%rbx
    3229:	41 d3 c0             	rol    %cl,%r8d
    322c:	44 21 c2             	and    %r8d,%edx
    322f:	89 14 1f             	mov    %edx,(%rdi,%rbx,1)
    3232:	e9 b3 01 00 00       	jmpq   33ea <guest_func_13+0x5ea>
    3237:	44 39 c1             	cmp    %r8d,%ecx
    323a:	74 00                	je     323c <guest_func_13+0x43c>
    323c:	89 cb                	mov    %ecx,%ebx
    323e:	89 54 1f 08          	mov    %edx,0x8(%rdi,%rbx,1)
    3242:	89 d2                	mov    %edx,%edx
    3244:	89 4c 17 0c          	mov    %ecx,0xc(%rdi,%rdx,1)
    3248:	e9 9d 01 00 00       	jmpq   33ea <guest_func_13+0x5ea>
    324d:	8b 54 1f 18          	mov    0x18(%rdi,%rbx,1),%edx
    3251:	0f ae e8             	lfence 
    3254:	44 8b 44 1f 0c       	mov    0xc(%rdi,%rbx,1),%r8d
    3259:	0f ae e8             	lfence 
    325c:	41 39 c8             	cmp    %ecx,%r8d
    325f:	74 30                	je     3291 <guest_func_13+0x491>
    3261:	44 8b 6c 1f 08       	mov    0x8(%rdi,%rbx,1),%r13d
    3266:	0f ae e8             	lfence 
    3269:	45 39 eb             	cmp    %r13d,%r11d
    326c:	0f ae e8             	lfence 
    326f:	77 08                	ja     3279 <guest_func_13+0x479>
    3271:	45 89 eb             	mov    %r13d,%r11d
    3274:	46 8b 5c 1f 0c       	mov    0xc(%rdi,%r11,1),%r11d
    3279:	45 89 c3             	mov    %r8d,%r11d
    327c:	46 89 6c 1f 08       	mov    %r13d,0x8(%rdi,%r11,1)
    3281:	45 89 eb             	mov    %r13d,%r11d
    3284:	46 89 44 1f 0c       	mov    %r8d,0xc(%rdi,%r11,1)
    3289:	45 89 c3             	mov    %r8d,%r11d
    328c:	e9 8a 00 00 00       	jmpq   331b <guest_func_13+0x51b>
    3291:	41 89 c8             	mov    %ecx,%r8d
    3294:	41 83 c0 14          	add    $0x14,%r8d
    3298:	45 89 c3             	mov    %r8d,%r11d
    329b:	46 8b 1c 1f          	mov    (%rdi,%r11,1),%r11d
    329f:	0f ae e8             	lfence 
    32a2:	45 85 db             	test   %r11d,%r11d
    32a5:	75 1e                	jne    32c5 <guest_func_13+0x4c5>
    32a7:	41 89 c8             	mov    %ecx,%r8d
    32aa:	41 83 c0 10          	add    $0x10,%r8d
    32ae:	45 89 c3             	mov    %r8d,%r11d
    32b1:	46 8b 1c 1f          	mov    (%rdi,%r11,1),%r11d
    32b5:	0f ae e8             	lfence 
    32b8:	45 85 db             	test   %r11d,%r11d
    32bb:	75 08                	jne    32c5 <guest_func_13+0x4c5>
    32bd:	41 89 c0             	mov    %eax,%r8d
    32c0:	45 89 c3             	mov    %r8d,%r11d
    32c3:	eb 56                	jmp    331b <guest_func_13+0x51b>
    32c5:	eb 20                	jmp    32e7 <guest_func_13+0x4e7>
    32c7:	45 89 f0             	mov    %r14d,%r8d
    32ca:	45 89 eb             	mov    %r13d,%r11d
    32cd:	45 89 df             	mov    %r11d,%r15d
    32d0:	45 89 c3             	mov    %r8d,%r11d
    32d3:	45 89 f8             	mov    %r15d,%r8d
    32d6:	eb 0f                	jmp    32e7 <guest_func_13+0x4e7>
    32d8:	45 89 f0             	mov    %r14d,%r8d
    32db:	45 89 eb             	mov    %r13d,%r11d
    32de:	45 89 df             	mov    %r11d,%r15d
    32e1:	45 89 c3             	mov    %r8d,%r11d
    32e4:	45 89 f8             	mov    %r15d,%r8d
    32e7:	45 89 dd             	mov    %r11d,%r13d
    32ea:	41 83 c5 14          	add    $0x14,%r13d
    32ee:	45 89 ee             	mov    %r13d,%r14d
    32f1:	46 8b 34 37          	mov    (%rdi,%r14,1),%r14d
    32f5:	0f ae e8             	lfence 
    32f8:	45 85 f6             	test   %r14d,%r14d
    32fb:	75 ca                	jne    32c7 <guest_func_13+0x4c7>
    32fd:	45 89 dd             	mov    %r11d,%r13d
    3300:	41 83 c5 10          	add    $0x10,%r13d
    3304:	45 89 de             	mov    %r11d,%r14d
    3307:	46 8b 74 37 10       	mov    0x10(%rdi,%r14,1),%r14d
    330c:	0f ae e8             	lfence 
    330f:	45 85 f6             	test   %r14d,%r14d
    3312:	75 c4                	jne    32d8 <guest_func_13+0x4d8>
    3314:	45 89 c0             	mov    %r8d,%r8d
    3317:	42 89 04 07          	mov    %eax,(%rdi,%r8,1)
    331b:	85 d2                	test   %edx,%edx
    331d:	0f 84 c7 00 00 00    	je     33ea <guest_func_13+0x5ea>
    3323:	44 8b 44 1f 1c       	mov    0x1c(%rdi,%rbx,1),%r8d
    3328:	45 89 c5             	mov    %r8d,%r13d
    332b:	41 c1 e5 02          	shl    $0x2,%r13d
    332f:	41 81 c5 30 06 00 00 	add    $0x630,%r13d
    3336:	0f ae e8             	lfence 
    3339:	45 89 ed             	mov    %r13d,%r13d
    333c:	46 8b 34 2f          	mov    (%rdi,%r13,1),%r14d
    3340:	44 39 f1             	cmp    %r14d,%ecx
    3343:	0f ae e8             	lfence 
    3346:	75 2b                	jne    3373 <guest_func_13+0x573>
    3348:	46 89 1c 2f          	mov    %r11d,(%rdi,%r13,1)
    334c:	45 85 db             	test   %r11d,%r11d
    334f:	75 57                	jne    33a8 <guest_func_13+0x5a8>
    3351:	b9 04 05 00 00       	mov    $0x504,%ecx
    3356:	89 c9                	mov    %ecx,%ecx
    3358:	8b 14 0f             	mov    (%rdi,%rcx,1),%edx
    335b:	bb fe ff ff ff       	mov    $0xfffffffe,%ebx
    3360:	49 89 cb             	mov    %rcx,%r11
    3363:	44 89 c1             	mov    %r8d,%ecx
    3366:	4d 89 d8             	mov    %r11,%r8
    3369:	d3 c3                	rol    %cl,%ebx
    336b:	21 da                	and    %ebx,%edx
    336d:	42 89 14 07          	mov    %edx,(%rdi,%r8,1)
    3371:	eb 77                	jmp    33ea <guest_func_13+0x5ea>
    3373:	41 b8 10 00 00 00    	mov    $0x10,%r8d
    3379:	41 bd 14 00 00 00    	mov    $0x14,%r13d
    337f:	41 89 d6             	mov    %edx,%r14d
    3382:	46 8b 74 37 10       	mov    0x10(%rdi,%r14,1),%r14d
    3387:	41 39 ce             	cmp    %ecx,%r14d
    338a:	0f ae e8             	lfence 
    338d:	0f 84 06 00 00 00    	je     3399 <guest_func_13+0x599>
    3393:	44 89 e9             	mov    %r13d,%ecx
    3396:	41 89 c8             	mov    %ecx,%r8d
    3399:	41 01 d0             	add    %edx,%r8d
    339c:	44 89 c1             	mov    %r8d,%ecx
    339f:	44 89 1c 0f          	mov    %r11d,(%rdi,%rcx,1)
    33a3:	45 85 db             	test   %r11d,%r11d
    33a6:	74 42                	je     33ea <guest_func_13+0x5ea>
    33a8:	44 89 d9             	mov    %r11d,%ecx
    33ab:	89 54 0f 18          	mov    %edx,0x18(%rdi,%rcx,1)
    33af:	8b 54 1f 10          	mov    0x10(%rdi,%rbx,1),%edx
    33b3:	0f ae e8             	lfence 
    33b6:	85 d2                	test   %edx,%edx
    33b8:	0f 84 0b 00 00 00    	je     33c9 <guest_func_13+0x5c9>
    33be:	89 54 0f 10          	mov    %edx,0x10(%rdi,%rcx,1)
    33c2:	89 d1                	mov    %edx,%ecx
    33c4:	44 89 5c 0f 18       	mov    %r11d,0x18(%rdi,%rcx,1)
    33c9:	8b 4c 1f 14          	mov    0x14(%rdi,%rbx,1),%ecx
    33cd:	0f ae e8             	lfence 
    33d0:	85 c9                	test   %ecx,%ecx
    33d2:	0f 84 12 00 00 00    	je     33ea <guest_func_13+0x5ea>
    33d8:	44 89 da             	mov    %r11d,%edx
    33db:	83 c2 14             	add    $0x14,%edx
    33de:	89 d2                	mov    %edx,%edx
    33e0:	89 0c 17             	mov    %ecx,(%rdi,%rdx,1)
    33e3:	89 c9                	mov    %ecx,%ecx
    33e5:	44 89 5c 0f 18       	mov    %r11d,0x18(%rdi,%rcx,1)
    33ea:	89 f1                	mov    %esi,%ecx
    33ec:	44 01 e1             	add    %r12d,%ecx
    33ef:	89 c9                	mov    %ecx,%ecx
    33f1:	44 89 24 0f          	mov    %r12d,(%rdi,%rcx,1)
    33f5:	44 89 e1             	mov    %r12d,%ecx
    33f8:	83 c9 01             	or     $0x1,%ecx
    33fb:	89 f2                	mov    %esi,%edx
    33fd:	89 4c 17 04          	mov    %ecx,0x4(%rdi,%rdx,1)
    3401:	42 8b 0c 17          	mov    (%rdi,%r10,1),%ecx
    3405:	39 f1                	cmp    %esi,%ecx
    3407:	0f ae e8             	lfence 
    340a:	75 38                	jne    3444 <guest_func_13+0x644>
    340c:	b8 08 05 00 00       	mov    $0x508,%eax
    3411:	89 c0                	mov    %eax,%eax
    3413:	44 89 24 07          	mov    %r12d,(%rdi,%rax,1)
    3417:	41 5f                	pop    %r15
    3419:	41 5e                	pop    %r14
    341b:	41 5d                	pop    %r13
    341d:	41 5c                	pop    %r12
    341f:	5b                   	pop    %rbx
    3420:	5d                   	pop    %rbp
    3421:	c3                   	retq   
    3422:	41 83 e0 fe          	and    $0xfffffffe,%r8d
    3426:	44 89 44 1f 04       	mov    %r8d,0x4(%rdi,%rbx,1)
    342b:	89 f1                	mov    %esi,%ecx
    342d:	01 d1                	add    %edx,%ecx
    342f:	89 c9                	mov    %ecx,%ecx
    3431:	89 14 0f             	mov    %edx,(%rdi,%rcx,1)
    3434:	89 d1                	mov    %edx,%ecx
    3436:	83 c9 01             	or     $0x1,%ecx
    3439:	89 f3                	mov    %esi,%ebx
    343b:	89 4c 1f 04          	mov    %ecx,0x4(%rdi,%rbx,1)
    343f:	e9 03 00 00 00       	jmpq   3447 <guest_func_13+0x647>
    3444:	44 89 e2             	mov    %r12d,%edx
    3447:	81 fa ff 00 00 00    	cmp    $0xff,%edx
    344d:	77 6f                	ja     34be <guest_func_13+0x6be>
    344f:	c1 ea 03             	shr    $0x3,%edx
    3452:	89 d0                	mov    %edx,%eax
    3454:	c1 e0 03             	shl    $0x3,%eax
    3457:	81 c0 28 05 00 00    	add    $0x528,%eax
    345d:	b9 00 05 00 00       	mov    $0x500,%ecx
    3462:	89 c9                	mov    %ecx,%ecx
    3464:	8b 1c 0f             	mov    (%rdi,%rcx,1),%ebx
    3467:	45 89 c8             	mov    %r9d,%r8d
    346a:	49 89 c9             	mov    %rcx,%r9
    346d:	40 89 d1             	rex mov %edx,%ecx
    3470:	4c 89 ca             	mov    %r9,%rdx
    3473:	41 d3 e0             	shl    %cl,%r8d
    3476:	89 d9                	mov    %ebx,%ecx
    3478:	44 21 c1             	and    %r8d,%ecx
    347b:	0f ae e8             	lfence 
    347e:	85 c9                	test   %ecx,%ecx
    3480:	0f 85 0e 00 00 00    	jne    3494 <guest_func_13+0x694>
    3486:	41 09 d8             	or     %ebx,%r8d
    3489:	44 89 04 17          	mov    %r8d,(%rdi,%rdx,1)
    348d:	89 c1                	mov    %eax,%ecx
    348f:	e9 06 00 00 00       	jmpq   349a <guest_func_13+0x69a>
    3494:	89 c1                	mov    %eax,%ecx
    3496:	8b 4c 0f 08          	mov    0x8(%rdi,%rcx,1),%ecx
    349a:	89 ca                	mov    %ecx,%edx
    349c:	0f ae e8             	lfence 
    349f:	89 74 17 0c          	mov    %esi,0xc(%rdi,%rdx,1)
    34a3:	89 c2                	mov    %eax,%edx
    34a5:	89 74 17 08          	mov    %esi,0x8(%rdi,%rdx,1)
    34a9:	89 f2                	mov    %esi,%edx
    34ab:	89 44 17 0c          	mov    %eax,0xc(%rdi,%rdx,1)
    34af:	89 4c 17 08          	mov    %ecx,0x8(%rdi,%rdx,1)
    34b3:	41 5f                	pop    %r15
    34b5:	41 5e                	pop    %r14
    34b7:	41 5d                	pop    %r13
    34b9:	41 5c                	pop    %r12
    34bb:	5b                   	pop    %rbx
    34bc:	5d                   	pop    %rbp
    34bd:	c3                   	retq   
    34be:	31 c9                	xor    %ecx,%ecx
    34c0:	89 f3                	mov    %esi,%ebx
    34c2:	48 89 4c 1f 10       	mov    %rcx,0x10(%rdi,%rbx,1)
    34c7:	89 f1                	mov    %esi,%ecx
    34c9:	83 c1 1c             	add    $0x1c,%ecx
    34cc:	41 89 d0             	mov    %edx,%r8d
    34cf:	41 c1 e8 08          	shr    $0x8,%r8d
    34d3:	45 85 c0             	test   %r8d,%r8d
    34d6:	0f 84 a5 00 00 00    	je     3581 <guest_func_13+0x781>
    34dc:	41 ba 1f 00 00 00    	mov    $0x1f,%r10d
    34e2:	81 fa ff ff ff 00    	cmp    $0xffffff,%edx
    34e8:	0f 87 9b 00 00 00    	ja     3589 <guest_func_13+0x789>
    34ee:	45 89 c2             	mov    %r8d,%r10d
    34f1:	41 81 c2 00 ff 0f 00 	add    $0xfff00,%r10d
    34f8:	41 c1 ea 10          	shr    $0x10,%r10d
    34fc:	41 83 e2 08          	and    $0x8,%r10d
    3500:	41 89 cb             	mov    %ecx,%r11d
    3503:	44 89 d1             	mov    %r10d,%ecx
    3506:	45 89 da             	mov    %r11d,%r10d
    3509:	41 d3 e0             	shl    %cl,%r8d
    350c:	45 89 c3             	mov    %r8d,%r11d
    350f:	41 81 c3 00 f0 07 00 	add    $0x7f000,%r11d
    3516:	41 c1 eb 10          	shr    $0x10,%r11d
    351a:	41 83 e3 04          	and    $0x4,%r11d
    351e:	41 89 cc             	mov    %ecx,%r12d
    3521:	44 89 d9             	mov    %r11d,%ecx
    3524:	45 89 e3             	mov    %r12d,%r11d
    3527:	41 d3 e0             	shl    %cl,%r8d
    352a:	45 89 c4             	mov    %r8d,%r12d
    352d:	41 81 c4 00 c0 03 00 	add    $0x3c000,%r12d
    3534:	41 c1 ec 10          	shr    $0x10,%r12d
    3538:	41 83 e4 02          	and    $0x2,%r12d
    353c:	41 89 cd             	mov    %ecx,%r13d
    353f:	44 89 e1             	mov    %r12d,%ecx
    3542:	45 89 ec             	mov    %r13d,%r12d
    3545:	41 d3 e0             	shl    %cl,%r8d
    3548:	41 c1 e8 0f          	shr    $0xf,%r8d
    354c:	45 09 dc             	or     %r11d,%r12d
    354f:	41 09 cc             	or     %ecx,%r12d
    3552:	45 29 e0             	sub    %r12d,%r8d
    3555:	44 89 c1             	mov    %r8d,%ecx
    3558:	c1 e1 01             	shl    $0x1,%ecx
    355b:	41 83 c0 15          	add    $0x15,%r8d
    355f:	41 89 d3             	mov    %edx,%r11d
    3562:	41 89 cc             	mov    %ecx,%r12d
    3565:	44 89 c1             	mov    %r8d,%ecx
    3568:	45 89 e0             	mov    %r12d,%r8d
    356b:	41 d3 eb             	shr    %cl,%r11d
    356e:	41 83 e3 01          	and    $0x1,%r11d
    3572:	45 09 d8             	or     %r11d,%r8d
    3575:	41 83 c0 1c          	add    $0x1c,%r8d
    3579:	44 89 d1             	mov    %r10d,%ecx
    357c:	e9 0b 00 00 00       	jmpq   358c <guest_func_13+0x78c>
    3581:	41 89 c0             	mov    %eax,%r8d
    3584:	e9 03 00 00 00       	jmpq   358c <guest_func_13+0x78c>
    3589:	45 89 d0             	mov    %r10d,%r8d
    358c:	89 c9                	mov    %ecx,%ecx
    358e:	44 89 04 0f          	mov    %r8d,(%rdi,%rcx,1)
    3592:	44 89 c1             	mov    %r8d,%ecx
    3595:	c1 e1 02             	shl    $0x2,%ecx
    3598:	81 c1 30 06 00 00    	add    $0x630,%ecx
    359e:	41 ba 04 05 00 00    	mov    $0x504,%r10d
    35a4:	45 89 d2             	mov    %r10d,%r10d
    35a7:	46 8b 1c 17          	mov    (%rdi,%r10,1),%r11d
    35ab:	41 89 cc             	mov    %ecx,%r12d
    35ae:	44 89 c1             	mov    %r8d,%ecx
    35b1:	45 89 e0             	mov    %r12d,%r8d
    35b4:	41 d3 e1             	shl    %cl,%r9d
    35b7:	45 89 dc             	mov    %r11d,%r12d
    35ba:	45 21 cc             	and    %r9d,%r12d
    35bd:	41 89 cd             	mov    %ecx,%r13d
    35c0:	44 89 c1             	mov    %r8d,%ecx
    35c3:	45 89 e8             	mov    %r13d,%r8d
    35c6:	0f ae e8             	lfence 
    35c9:	45 85 e4             	test   %r12d,%r12d
    35cc:	0f 85 29 00 00 00    	jne    35fb <guest_func_13+0x7fb>
    35d2:	89 c8                	mov    %ecx,%eax
    35d4:	89 34 07             	mov    %esi,(%rdi,%rax,1)
    35d7:	45 09 cb             	or     %r9d,%r11d
    35da:	46 89 1c 17          	mov    %r11d,(%rdi,%r10,1)
    35de:	89 f0                	mov    %esi,%eax
    35e0:	83 c0 18             	add    $0x18,%eax
    35e3:	89 c0                	mov    %eax,%eax
    35e5:	89 0c 07             	mov    %ecx,(%rdi,%rax,1)
    35e8:	89 74 1f 08          	mov    %esi,0x8(%rdi,%rbx,1)
    35ec:	89 74 1f 0c          	mov    %esi,0xc(%rdi,%rbx,1)
    35f0:	41 5f                	pop    %r15
    35f2:	41 5e                	pop    %r14
    35f4:	41 5d                	pop    %r13
    35f6:	41 5c                	pop    %r12
    35f8:	5b                   	pop    %rbx
    35f9:	5d                   	pop    %rbp
    35fa:	c3                   	retq   
    35fb:	41 b9 19 00 00 00    	mov    $0x19,%r9d
    3601:	45 89 c2             	mov    %r8d,%r10d
    3604:	41 c1 ea 01          	shr    $0x1,%r10d
    3608:	45 29 d1             	sub    %r10d,%r9d
    360b:	41 83 f8 1f          	cmp    $0x1f,%r8d
    360f:	0f 84 08 00 00 00    	je     361d <guest_func_13+0x81d>
    3615:	45 89 c8             	mov    %r9d,%r8d
    3618:	e9 03 00 00 00       	jmpq   3620 <guest_func_13+0x820>
    361d:	41 89 c0             	mov    %eax,%r8d
    3620:	41 89 d1             	mov    %edx,%r9d
    3623:	41 89 ca             	mov    %ecx,%r10d
    3626:	44 89 c1             	mov    %r8d,%ecx
    3629:	45 89 d0             	mov    %r10d,%r8d
    362c:	41 d3 e1             	shl    %cl,%r9d
    362f:	44 89 c1             	mov    %r8d,%ecx
    3632:	8b 0c 0f             	mov    (%rdi,%rcx,1),%ecx
    3635:	e9 03 00 00 00       	jmpq   363d <guest_func_13+0x83d>
    363a:	44 89 d1             	mov    %r10d,%ecx
    363d:	0f ae e8             	lfence 
    3640:	41 89 c8             	mov    %ecx,%r8d
    3643:	46 8b 54 07 04       	mov    0x4(%rdi,%r8,1),%r10d
    3648:	41 83 e2 f8          	and    $0xfffffff8,%r10d
    364c:	41 39 d2             	cmp    %edx,%r10d
    364f:	0f ae e8             	lfence 
    3652:	0f 84 46 00 00 00    	je     369e <guest_func_13+0x89e>
    3658:	45 89 c8             	mov    %r9d,%r8d
    365b:	41 c1 e8 1d          	shr    $0x1d,%r8d
    365f:	41 c1 e1 01          	shl    $0x1,%r9d
    3663:	41 83 e0 04          	and    $0x4,%r8d
    3667:	41 01 c8             	add    %ecx,%r8d
    366a:	41 83 c0 10          	add    $0x10,%r8d
    366e:	45 89 c0             	mov    %r8d,%r8d
    3671:	46 8b 14 07          	mov    (%rdi,%r8,1),%r10d
    3675:	0f ae e8             	lfence 
    3678:	45 85 d2             	test   %r10d,%r10d
    367b:	75 bd                	jne    363a <guest_func_13+0x83a>
    367d:	42 89 34 07          	mov    %esi,(%rdi,%r8,1)
    3681:	89 f0                	mov    %esi,%eax
    3683:	83 c0 18             	add    $0x18,%eax
    3686:	89 c0                	mov    %eax,%eax
    3688:	89 0c 07             	mov    %ecx,(%rdi,%rax,1)
    368b:	89 74 1f 0c          	mov    %esi,0xc(%rdi,%rbx,1)
    368f:	89 74 1f 08          	mov    %esi,0x8(%rdi,%rbx,1)
    3693:	41 5f                	pop    %r15
    3695:	41 5e                	pop    %r14
    3697:	41 5d                	pop    %r13
    3699:	41 5c                	pop    %r12
    369b:	5b                   	pop    %rbx
    369c:	5d                   	pop    %rbp
    369d:	c3                   	retq   
    369e:	42 8b 54 07 08       	mov    0x8(%rdi,%r8,1),%edx
    36a3:	42 89 74 07 08       	mov    %esi,0x8(%rdi,%r8,1)
    36a8:	41 89 d0             	mov    %edx,%r8d
    36ab:	0f ae e8             	lfence 
    36ae:	42 89 74 07 0c       	mov    %esi,0xc(%rdi,%r8,1)
    36b3:	83 c6 18             	add    $0x18,%esi
    36b6:	89 f6                	mov    %esi,%esi
    36b8:	89 04 37             	mov    %eax,(%rdi,%rsi,1)
    36bb:	89 54 1f 08          	mov    %edx,0x8(%rdi,%rbx,1)
    36bf:	89 4c 1f 0c          	mov    %ecx,0xc(%rdi,%rbx,1)
    36c3:	41 5f                	pop    %r15
    36c5:	41 5e                	pop    %r14
    36c7:	41 5d                	pop    %r13
    36c9:	41 5c                	pop    %r12
    36cb:	5b                   	pop    %rbx
    36cc:	5d                   	pop    %rbp
    36cd:	c3                   	retq   
	...

00000000000036d0 <guest_func_2>:
    36d0:	55                   	push   %rbp
    36d1:	48 89 e5             	mov    %rsp,%rbp
    36d4:	53                   	push   %rbx
    36d5:	41 54                	push   %r12
    36d7:	41 55                	push   %r13
    36d9:	41 56                	push   %r14
    36db:	41 57                	push   %r15
    36dd:	48 81 ec 18 01 00 00 	sub    $0x118,%rsp
    36e4:	48 89 bc 24 f8 00 00 	mov    %rdi,0xf8(%rsp)
    36eb:	00 
    36ec:	89 b4 24 14 01 00 00 	mov    %esi,0x114(%rsp)
    36f3:	89 94 24 10 01 00 00 	mov    %edx,0x110(%rsp)
    36fa:	31 c0                	xor    %eax,%eax
    36fc:	89 84 24 0c 01 00 00 	mov    %eax,0x10c(%rsp)
    3703:	49 89 ff             	mov    %rdi,%r15
    3706:	49 8b 47 f0          	mov    -0x10(%r15),%rax
    370a:	0f ae e8             	lfence 
    370d:	8b 00                	mov    (%rax),%eax
    370f:	0f ae e8             	lfence 
    3712:	89 84 24 08 01 00 00 	mov    %eax,0x108(%rsp)
    3719:	41 89 c7             	mov    %eax,%r15d
    371c:	41 81 c7 00 ff ff ff 	add    $0xffffff00,%r15d
    3723:	44 89 bc 24 04 01 00 	mov    %r15d,0x104(%rsp)
    372a:	00 
    372b:	49 89 ff             	mov    %rdi,%r15
    372e:	49 8b 47 f0          	mov    -0x10(%r15),%rax
    3732:	44 8b bc 24 04 01 00 	mov    0x104(%rsp),%r15d
    3739:	00 
    373a:	0f ae e8             	lfence 
    373d:	44 89 38             	mov    %r15d,(%rax)
    3740:	44 8b bc 24 08 01 00 	mov    0x108(%rsp),%r15d
    3747:	00 
    3748:	41 83 c7 90          	add    $0xffffff90,%r15d
    374c:	41 89 f6             	mov    %esi,%r14d
    374f:	41 81 c6 90 00 00 00 	add    $0x90,%r14d
    3756:	44 89 f0             	mov    %r14d,%eax
    3759:	48 89 84 24 f0 00 00 	mov    %rax,0xf0(%rsp)
    3760:	00 
    3761:	49 89 fe             	mov    %rdi,%r14
    3764:	49 89 c5             	mov    %rax,%r13
    3767:	4b 8b 04 2e          	mov    (%r14,%r13,1),%rax
    376b:	44 89 f9             	mov    %r15d,%ecx
    376e:	49 89 ff             	mov    %rdi,%r15
    3771:	49 89 04 0f          	mov    %rax,(%r15,%rcx,1)
    3775:	44 8b bc 24 08 01 00 	mov    0x108(%rsp),%r15d
    377c:	00 
    377d:	41 83 c7 98          	add    $0xffffff98,%r15d
    3781:	41 89 f6             	mov    %esi,%r14d
    3784:	41 81 c6 98 00 00 00 	add    $0x98,%r14d
    378b:	44 89 f0             	mov    %r14d,%eax
    378e:	48 89 84 24 e8 00 00 	mov    %rax,0xe8(%rsp)
    3795:	00 
    3796:	49 89 fe             	mov    %rdi,%r14
    3799:	49 89 c5             	mov    %rax,%r13
    379c:	4b 8b 04 2e          	mov    (%r14,%r13,1),%rax
    37a0:	44 89 f9             	mov    %r15d,%ecx
    37a3:	49 89 ff             	mov    %rdi,%r15
    37a6:	49 89 04 0f          	mov    %rax,(%r15,%rcx,1)
    37aa:	44 8b bc 24 08 01 00 	mov    0x108(%rsp),%r15d
    37b1:	00 
    37b2:	41 83 c7 a0          	add    $0xffffffa0,%r15d
    37b6:	41 89 f6             	mov    %esi,%r14d
    37b9:	41 81 c6 a0 00 00 00 	add    $0xa0,%r14d
    37c0:	44 89 f0             	mov    %r14d,%eax
    37c3:	48 89 84 24 e0 00 00 	mov    %rax,0xe0(%rsp)
    37ca:	00 
    37cb:	49 89 fe             	mov    %rdi,%r14
    37ce:	49 89 c5             	mov    %rax,%r13
    37d1:	4b 8b 04 2e          	mov    (%r14,%r13,1),%rax
    37d5:	44 89 f9             	mov    %r15d,%ecx
    37d8:	49 89 ff             	mov    %rdi,%r15
    37db:	49 89 04 0f          	mov    %rax,(%r15,%rcx,1)
    37df:	44 8b bc 24 08 01 00 	mov    0x108(%rsp),%r15d
    37e6:	00 
    37e7:	41 83 c7 a8          	add    $0xffffffa8,%r15d
    37eb:	41 89 f6             	mov    %esi,%r14d
    37ee:	41 81 c6 a8 00 00 00 	add    $0xa8,%r14d
    37f5:	44 89 f0             	mov    %r14d,%eax
    37f8:	48 89 84 24 d8 00 00 	mov    %rax,0xd8(%rsp)
    37ff:	00 
    3800:	49 89 fe             	mov    %rdi,%r14
    3803:	49 89 c5             	mov    %rax,%r13
    3806:	4b 8b 04 2e          	mov    (%r14,%r13,1),%rax
    380a:	44 89 f9             	mov    %r15d,%ecx
    380d:	49 89 ff             	mov    %rdi,%r15
    3810:	49 89 04 0f          	mov    %rax,(%r15,%rcx,1)
    3814:	44 8b bc 24 08 01 00 	mov    0x108(%rsp),%r15d
    381b:	00 
    381c:	41 83 c7 b0          	add    $0xffffffb0,%r15d
    3820:	41 89 f6             	mov    %esi,%r14d
    3823:	41 81 c6 b0 00 00 00 	add    $0xb0,%r14d
    382a:	44 89 f0             	mov    %r14d,%eax
    382d:	48 89 84 24 d0 00 00 	mov    %rax,0xd0(%rsp)
    3834:	00 
    3835:	49 89 fe             	mov    %rdi,%r14
    3838:	49 89 c5             	mov    %rax,%r13
    383b:	4b 8b 04 2e          	mov    (%r14,%r13,1),%rax
    383f:	44 89 f9             	mov    %r15d,%ecx
    3842:	49 89 ff             	mov    %rdi,%r15
    3845:	49 89 04 0f          	mov    %rax,(%r15,%rcx,1)
    3849:	44 8b bc 24 08 01 00 	mov    0x108(%rsp),%r15d
    3850:	00 
    3851:	41 83 c7 b8          	add    $0xffffffb8,%r15d
    3855:	41 89 f6             	mov    %esi,%r14d
    3858:	41 81 c6 b8 00 00 00 	add    $0xb8,%r14d
    385f:	44 89 f0             	mov    %r14d,%eax
    3862:	48 89 84 24 c8 00 00 	mov    %rax,0xc8(%rsp)
    3869:	00 
    386a:	49 89 fe             	mov    %rdi,%r14
    386d:	49 89 c5             	mov    %rax,%r13
    3870:	4b 8b 04 2e          	mov    (%r14,%r13,1),%rax
    3874:	44 89 f9             	mov    %r15d,%ecx
    3877:	49 89 ff             	mov    %rdi,%r15
    387a:	49 89 04 0f          	mov    %rax,(%r15,%rcx,1)
    387e:	44 8b bc 24 08 01 00 	mov    0x108(%rsp),%r15d
    3885:	00 
    3886:	41 83 c7 c8          	add    $0xffffffc8,%r15d
    388a:	b8 08 04 00 00       	mov    $0x408,%eax
    388f:	89 c0                	mov    %eax,%eax
    3891:	49 8b 04 06          	mov    (%r14,%rax,1),%rax
    3895:	44 89 f9             	mov    %r15d,%ecx
    3898:	49 89 ff             	mov    %rdi,%r15
    389b:	49 89 04 0f          	mov    %rax,(%r15,%rcx,1)
    389f:	44 8b bc 24 08 01 00 	mov    0x108(%rsp),%r15d
    38a6:	00 
    38a7:	41 83 c7 d0          	add    $0xffffffd0,%r15d
    38ab:	b8 10 04 00 00       	mov    $0x410,%eax
    38b0:	89 c0                	mov    %eax,%eax
    38b2:	49 8b 04 06          	mov    (%r14,%rax,1),%rax
    38b6:	44 89 f9             	mov    %r15d,%ecx
    38b9:	49 89 ff             	mov    %rdi,%r15
    38bc:	49 89 04 0f          	mov    %rax,(%r15,%rcx,1)
    38c0:	44 8b bc 24 08 01 00 	mov    0x108(%rsp),%r15d
    38c7:	00 
    38c8:	41 83 c7 d8          	add    $0xffffffd8,%r15d
    38cc:	b8 18 04 00 00       	mov    $0x418,%eax
    38d1:	89 c0                	mov    %eax,%eax
    38d3:	49 8b 04 06          	mov    (%r14,%rax,1),%rax
    38d7:	44 89 f9             	mov    %r15d,%ecx
    38da:	49 89 ff             	mov    %rdi,%r15
    38dd:	49 89 04 0f          	mov    %rax,(%r15,%rcx,1)
    38e1:	44 8b bc 24 08 01 00 	mov    0x108(%rsp),%r15d
    38e8:	00 
    38e9:	41 83 c7 f0          	add    $0xfffffff0,%r15d
    38ed:	b8 30 04 00 00       	mov    $0x430,%eax
    38f2:	89 c0                	mov    %eax,%eax
    38f4:	49 8b 04 06          	mov    (%r14,%rax,1),%rax
    38f8:	44 89 f9             	mov    %r15d,%ecx
    38fb:	49 89 ff             	mov    %rdi,%r15
    38fe:	49 89 04 0f          	mov    %rax,(%r15,%rcx,1)
    3902:	44 8b bc 24 08 01 00 	mov    0x108(%rsp),%r15d
    3909:	00 
    390a:	41 83 c7 f8          	add    $0xfffffff8,%r15d
    390e:	b8 38 04 00 00       	mov    $0x438,%eax
    3913:	89 c0                	mov    %eax,%eax
    3915:	49 8b 04 06          	mov    (%r14,%rax,1),%rax
    3919:	44 89 f9             	mov    %r15d,%ecx
    391c:	49 89 ff             	mov    %rdi,%r15
    391f:	49 89 04 0f          	mov    %rax,(%r15,%rcx,1)
    3923:	41 89 f7             	mov    %esi,%r15d
    3926:	41 81 c7 80 00 00 00 	add    $0x80,%r15d
    392d:	44 89 f8             	mov    %r15d,%eax
    3930:	48 89 84 24 c0 00 00 	mov    %rax,0xc0(%rsp)
    3937:	00 
    3938:	49 89 ff             	mov    %rdi,%r15
    393b:	49 89 c6             	mov    %rax,%r14
    393e:	4b 8b 04 37          	mov    (%r15,%r14,1),%rax
    3942:	44 8b bc 24 04 01 00 	mov    0x104(%rsp),%r15d
    3949:	00 
    394a:	44 89 f9             	mov    %r15d,%ecx
    394d:	49 89 ff             	mov    %rdi,%r15
    3950:	49 89 84 0f 80 00 00 	mov    %rax,0x80(%r15,%rcx,1)
    3957:	00 
    3958:	41 89 f7             	mov    %esi,%r15d
    395b:	41 81 c7 88 00 00 00 	add    $0x88,%r15d
    3962:	44 89 f8             	mov    %r15d,%eax
    3965:	48 89 84 24 b8 00 00 	mov    %rax,0xb8(%rsp)
    396c:	00 
    396d:	49 89 ff             	mov    %rdi,%r15
    3970:	49 89 c6             	mov    %rax,%r14
    3973:	4b 8b 04 37          	mov    (%r15,%r14,1),%rax
    3977:	49 89 84 0f 88 00 00 	mov    %rax,0x88(%r15,%rcx,1)
    397e:	00 
    397f:	b8 00 04 00 00       	mov    $0x400,%eax
    3984:	89 c0                	mov    %eax,%eax
    3986:	49 8b 04 07          	mov    (%r15,%rax,1),%rax
    398a:	49 89 84 0f c0 00 00 	mov    %rax,0xc0(%r15,%rcx,1)
    3991:	00 
    3992:	b8 20 04 00 00       	mov    $0x420,%eax
    3997:	89 c0                	mov    %eax,%eax
    3999:	49 8b 04 07          	mov    (%r15,%rax,1),%rax
    399d:	49 89 84 0f e0 00 00 	mov    %rax,0xe0(%r15,%rcx,1)
    39a4:	00 
    39a5:	b8 28 04 00 00       	mov    $0x428,%eax
    39aa:	89 c0                	mov    %eax,%eax
    39ac:	49 8b 04 07          	mov    (%r15,%rax,1),%rax
    39b0:	49 89 84 0f e8 00 00 	mov    %rax,0xe8(%r15,%rcx,1)
    39b7:	00 
    39b8:	41 89 f7             	mov    %esi,%r15d
    39bb:	44 89 f8             	mov    %r15d,%eax
    39be:	49 89 ff             	mov    %rdi,%r15
    39c1:	49 8b 84 07 c0 00 00 	mov    0xc0(%r15,%rax,1),%rax
    39c8:	00 
    39c9:	48 ba d1 82 e6 ad 7f 	movabs $0x510e527fade682d1,%rdx
    39d0:	52 0e 51 
    39d3:	48 31 d0             	xor    %rdx,%rax
    39d6:	48 89 84 24 b0 00 00 	mov    %rax,0xb0(%rsp)
    39dd:	00 
    39de:	49 89 c7             	mov    %rax,%r15
    39e1:	49 89 fe             	mov    %rdi,%r14
    39e4:	4d 89 bc 0e e0 00 00 	mov    %r15,0xe0(%r14,%rcx,1)
    39eb:	00 
    39ec:	41 89 f7             	mov    %esi,%r15d
    39ef:	41 81 c7 c8 00 00 00 	add    $0xc8,%r15d
    39f6:	44 89 f8             	mov    %r15d,%eax
    39f9:	49 89 ff             	mov    %rdi,%r15
    39fc:	49 8b 04 07          	mov    (%r15,%rax,1),%rax
    3a00:	48 ba 1f 6c 3e 2b 8c 	movabs $0x9b05688c2b3e6c1f,%rdx
    3a07:	68 05 9b 
    3a0a:	48 31 d0             	xor    %rdx,%rax
    3a0d:	48 89 84 24 a8 00 00 	mov    %rax,0xa8(%rsp)
    3a14:	00 
    3a15:	49 89 c7             	mov    %rax,%r15
    3a18:	4d 89 bc 0e e8 00 00 	mov    %r15,0xe8(%r14,%rcx,1)
    3a1f:	00 
    3a20:	44 8b bc 24 10 01 00 	mov    0x110(%rsp),%r15d
    3a27:	00 
    3a28:	45 85 ff             	test   %r15d,%r15d
    3a2b:	74 1f                	je     3a4c <guest_func_2+0x37c>
    3a2d:	48 b8 94 42 be 04 54 	movabs $0xe07c265404be4294,%rax
    3a34:	26 7c e0 
    3a37:	48 89 84 24 a0 00 00 	mov    %rax,0xa0(%rsp)
    3a3e:	00 
    3a3f:	49 89 c7             	mov    %rax,%r15
    3a42:	4d 89 bc 0e f0 00 00 	mov    %r15,0xf0(%r14,%rcx,1)
    3a49:	00 
    3a4a:	eb 12                	jmp    3a5e <guest_func_2+0x38e>
    3a4c:	48 b8 6b bd 41 fb ab 	movabs $0x1f83d9abfb41bd6b,%rax
    3a53:	d9 83 1f 
    3a56:	48 89 84 24 a0 00 00 	mov    %rax,0xa0(%rsp)
    3a5d:	00 
    3a5e:	44 8b bc 24 0c 01 00 	mov    0x10c(%rsp),%r15d
    3a65:	00 
    3a66:	eb 03                	jmp    3a6b <guest_func_2+0x39b>
    3a68:	41 89 c7             	mov    %eax,%r15d
    3a6b:	44 8b b4 24 04 01 00 	mov    0x104(%rsp),%r14d
    3a72:	00 
    3a73:	45 01 fe             	add    %r15d,%r14d
    3a76:	44 8b ac 24 14 01 00 	mov    0x114(%rsp),%r13d
    3a7d:	00 
    3a7e:	45 01 fd             	add    %r15d,%r13d
    3a81:	44 89 e8             	mov    %r13d,%eax
    3a84:	4c 8b ac 24 f8 00 00 	mov    0xf8(%rsp),%r13
    3a8b:	00 
    3a8c:	49 8b 44 05 00       	mov    0x0(%r13,%rax,1),%rax
    3a91:	44 89 f2             	mov    %r14d,%edx
    3a94:	4d 89 ee             	mov    %r13,%r14
    3a97:	49 89 04 16          	mov    %rax,(%r14,%rdx,1)
    3a9b:	44 89 f8             	mov    %r15d,%eax
    3a9e:	83 c0 08             	add    $0x8,%eax
    3aa1:	81 f8 80 00 00 00    	cmp    $0x80,%eax
    3aa7:	75 bf                	jne    3a68 <guest_func_2+0x398>
    3aa9:	48 b8 08 c9 bc f3 67 	movabs $0x6a09e667f3bcc908,%rax
    3ab0:	e6 09 6a 
    3ab3:	48 ba 3b a7 ca 84 85 	movabs $0xbb67ae8584caa73b,%rdx
    3aba:	ae 67 bb 
    3abd:	48 89 94 24 70 00 00 	mov    %rdx,0x70(%rsp)
    3ac4:	00 
    3ac5:	48 ba 2b f8 94 fe 72 	movabs $0x3c6ef372fe94f82b,%rdx
    3acc:	f3 6e 3c 
    3acf:	48 bb 79 21 7e 13 19 	movabs $0x5be0cd19137e2179,%rbx
    3ad6:	cd e0 5b 
    3ad9:	48 89 9c 24 58 00 00 	mov    %rbx,0x58(%rsp)
    3ae0:	00 
    3ae1:	48 bb f1 36 1d 5f 3a 	movabs $0xa54ff53a5f1d36f1,%rbx
    3ae8:	f5 4f a5 
    3aeb:	48 89 9c 24 90 00 00 	mov    %rbx,0x90(%rsp)
    3af2:	00 
    3af3:	4d 89 ef             	mov    %r13,%r15
    3af6:	49 8b 9c 0f b8 00 00 	mov    0xb8(%r15,%rcx,1),%rbx
    3afd:	00 
    3afe:	48 89 9c 24 68 00 00 	mov    %rbx,0x68(%rsp)
    3b05:	00 
    3b06:	49 8b 9c 0f 98 00 00 	mov    0x98(%r15,%rcx,1),%rbx
    3b0d:	00 
    3b0e:	48 89 9c 24 60 00 00 	mov    %rbx,0x60(%rsp)
    3b15:	00 
    3b16:	49 8b 9c 0f b0 00 00 	mov    0xb0(%r15,%rcx,1),%rbx
    3b1d:	00 
    3b1e:	48 89 9c 24 88 00 00 	mov    %rbx,0x88(%rsp)
    3b25:	00 
    3b26:	49 8b 9c 0f 90 00 00 	mov    0x90(%r15,%rcx,1),%rbx
    3b2d:	00 
    3b2e:	49 8b b4 0f a8 00 00 	mov    0xa8(%r15,%rcx,1),%rsi
    3b35:	00 
    3b36:	48 89 b4 24 80 00 00 	mov    %rsi,0x80(%rsp)
    3b3d:	00 
    3b3e:	49 8b b4 0f 88 00 00 	mov    0x88(%r15,%rcx,1),%rsi
    3b45:	00 
    3b46:	48 89 b4 24 78 00 00 	mov    %rsi,0x78(%rsp)
    3b4d:	00 
    3b4e:	49 8b b4 0f a0 00 00 	mov    0xa0(%r15,%rcx,1),%rsi
    3b55:	00 
    3b56:	48 89 b4 24 98 00 00 	mov    %rsi,0x98(%rsp)
    3b5d:	00 
    3b5e:	49 8b 8c 0f 80 00 00 	mov    0x80(%r15,%rcx,1),%rcx
    3b65:	00 
    3b66:	eb 09                	jmp    3b71 <guest_func_2+0x4a1>
    3b68:	48 89 de             	mov    %rbx,%rsi
    3b6b:	48 89 c3             	mov    %rax,%rbx
    3b6e:	48 89 f0             	mov    %rsi,%rax
    3b71:	44 8b bc 24 0c 01 00 	mov    0x10c(%rsp),%r15d
    3b78:	00 
    3b79:	41 81 c7 40 04 00 00 	add    $0x440,%r15d
    3b80:	44 89 fe             	mov    %r15d,%esi
    3b83:	4c 8b bc 24 f8 00 00 	mov    0xf8(%rsp),%r15
    3b8a:	00 
    3b8b:	41 0f b6 34 37       	movzbl (%r15,%rsi,1),%esi
    3b90:	c1 e6 03             	shl    $0x3,%esi
    3b93:	44 8b bc 24 04 01 00 	mov    0x104(%rsp),%r15d
    3b9a:	00 
    3b9b:	44 01 fe             	add    %r15d,%esi
    3b9e:	89 f6                	mov    %esi,%esi
    3ba0:	4c 8b bc 24 f8 00 00 	mov    0xf8(%rsp),%r15
    3ba7:	00 
    3ba8:	0f ae e8             	lfence 
    3bab:	49 8b 34 37          	mov    (%r15,%rsi,1),%rsi
    3baf:	4c 8b bc 24 98 00 00 	mov    0x98(%rsp),%r15
    3bb6:	00 
    3bb7:	49 01 cf             	add    %rcx,%r15
    3bba:	4c 01 fe             	add    %r15,%rsi
    3bbd:	48 89 f1             	mov    %rsi,%rcx
    3bc0:	4c 8b bc 24 b0 00 00 	mov    0xb0(%rsp),%r15
    3bc7:	00 
    3bc8:	4c 31 f9             	xor    %r15,%rcx
    3bcb:	48 c1 c1 20          	rol    $0x20,%rcx
    3bcf:	48 89 8c 24 50 00 00 	mov    %rcx,0x50(%rsp)
    3bd6:	00 
    3bd7:	49 89 cf             	mov    %rcx,%r15
    3bda:	49 01 c7             	add    %rax,%r15
    3bdd:	4c 89 bc 24 48 00 00 	mov    %r15,0x48(%rsp)
    3be4:	00 
    3be5:	4c 8b bc 24 98 00 00 	mov    0x98(%rsp),%r15
    3bec:	00 
    3bed:	4c 8b b4 24 48 00 00 	mov    0x48(%rsp),%r14
    3bf4:	00 
    3bf5:	4d 31 f7             	xor    %r14,%r15
    3bf8:	49 c1 c7 28          	rol    $0x28,%r15
    3bfc:	4c 89 bc 24 40 00 00 	mov    %r15,0x40(%rsp)
    3c03:	00 
    3c04:	44 8b bc 24 0c 01 00 	mov    0x10c(%rsp),%r15d
    3c0b:	00 
    3c0c:	41 81 c7 41 04 00 00 	add    $0x441,%r15d
    3c13:	44 89 f8             	mov    %r15d,%eax
    3c16:	4c 8b bc 24 f8 00 00 	mov    0xf8(%rsp),%r15
    3c1d:	00 
    3c1e:	41 0f b6 04 07       	movzbl (%r15,%rax,1),%eax
    3c23:	c1 e0 03             	shl    $0x3,%eax
    3c26:	44 8b bc 24 04 01 00 	mov    0x104(%rsp),%r15d
    3c2d:	00 
    3c2e:	44 01 f8             	add    %r15d,%eax
    3c31:	89 c0                	mov    %eax,%eax
    3c33:	4c 8b bc 24 f8 00 00 	mov    0xf8(%rsp),%r15
    3c3a:	00 
    3c3b:	0f ae e8             	lfence 
    3c3e:	49 8b 04 07          	mov    (%r15,%rax,1),%rax
    3c42:	48 01 f0             	add    %rsi,%rax
    3c45:	4c 8b bc 24 40 00 00 	mov    0x40(%rsp),%r15
    3c4c:	00 
    3c4d:	49 01 c7             	add    %rax,%r15
    3c50:	4c 89 bc 24 38 00 00 	mov    %r15,0x38(%rsp)
    3c57:	00 
    3c58:	44 8b bc 24 0c 01 00 	mov    0x10c(%rsp),%r15d
    3c5f:	00 
    3c60:	41 81 c7 44 04 00 00 	add    $0x444,%r15d
    3c67:	44 89 f8             	mov    %r15d,%eax
    3c6a:	4c 8b bc 24 f8 00 00 	mov    0xf8(%rsp),%r15
    3c71:	00 
    3c72:	41 0f b6 04 07       	movzbl (%r15,%rax,1),%eax
    3c77:	c1 e0 03             	shl    $0x3,%eax
    3c7a:	44 8b bc 24 04 01 00 	mov    0x104(%rsp),%r15d
    3c81:	00 
    3c82:	44 01 f8             	add    %r15d,%eax
    3c85:	89 c0                	mov    %eax,%eax
    3c87:	4c 8b bc 24 f8 00 00 	mov    0xf8(%rsp),%r15
    3c8e:	00 
    3c8f:	0f ae e8             	lfence 
    3c92:	49 8b 04 07          	mov    (%r15,%rax,1),%rax
    3c96:	4c 8b bc 24 88 00 00 	mov    0x88(%rsp),%r15
    3c9d:	00 
    3c9e:	49 01 df             	add    %rbx,%r15
    3ca1:	4c 01 f8             	add    %r15,%rax
    3ca4:	4c 8b bc 24 a0 00 00 	mov    0xa0(%rsp),%r15
    3cab:	00 
    3cac:	49 31 c7             	xor    %rax,%r15
    3caf:	49 c1 c7 20          	rol    $0x20,%r15
    3cb3:	4c 89 f9             	mov    %r15,%rcx
    3cb6:	48 01 d1             	add    %rdx,%rcx
    3cb9:	48 89 8c 24 30 00 00 	mov    %rcx,0x30(%rsp)
    3cc0:	00 
    3cc1:	49 89 ce             	mov    %rcx,%r14
    3cc4:	4c 8b ac 24 88 00 00 	mov    0x88(%rsp),%r13
    3ccb:	00 
    3ccc:	4d 31 ee             	xor    %r13,%r14
    3ccf:	49 c1 c6 28          	rol    $0x28,%r14
    3cd3:	4c 89 b4 24 28 00 00 	mov    %r14,0x28(%rsp)
    3cda:	00 
    3cdb:	44 8b b4 24 0c 01 00 	mov    0x10c(%rsp),%r14d
    3ce2:	00 
    3ce3:	41 81 c6 45 04 00 00 	add    $0x445,%r14d
    3cea:	44 89 f1             	mov    %r14d,%ecx
    3ced:	4c 8b b4 24 f8 00 00 	mov    0xf8(%rsp),%r14
    3cf4:	00 
    3cf5:	41 0f b6 0c 0e       	movzbl (%r14,%rcx,1),%ecx
    3cfa:	c1 e1 03             	shl    $0x3,%ecx
    3cfd:	44 8b b4 24 04 01 00 	mov    0x104(%rsp),%r14d
    3d04:	00 
    3d05:	44 01 f1             	add    %r14d,%ecx
    3d08:	89 c9                	mov    %ecx,%ecx
    3d0a:	4c 8b b4 24 f8 00 00 	mov    0xf8(%rsp),%r14
    3d11:	00 
    3d12:	0f ae e8             	lfence 
    3d15:	49 8b 0c 0e          	mov    (%r14,%rcx,1),%rcx
    3d19:	48 01 c1             	add    %rax,%rcx
    3d1c:	4c 8b b4 24 28 00 00 	mov    0x28(%rsp),%r14
    3d23:	00 
    3d24:	49 01 ce             	add    %rcx,%r14
    3d27:	4c 89 b4 24 20 00 00 	mov    %r14,0x20(%rsp)
    3d2e:	00 
    3d2f:	44 8b b4 24 0c 01 00 	mov    0x10c(%rsp),%r14d
    3d36:	00 
    3d37:	41 81 c6 42 04 00 00 	add    $0x442,%r14d
    3d3e:	44 89 f0             	mov    %r14d,%eax
    3d41:	4c 8b b4 24 f8 00 00 	mov    0xf8(%rsp),%r14
    3d48:	00 
    3d49:	41 0f b6 04 06       	movzbl (%r14,%rax,1),%eax
    3d4e:	c1 e0 03             	shl    $0x3,%eax
    3d51:	44 8b b4 24 04 01 00 	mov    0x104(%rsp),%r14d
    3d58:	00 
    3d59:	44 01 f0             	add    %r14d,%eax
    3d5c:	89 c0                	mov    %eax,%eax
    3d5e:	4c 8b b4 24 f8 00 00 	mov    0xf8(%rsp),%r14
    3d65:	00 
    3d66:	0f ae e8             	lfence 
    3d69:	49 8b 04 06          	mov    (%r14,%rax,1),%rax
    3d6d:	4c 8b b4 24 80 00 00 	mov    0x80(%rsp),%r14
    3d74:	00 
    3d75:	4c 8b ac 24 78 00 00 	mov    0x78(%rsp),%r13
    3d7c:	00 
    3d7d:	4d 01 ee             	add    %r13,%r14
    3d80:	4c 01 f0             	add    %r14,%rax
    3d83:	48 89 c1             	mov    %rax,%rcx
    3d86:	4c 8b b4 24 a8 00 00 	mov    0xa8(%rsp),%r14
    3d8d:	00 
    3d8e:	4c 31 f1             	xor    %r14,%rcx
    3d91:	48 c1 c1 20          	rol    $0x20,%rcx
    3d95:	48 89 ca             	mov    %rcx,%rdx
    3d98:	4c 8b b4 24 70 00 00 	mov    0x70(%rsp),%r14
    3d9f:	00 
    3da0:	4c 01 f2             	add    %r14,%rdx
    3da3:	48 89 d3             	mov    %rdx,%rbx
    3da6:	4c 8b b4 24 80 00 00 	mov    0x80(%rsp),%r14
    3dad:	00 
    3dae:	4c 31 f3             	xor    %r14,%rbx
    3db1:	48 c1 c3 28          	rol    $0x28,%rbx
    3db5:	48 89 9c 24 18 00 00 	mov    %rbx,0x18(%rsp)
    3dbc:	00 
    3dbd:	44 8b b4 24 0c 01 00 	mov    0x10c(%rsp),%r14d
    3dc4:	00 
    3dc5:	41 81 c6 43 04 00 00 	add    $0x443,%r14d
    3dcc:	44 89 f3             	mov    %r14d,%ebx
    3dcf:	4c 8b b4 24 f8 00 00 	mov    0xf8(%rsp),%r14
    3dd6:	00 
    3dd7:	41 0f b6 1c 1e       	movzbl (%r14,%rbx,1),%ebx
    3ddc:	c1 e3 03             	shl    $0x3,%ebx
    3ddf:	44 8b b4 24 04 01 00 	mov    0x104(%rsp),%r14d
    3de6:	00 
    3de7:	44 01 f3             	add    %r14d,%ebx
    3dea:	89 db                	mov    %ebx,%ebx
    3dec:	4c 8b b4 24 f8 00 00 	mov    0xf8(%rsp),%r14
    3df3:	00 
    3df4:	0f ae e8             	lfence 
    3df7:	49 8b 1c 1e          	mov    (%r14,%rbx,1),%rbx
    3dfb:	48 01 c3             	add    %rax,%rbx
    3dfe:	4c 8b b4 24 18 00 00 	mov    0x18(%rsp),%r14
    3e05:	00 
    3e06:	49 01 de             	add    %rbx,%r14
    3e09:	4c 89 b4 24 10 00 00 	mov    %r14,0x10(%rsp)
    3e10:	00 
    3e11:	49 31 ce             	xor    %rcx,%r14
    3e14:	49 c1 c6 30          	rol    $0x30,%r14
    3e18:	4c 89 b4 24 08 00 00 	mov    %r14,0x8(%rsp)
    3e1f:	00 
    3e20:	49 01 d6             	add    %rdx,%r14
    3e23:	4c 8b ac 24 20 00 00 	mov    0x20(%rsp),%r13
    3e2a:	00 
    3e2b:	4d 31 fd             	xor    %r15,%r13
    3e2e:	49 c1 c5 30          	rol    $0x30,%r13
    3e32:	44 8b bc 24 0c 01 00 	mov    0x10c(%rsp),%r15d
    3e39:	00 
    3e3a:	41 81 c7 4e 04 00 00 	add    $0x44e,%r15d
    3e41:	44 89 f8             	mov    %r15d,%eax
    3e44:	4c 8b bc 24 f8 00 00 	mov    0xf8(%rsp),%r15
    3e4b:	00 
    3e4c:	41 0f b6 04 07       	movzbl (%r15,%rax,1),%eax
    3e51:	c1 e0 03             	shl    $0x3,%eax
    3e54:	44 8b bc 24 04 01 00 	mov    0x104(%rsp),%r15d
    3e5b:	00 
    3e5c:	44 01 f8             	add    %r15d,%eax
    3e5f:	89 c0                	mov    %eax,%eax
    3e61:	4c 8b bc 24 f8 00 00 	mov    0xf8(%rsp),%r15
    3e68:	00 
    3e69:	0f ae e8             	lfence 
    3e6c:	49 8b 04 07          	mov    (%r15,%rax,1),%rax
    3e70:	44 8b bc 24 0c 01 00 	mov    0x10c(%rsp),%r15d
    3e77:	00 
    3e78:	41 81 c7 46 04 00 00 	add    $0x446,%r15d
    3e7f:	44 89 f9             	mov    %r15d,%ecx
    3e82:	4c 8b bc 24 f8 00 00 	mov    0xf8(%rsp),%r15
    3e89:	00 
    3e8a:	41 0f b6 0c 0f       	movzbl (%r15,%rcx,1),%ecx
    3e8f:	c1 e1 03             	shl    $0x3,%ecx
    3e92:	44 8b bc 24 04 01 00 	mov    0x104(%rsp),%r15d
    3e99:	00 
    3e9a:	44 01 f9             	add    %r15d,%ecx
    3e9d:	89 c9                	mov    %ecx,%ecx
    3e9f:	4c 8b bc 24 f8 00 00 	mov    0xf8(%rsp),%r15
    3ea6:	00 
    3ea7:	0f ae e8             	lfence 
    3eaa:	49 8b 0c 0f          	mov    (%r15,%rcx,1),%rcx
    3eae:	4c 8b bc 24 68 00 00 	mov    0x68(%rsp),%r15
    3eb5:	00 
    3eb6:	4c 8b a4 24 60 00 00 	mov    0x60(%rsp),%r12
    3ebd:	00 
    3ebe:	4d 01 e7             	add    %r12,%r15
    3ec1:	4c 01 f9             	add    %r15,%rcx
    3ec4:	48 89 ca             	mov    %rcx,%rdx
    3ec7:	4c 8b bc 24 58 00 00 	mov    0x58(%rsp),%r15
    3ece:	00 
    3ecf:	4c 31 fa             	xor    %r15,%rdx
    3ed2:	48 c1 c2 20          	rol    $0x20,%rdx
    3ed6:	48 89 d3             	mov    %rdx,%rbx
    3ed9:	4c 8b bc 24 90 00 00 	mov    0x90(%rsp),%r15
    3ee0:	00 
    3ee1:	4c 01 fb             	add    %r15,%rbx
    3ee4:	48 89 de             	mov    %rbx,%rsi
    3ee7:	4c 8b bc 24 68 00 00 	mov    0x68(%rsp),%r15
    3eee:	00 
    3eef:	4c 31 fe             	xor    %r15,%rsi
    3ef2:	48 c1 c6 28          	rol    $0x28,%rsi
    3ef6:	44 8b bc 24 0c 01 00 	mov    0x10c(%rsp),%r15d
    3efd:	00 
    3efe:	41 81 c7 47 04 00 00 	add    $0x447,%r15d
    3f05:	44 89 ff             	mov    %r15d,%edi
    3f08:	4c 8b bc 24 f8 00 00 	mov    0xf8(%rsp),%r15
    3f0f:	00 
    3f10:	41 0f b6 3c 3f       	movzbl (%r15,%rdi,1),%edi
    3f15:	c1 e7 03             	shl    $0x3,%edi
    3f18:	44 8b bc 24 04 01 00 	mov    0x104(%rsp),%r15d
    3f1f:	00 
    3f20:	44 01 ff             	add    %r15d,%edi
    3f23:	89 ff                	mov    %edi,%edi
    3f25:	4c 8b bc 24 f8 00 00 	mov    0xf8(%rsp),%r15
    3f2c:	00 
    3f2d:	0f ae e8             	lfence 
    3f30:	49 8b 3c 3f          	mov    (%r15,%rdi,1),%rdi
    3f34:	48 01 cf             	add    %rcx,%rdi
    3f37:	48 89 f1             	mov    %rsi,%rcx
    3f3a:	48 01 f9             	add    %rdi,%rcx
    3f3d:	4c 8b bc 24 50 00 00 	mov    0x50(%rsp),%r15
    3f44:	00 
    3f45:	4c 8b a4 24 38 00 00 	mov    0x38(%rsp),%r12
    3f4c:	00 
    3f4d:	4d 31 e7             	xor    %r12,%r15
    3f50:	49 c1 c7 30          	rol    $0x30,%r15
    3f54:	4c 89 ff             	mov    %r15,%rdi
    3f57:	4c 8b a4 24 48 00 00 	mov    0x48(%rsp),%r12
    3f5e:	00 
    3f5f:	4c 01 e7             	add    %r12,%rdi
    3f62:	49 89 f8             	mov    %rdi,%r8
    3f65:	4c 8b a4 24 40 00 00 	mov    0x40(%rsp),%r12
    3f6c:	00 
    3f6d:	4d 31 e0             	xor    %r12,%r8
    3f70:	49 c1 c0 01          	rol    $0x1,%r8
    3f74:	49 89 c9             	mov    %rcx,%r9
    3f77:	4d 01 c1             	add    %r8,%r9
    3f7a:	4c 01 c8             	add    %r9,%rax
    3f7d:	4d 89 e9             	mov    %r13,%r9
    3f80:	49 31 c1             	xor    %rax,%r9
    3f83:	49 c1 c1 20          	rol    $0x20,%r9
    3f87:	4d 89 f2             	mov    %r14,%r10
    3f8a:	4d 01 ca             	add    %r9,%r10
    3f8d:	4d 31 d0             	xor    %r10,%r8
    3f90:	49 c1 c0 28          	rol    $0x28,%r8
    3f94:	44 8b a4 24 0c 01 00 	mov    0x10c(%rsp),%r12d
    3f9b:	00 
    3f9c:	41 81 c4 4f 04 00 00 	add    $0x44f,%r12d
    3fa3:	45 89 e3             	mov    %r12d,%r11d
    3fa6:	4c 8b a4 24 f8 00 00 	mov    0xf8(%rsp),%r12
    3fad:	00 
    3fae:	47 0f b6 1c 1c       	movzbl (%r12,%r11,1),%r11d
    3fb3:	41 c1 e3 03          	shl    $0x3,%r11d
    3fb7:	44 8b a4 24 04 01 00 	mov    0x104(%rsp),%r12d
    3fbe:	00 
    3fbf:	45 01 e3             	add    %r12d,%r11d
    3fc2:	45 89 db             	mov    %r11d,%r11d
    3fc5:	4c 8b a4 24 f8 00 00 	mov    0xf8(%rsp),%r12
    3fcc:	00 
    3fcd:	0f ae e8             	lfence 
    3fd0:	4f 8b 1c 1c          	mov    (%r12,%r11,1),%r11
    3fd4:	49 01 c3             	add    %rax,%r11
    3fd7:	4c 89 c0             	mov    %r8,%rax
    3fda:	4c 01 d8             	add    %r11,%rax
    3fdd:	48 89 84 24 60 00 00 	mov    %rax,0x60(%rsp)
    3fe4:	00 
    3fe5:	49 89 c4             	mov    %rax,%r12
    3fe8:	4d 31 e1             	xor    %r12,%r9
    3feb:	49 c1 c1 30          	rol    $0x30,%r9
    3fef:	4c 89 8c 24 a0 00 00 	mov    %r9,0xa0(%rsp)
    3ff6:	00 
    3ff7:	4d 89 cc             	mov    %r9,%r12
    3ffa:	4d 01 e2             	add    %r12,%r10
    3ffd:	4c 89 94 24 70 00 00 	mov    %r10,0x70(%rsp)
    4004:	00 
    4005:	4d 89 d4             	mov    %r10,%r12
    4008:	4d 31 c4             	xor    %r8,%r12
    400b:	49 c1 c4 01          	rol    $0x1,%r12
    400f:	4c 89 a4 24 98 00 00 	mov    %r12,0x98(%rsp)
    4016:	00 
    4017:	44 8b a4 24 0c 01 00 	mov    0x10c(%rsp),%r12d
    401e:	00 
    401f:	41 81 c4 4c 04 00 00 	add    $0x44c,%r12d
    4026:	44 89 e0             	mov    %r12d,%eax
    4029:	4c 8b a4 24 f8 00 00 	mov    0xf8(%rsp),%r12
    4030:	00 
    4031:	41 0f b6 04 04       	movzbl (%r12,%rax,1),%eax
    4036:	c1 e0 03             	shl    $0x3,%eax
    4039:	44 8b a4 24 04 01 00 	mov    0x104(%rsp),%r12d
    4040:	00 
    4041:	44 01 e0             	add    %r12d,%eax
    4044:	89 c0                	mov    %eax,%eax
    4046:	4c 8b a4 24 f8 00 00 	mov    0xf8(%rsp),%r12
    404d:	00 
    404e:	0f ae e8             	lfence 
    4051:	49 8b 04 04          	mov    (%r12,%rax,1),%rax
    4055:	48 31 ca             	xor    %rcx,%rdx
    4058:	48 c1 c2 30          	rol    $0x30,%rdx
    405c:	48 89 d1             	mov    %rdx,%rcx
    405f:	48 01 d9             	add    %rbx,%rcx
    4062:	48 89 cb             	mov    %rcx,%rbx
    4065:	48 31 f3             	xor    %rsi,%rbx
    4068:	48 c1 c3 01          	rol    $0x1,%rbx
    406c:	4c 8b a4 24 20 00 00 	mov    0x20(%rsp),%r12
    4073:	00 
    4074:	49 01 dc             	add    %rbx,%r12
    4077:	4c 01 e0             	add    %r12,%rax
    407a:	4c 8b a4 24 08 00 00 	mov    0x8(%rsp),%r12
    4081:	00 
    4082:	49 31 c4             	xor    %rax,%r12
    4085:	49 c1 c4 20          	rol    $0x20,%r12
    4089:	4c 01 e7             	add    %r12,%rdi
    408c:	48 89 fe             	mov    %rdi,%rsi
    408f:	48 31 de             	xor    %rbx,%rsi
    4092:	48 c1 c6 28          	rol    $0x28,%rsi
    4096:	44 8b 9c 24 0c 01 00 	mov    0x10c(%rsp),%r11d
    409d:	00 
    409e:	41 81 c3 4d 04 00 00 	add    $0x44d,%r11d
    40a5:	44 89 db             	mov    %r11d,%ebx
    40a8:	4c 8b 9c 24 f8 00 00 	mov    0xf8(%rsp),%r11
    40af:	00 
    40b0:	41 0f b6 1c 1b       	movzbl (%r11,%rbx,1),%ebx
    40b5:	c1 e3 03             	shl    $0x3,%ebx
    40b8:	44 8b 9c 24 04 01 00 	mov    0x104(%rsp),%r11d
    40bf:	00 
    40c0:	44 01 db             	add    %r11d,%ebx
    40c3:	89 db                	mov    %ebx,%ebx
    40c5:	4c 8b 9c 24 f8 00 00 	mov    0xf8(%rsp),%r11
    40cc:	00 
    40cd:	0f ae e8             	lfence 
    40d0:	49 8b 1c 1b          	mov    (%r11,%rbx,1),%rbx
    40d4:	48 01 c3             	add    %rax,%rbx
    40d7:	48 89 f0             	mov    %rsi,%rax
    40da:	48 01 d8             	add    %rbx,%rax
    40dd:	49 31 c4             	xor    %rax,%r12
    40e0:	49 c1 c4 30          	rol    $0x30,%r12
    40e4:	4c 89 a4 24 a8 00 00 	mov    %r12,0xa8(%rsp)
    40eb:	00 
    40ec:	48 89 fb             	mov    %rdi,%rbx
    40ef:	4c 01 e3             	add    %r12,%rbx
    40f2:	48 89 df             	mov    %rbx,%rdi
    40f5:	48 31 f7             	xor    %rsi,%rdi
    40f8:	48 c1 c7 01          	rol    $0x1,%rdi
    40fc:	48 89 bc 24 68 00 00 	mov    %rdi,0x68(%rsp)
    4103:	00 
    4104:	44 8b a4 24 0c 01 00 	mov    0x10c(%rsp),%r12d
    410b:	00 
    410c:	41 81 c4 4a 04 00 00 	add    $0x44a,%r12d
    4113:	44 89 e6             	mov    %r12d,%esi
    4116:	4d 89 dc             	mov    %r11,%r12
    4119:	41 0f b6 34 34       	movzbl (%r12,%rsi,1),%esi
    411e:	c1 e6 03             	shl    $0x3,%esi
    4121:	44 8b a4 24 04 01 00 	mov    0x104(%rsp),%r12d
    4128:	00 
    4129:	44 01 e6             	add    %r12d,%esi
    412c:	89 f6                	mov    %esi,%esi
    412e:	4d 89 dc             	mov    %r11,%r12
    4131:	0f ae e8             	lfence 
    4134:	49 8b 34 34          	mov    (%r12,%rsi,1),%rsi
    4138:	4c 8b a4 24 30 00 00 	mov    0x30(%rsp),%r12
    413f:	00 
    4140:	4d 01 ec             	add    %r13,%r12
    4143:	4c 89 e7             	mov    %r12,%rdi
    4146:	4c 8b ac 24 28 00 00 	mov    0x28(%rsp),%r13
    414d:	00 
    414e:	4c 31 ef             	xor    %r13,%rdi
    4151:	48 c1 c7 01          	rol    $0x1,%rdi
    4155:	4c 8b ac 24 10 00 00 	mov    0x10(%rsp),%r13
    415c:	00 
    415d:	49 01 fd             	add    %rdi,%r13
    4160:	4c 01 ee             	add    %r13,%rsi
    4163:	49 31 f7             	xor    %rsi,%r15
    4166:	49 c1 c7 20          	rol    $0x20,%r15
    416a:	4d 89 f8             	mov    %r15,%r8
    416d:	49 01 c8             	add    %rcx,%r8
    4170:	4c 89 c1             	mov    %r8,%rcx
    4173:	48 31 f9             	xor    %rdi,%rcx
    4176:	48 c1 c1 28          	rol    $0x28,%rcx
    417a:	44 8b ac 24 0c 01 00 	mov    0x10c(%rsp),%r13d
    4181:	00 
    4182:	41 81 c5 4b 04 00 00 	add    $0x44b,%r13d
    4189:	44 89 ef             	mov    %r13d,%edi
    418c:	4d 89 dd             	mov    %r11,%r13
    418f:	41 0f b6 7c 3d 00    	movzbl 0x0(%r13,%rdi,1),%edi
    4195:	c1 e7 03             	shl    $0x3,%edi
    4198:	44 8b ac 24 04 01 00 	mov    0x104(%rsp),%r13d
    419f:	00 
    41a0:	44 01 ef             	add    %r13d,%edi
    41a3:	89 ff                	mov    %edi,%edi
    41a5:	4d 89 dd             	mov    %r11,%r13
    41a8:	0f ae e8             	lfence 
    41ab:	49 8b 7c 3d 00       	mov    0x0(%r13,%rdi,1),%rdi
    41b0:	48 01 f7             	add    %rsi,%rdi
    41b3:	48 89 ce             	mov    %rcx,%rsi
    41b6:	48 01 fe             	add    %rdi,%rsi
    41b9:	48 89 b4 24 78 00 00 	mov    %rsi,0x78(%rsp)
    41c0:	00 
    41c1:	49 89 f5             	mov    %rsi,%r13
    41c4:	4d 31 ef             	xor    %r13,%r15
    41c7:	49 c1 c7 30          	rol    $0x30,%r15
    41cb:	4c 89 bc 24 b0 00 00 	mov    %r15,0xb0(%rsp)
    41d2:	00 
    41d3:	4d 01 f8             	add    %r15,%r8
    41d6:	4c 89 84 24 90 00 00 	mov    %r8,0x90(%rsp)
    41dd:	00 
    41de:	4d 89 c7             	mov    %r8,%r15
    41e1:	49 31 cf             	xor    %rcx,%r15
    41e4:	49 c1 c7 01          	rol    $0x1,%r15
    41e8:	4c 89 bc 24 88 00 00 	mov    %r15,0x88(%rsp)
    41ef:	00 
    41f0:	44 8b bc 24 0c 01 00 	mov    0x10c(%rsp),%r15d
    41f7:	00 
    41f8:	41 81 c7 48 04 00 00 	add    $0x448,%r15d
    41ff:	44 89 f9             	mov    %r15d,%ecx
    4202:	4d 89 df             	mov    %r11,%r15
    4205:	41 0f b6 0c 0f       	movzbl (%r15,%rcx,1),%ecx
    420a:	c1 e1 03             	shl    $0x3,%ecx
    420d:	44 8b bc 24 04 01 00 	mov    0x104(%rsp),%r15d
    4214:	00 
    4215:	44 01 f9             	add    %r15d,%ecx
    4218:	89 c9                	mov    %ecx,%ecx
    421a:	4d 89 df             	mov    %r11,%r15
    421d:	0f ae e8             	lfence 
    4220:	49 8b 0c 0f          	mov    (%r15,%rcx,1),%rcx
    4224:	4c 8b bc 24 18 00 00 	mov    0x18(%rsp),%r15
    422b:	00 
    422c:	4d 31 f7             	xor    %r14,%r15
    422f:	49 c1 c7 01          	rol    $0x1,%r15
    4233:	4c 89 fe             	mov    %r15,%rsi
    4236:	4c 8b b4 24 38 00 00 	mov    0x38(%rsp),%r14
    423d:	00 
    423e:	4c 01 f6             	add    %r14,%rsi
    4241:	48 01 f1             	add    %rsi,%rcx
    4244:	48 31 ca             	xor    %rcx,%rdx
    4247:	48 c1 c2 20          	rol    $0x20,%rdx
    424b:	48 89 d6             	mov    %rdx,%rsi
    424e:	4c 01 e6             	add    %r12,%rsi
    4251:	48 89 f7             	mov    %rsi,%rdi
    4254:	4c 31 ff             	xor    %r15,%rdi
    4257:	48 c1 c7 28          	rol    $0x28,%rdi
    425b:	44 8b bc 24 0c 01 00 	mov    0x10c(%rsp),%r15d
    4262:	00 
    4263:	41 81 c7 49 04 00 00 	add    $0x449,%r15d
    426a:	45 89 f8             	mov    %r15d,%r8d
    426d:	4d 89 df             	mov    %r11,%r15
    4270:	47 0f b6 04 07       	movzbl (%r15,%r8,1),%r8d
    4275:	41 c1 e0 03          	shl    $0x3,%r8d
    4279:	44 8b bc 24 04 01 00 	mov    0x104(%rsp),%r15d
    4280:	00 
    4281:	45 01 f8             	add    %r15d,%r8d
    4284:	45 89 c0             	mov    %r8d,%r8d
    4287:	4d 89 df             	mov    %r11,%r15
    428a:	0f ae e8             	lfence 
    428d:	4f 8b 04 07          	mov    (%r15,%r8,1),%r8
    4291:	49 01 c8             	add    %rcx,%r8
    4294:	48 89 f9             	mov    %rdi,%rcx
    4297:	4c 01 c1             	add    %r8,%rcx
    429a:	48 31 ca             	xor    %rcx,%rdx
    429d:	48 c1 c2 30          	rol    $0x30,%rdx
    42a1:	48 89 94 24 58 00 00 	mov    %rdx,0x58(%rsp)
    42a8:	00 
    42a9:	49 89 d7             	mov    %rdx,%r15
    42ac:	48 89 f2             	mov    %rsi,%rdx
    42af:	4c 01 fa             	add    %r15,%rdx
    42b2:	48 89 d6             	mov    %rdx,%rsi
    42b5:	48 31 fe             	xor    %rdi,%rsi
    42b8:	48 c1 c6 01          	rol    $0x1,%rsi
    42bc:	48 89 b4 24 80 00 00 	mov    %rsi,0x80(%rsp)
    42c3:	00 
    42c4:	44 8b bc 24 0c 01 00 	mov    0x10c(%rsp),%r15d
    42cb:	00 
    42cc:	41 83 c7 10          	add    $0x10,%r15d
    42d0:	44 89 bc 24 0c 01 00 	mov    %r15d,0x10c(%rsp)
    42d7:	00 
    42d8:	41 81 ff c0 00 00 00 	cmp    $0xc0,%r15d
    42df:	0f 85 83 f8 ff ff    	jne    3b68 <guest_func_2+0x498>
    42e5:	4d 89 df             	mov    %r11,%r15
    42e8:	4c 8b b4 24 c0 00 00 	mov    0xc0(%rsp),%r14
    42ef:	00 
    42f0:	4b 8b 34 37          	mov    (%r15,%r14,1),%rsi
    42f4:	48 31 cb             	xor    %rcx,%rbx
    42f7:	48 31 de             	xor    %rbx,%rsi
    42fa:	4b 89 34 37          	mov    %rsi,(%r15,%r14,1)
    42fe:	4c 8b b4 24 b8 00 00 	mov    0xb8(%rsp),%r14
    4305:	00 
    4306:	4b 8b 0c 37          	mov    (%r15,%r14,1),%rcx
    430a:	4d 89 d7             	mov    %r10,%r15
    430d:	4d 89 ee             	mov    %r13,%r14
    4310:	4d 31 f7             	xor    %r14,%r15
    4313:	4c 31 f9             	xor    %r15,%rcx
    4316:	4d 89 df             	mov    %r11,%r15
    4319:	4c 8b b4 24 b8 00 00 	mov    0xb8(%rsp),%r14
    4320:	00 
    4321:	4b 89 0c 37          	mov    %rcx,(%r15,%r14,1)
    4325:	4c 8b b4 24 f0 00 00 	mov    0xf0(%rsp),%r14
    432c:	00 
    432d:	4b 8b 0c 37          	mov    (%r15,%r14,1),%rcx
    4331:	48 31 c2             	xor    %rax,%rdx
    4334:	48 31 d1             	xor    %rdx,%rcx
    4337:	4b 89 0c 37          	mov    %rcx,(%r15,%r14,1)
    433b:	4c 8b b4 24 e8 00 00 	mov    0xe8(%rsp),%r14
    4342:	00 
    4343:	4b 8b 04 37          	mov    (%r15,%r14,1),%rax
    4347:	4c 8b bc 24 90 00 00 	mov    0x90(%rsp),%r15
    434e:	00 
    434f:	4c 8b b4 24 60 00 00 	mov    0x60(%rsp),%r14
    4356:	00 
    4357:	4d 31 f7             	xor    %r14,%r15
    435a:	4c 31 f8             	xor    %r15,%rax
    435d:	4d 89 df             	mov    %r11,%r15
    4360:	4c 8b b4 24 e8 00 00 	mov    0xe8(%rsp),%r14
    4367:	00 
    4368:	4b 89 04 37          	mov    %rax,(%r15,%r14,1)
    436c:	4c 8b b4 24 e0 00 00 	mov    0xe0(%rsp),%r14
    4373:	00 
    4374:	4b 8b 04 37          	mov    (%r15,%r14,1),%rax
    4378:	4c 8b bc 24 98 00 00 	mov    0x98(%rsp),%r15
    437f:	00 
    4380:	4c 8b b4 24 b0 00 00 	mov    0xb0(%rsp),%r14
    4387:	00 
    4388:	4d 31 f7             	xor    %r14,%r15
    438b:	4c 31 f8             	xor    %r15,%rax
    438e:	4d 89 df             	mov    %r11,%r15
    4391:	4c 8b b4 24 e0 00 00 	mov    0xe0(%rsp),%r14
    4398:	00 
    4399:	4b 89 04 37          	mov    %rax,(%r15,%r14,1)
    439d:	4c 8b b4 24 d8 00 00 	mov    0xd8(%rsp),%r14
    43a4:	00 
    43a5:	4b 8b 04 37          	mov    (%r15,%r14,1),%rax
    43a9:	4c 8b bc 24 80 00 00 	mov    0x80(%rsp),%r15
    43b0:	00 
    43b1:	4c 8b b4 24 a8 00 00 	mov    0xa8(%rsp),%r14
    43b8:	00 
    43b9:	4d 31 f7             	xor    %r14,%r15
    43bc:	4c 31 f8             	xor    %r15,%rax
    43bf:	4d 89 df             	mov    %r11,%r15
    43c2:	4c 8b b4 24 d8 00 00 	mov    0xd8(%rsp),%r14
    43c9:	00 
    43ca:	4b 89 04 37          	mov    %rax,(%r15,%r14,1)
    43ce:	4c 8b b4 24 d0 00 00 	mov    0xd0(%rsp),%r14
    43d5:	00 
    43d6:	4b 8b 04 37          	mov    (%r15,%r14,1),%rax
    43da:	4c 8b bc 24 88 00 00 	mov    0x88(%rsp),%r15
    43e1:	00 
    43e2:	4d 89 ce             	mov    %r9,%r14
    43e5:	4d 31 f7             	xor    %r14,%r15
    43e8:	4c 31 f8             	xor    %r15,%rax
    43eb:	4d 89 df             	mov    %r11,%r15
    43ee:	4c 8b b4 24 d0 00 00 	mov    0xd0(%rsp),%r14
    43f5:	00 
    43f6:	4b 89 04 37          	mov    %rax,(%r15,%r14,1)
    43fa:	4c 8b b4 24 c8 00 00 	mov    0xc8(%rsp),%r14
    4401:	00 
    4402:	4b 8b 04 37          	mov    (%r15,%r14,1),%rax
    4406:	4c 8b bc 24 68 00 00 	mov    0x68(%rsp),%r15
    440d:	00 
    440e:	4c 8b b4 24 58 00 00 	mov    0x58(%rsp),%r14
    4415:	00 
    4416:	4d 31 f7             	xor    %r14,%r15
    4419:	4c 31 f8             	xor    %r15,%rax
    441c:	4d 89 df             	mov    %r11,%r15
    441f:	4c 8b b4 24 c8 00 00 	mov    0xc8(%rsp),%r14
    4426:	00 
    4427:	4b 89 04 37          	mov    %rax,(%r15,%r14,1)
    442b:	49 8b 47 f0          	mov    -0x10(%r15),%rax
    442f:	44 8b bc 24 08 01 00 	mov    0x108(%rsp),%r15d
    4436:	00 
    4437:	0f ae e8             	lfence 
    443a:	44 89 38             	mov    %r15d,(%rax)
    443d:	48 81 c4 18 01 00 00 	add    $0x118,%rsp
    4444:	41 5f                	pop    %r15
    4446:	41 5e                	pop    %r14
    4448:	41 5d                	pop    %r13
    444a:	41 5c                	pop    %r12
    444c:	5b                   	pop    %rbx
    444d:	5d                   	pop    %rbp
    444e:	c3                   	retq   
	...

0000000000004450 <guest_func___wasm_call_ctors>:
    4450:	55                   	push   %rbp
    4451:	48 89 e5             	mov    %rsp,%rbp
    4454:	5d                   	pop    %rbp
    4455:	c3                   	retq   
	...

0000000000004460 <guest_func_malloc>:
    4460:	55                   	push   %rbp
    4461:	48 89 e5             	mov    %rsp,%rbp
    4464:	e8 a7 06 00 00       	callq  4b10 <guest_func_8>
    4469:	5d                   	pop    %rbp
    446a:	c3                   	retq   
    446b:	00 00                	add    %al,(%rax)
    446d:	00 00                	add    %al,(%rax)
	...

0000000000004470 <guest_func_abort>:
    4470:	55                   	push   %rbp
    4471:	48 89 e5             	mov    %rsp,%rbp
    4474:	0f 0b                	ud2    
	...

0000000000004480 <guest_func_memcpy>:
    4480:	55                   	push   %rbp
    4481:	48 89 e5             	mov    %rsp,%rbp
    4484:	53                   	push   %rbx
    4485:	41 54                	push   %r12
    4487:	41 55                	push   %r13
    4489:	31 c0                	xor    %eax,%eax
    448b:	85 c9                	test   %ecx,%ecx
    448d:	74 40                	je     44cf <guest_func_memcpy+0x4f>
    448f:	89 d3                	mov    %edx,%ebx
    4491:	83 e3 03             	and    $0x3,%ebx
    4494:	85 db                	test   %ebx,%ebx
    4496:	74 37                	je     44cf <guest_func_memcpy+0x4f>
    4498:	89 f3                	mov    %esi,%ebx
    449a:	41 89 c8             	mov    %ecx,%r8d
    449d:	eb 03                	jmp    44a2 <guest_func_memcpy+0x22>
    449f:	41 89 c8             	mov    %ecx,%r8d
    44a2:	89 d1                	mov    %edx,%ecx
    44a4:	0f b6 0c 0f          	movzbl (%rdi,%rcx,1),%ecx
    44a8:	41 89 d9             	mov    %ebx,%r9d
    44ab:	42 88 0c 0f          	mov    %cl,(%rdi,%r9,1)
    44af:	44 89 c1             	mov    %r8d,%ecx
    44b2:	83 c1 ff             	add    $0xffffffff,%ecx
    44b5:	83 c3 01             	add    $0x1,%ebx
    44b8:	83 c2 01             	add    $0x1,%edx
    44bb:	41 83 f8 01          	cmp    $0x1,%r8d
    44bf:	74 10                	je     44d1 <guest_func_memcpy+0x51>
    44c1:	41 89 d0             	mov    %edx,%r8d
    44c4:	41 83 e0 03          	and    $0x3,%r8d
    44c8:	45 85 c0             	test   %r8d,%r8d
    44cb:	75 d2                	jne    449f <guest_func_memcpy+0x1f>
    44cd:	eb 02                	jmp    44d1 <guest_func_memcpy+0x51>
    44cf:	89 f3                	mov    %esi,%ebx
    44d1:	41 89 d8             	mov    %ebx,%r8d
    44d4:	41 83 e0 03          	and    $0x3,%r8d
    44d8:	45 85 c0             	test   %r8d,%r8d
    44db:	0f 85 06 01 00 00    	jne    45e7 <guest_func_memcpy+0x167>
    44e1:	83 f9 10             	cmp    $0x10,%ecx
    44e4:	72 70                	jb     4556 <guest_func_memcpy+0xd6>
    44e6:	eb 03                	jmp    44eb <guest_func_memcpy+0x6b>
    44e8:	40 89 c3             	rex mov %eax,%ebx
    44eb:	89 d0                	mov    %edx,%eax
    44ed:	8b 04 07             	mov    (%rdi,%rax,1),%eax
    44f0:	41 89 d8             	mov    %ebx,%r8d
    44f3:	42 89 04 07          	mov    %eax,(%rdi,%r8,1)
    44f7:	89 d8                	mov    %ebx,%eax
    44f9:	83 c0 04             	add    $0x4,%eax
    44fc:	41 89 d0             	mov    %edx,%r8d
    44ff:	41 83 c0 04          	add    $0x4,%r8d
    4503:	45 89 c0             	mov    %r8d,%r8d
    4506:	46 8b 04 07          	mov    (%rdi,%r8,1),%r8d
    450a:	89 c0                	mov    %eax,%eax
    450c:	44 89 04 07          	mov    %r8d,(%rdi,%rax,1)
    4510:	89 d8                	mov    %ebx,%eax
    4512:	83 c0 08             	add    $0x8,%eax
    4515:	41 89 d0             	mov    %edx,%r8d
    4518:	41 83 c0 08          	add    $0x8,%r8d
    451c:	45 89 c0             	mov    %r8d,%r8d
    451f:	46 8b 04 07          	mov    (%rdi,%r8,1),%r8d
    4523:	89 c0                	mov    %eax,%eax
    4525:	44 89 04 07          	mov    %r8d,(%rdi,%rax,1)
    4529:	89 d8                	mov    %ebx,%eax
    452b:	83 c0 0c             	add    $0xc,%eax
    452e:	41 89 d0             	mov    %edx,%r8d
    4531:	41 83 c0 0c          	add    $0xc,%r8d
    4535:	45 89 c0             	mov    %r8d,%r8d
    4538:	46 8b 04 07          	mov    (%rdi,%r8,1),%r8d
    453c:	89 c0                	mov    %eax,%eax
    453e:	44 89 04 07          	mov    %r8d,(%rdi,%rax,1)
    4542:	40 89 d8             	rex mov %ebx,%eax
    4545:	83 c0 10             	add    $0x10,%eax
    4548:	83 c2 10             	add    $0x10,%edx
    454b:	83 c1 f0             	add    $0xfffffff0,%ecx
    454e:	83 f9 0f             	cmp    $0xf,%ecx
    4551:	77 95                	ja     44e8 <guest_func_memcpy+0x68>
    4553:	40 89 c3             	rex mov %eax,%ebx
    4556:	89 c8                	mov    %ecx,%eax
    4558:	83 e0 08             	and    $0x8,%eax
    455b:	85 c0                	test   %eax,%eax
    455d:	74 13                	je     4572 <guest_func_memcpy+0xf2>
    455f:	89 d0                	mov    %edx,%eax
    4561:	48 8b 04 07          	mov    (%rdi,%rax,1),%rax
    4565:	41 89 d8             	mov    %ebx,%r8d
    4568:	4a 89 04 07          	mov    %rax,(%rdi,%r8,1)
    456c:	83 c3 08             	add    $0x8,%ebx
    456f:	83 c2 08             	add    $0x8,%edx
    4572:	89 c8                	mov    %ecx,%eax
    4574:	83 e0 04             	and    $0x4,%eax
    4577:	85 c0                	test   %eax,%eax
    4579:	74 12                	je     458d <guest_func_memcpy+0x10d>
    457b:	89 d0                	mov    %edx,%eax
    457d:	8b 04 07             	mov    (%rdi,%rax,1),%eax
    4580:	41 89 d8             	mov    %ebx,%r8d
    4583:	42 89 04 07          	mov    %eax,(%rdi,%r8,1)
    4587:	83 c3 04             	add    $0x4,%ebx
    458a:	83 c2 04             	add    $0x4,%edx
    458d:	89 c8                	mov    %ecx,%eax
    458f:	83 e0 02             	and    $0x2,%eax
    4592:	85 c0                	test   %eax,%eax
    4594:	74 31                	je     45c7 <guest_func_memcpy+0x147>
    4596:	89 d0                	mov    %edx,%eax
    4598:	44 0f b6 04 07       	movzbl (%rdi,%rax,1),%r8d
    459d:	41 89 d9             	mov    %ebx,%r9d
    45a0:	45 89 c2             	mov    %r8d,%r10d
    45a3:	49 89 f8             	mov    %rdi,%r8
    45a6:	40 89 cf             	rex mov %ecx,%edi
    45a9:	44 89 d1             	mov    %r10d,%ecx
    45ac:	43 88 0c 08          	mov    %cl,(%r8,%r9,1)
    45b0:	41 0f b6 44 00 01    	movzbl 0x1(%r8,%rax,1),%eax
    45b6:	43 88 44 08 01       	mov    %al,0x1(%r8,%r9,1)
    45bb:	83 c3 02             	add    $0x2,%ebx
    45be:	83 c2 02             	add    $0x2,%edx
    45c1:	40 89 f9             	rex mov %edi,%ecx
    45c4:	4c 89 c7             	mov    %r8,%rdi
    45c7:	83 e1 01             	and    $0x1,%ecx
    45ca:	85 c9                	test   %ecx,%ecx
    45cc:	0f 84 1e 05 00 00    	je     4af0 <guest_func_memcpy+0x670>
    45d2:	89 d0                	mov    %edx,%eax
    45d4:	0f b6 04 07          	movzbl (%rdi,%rax,1),%eax
    45d8:	89 d9                	mov    %ebx,%ecx
    45da:	88 04 0f             	mov    %al,(%rdi,%rcx,1)
    45dd:	40 89 f0             	rex mov %esi,%eax
    45e0:	41 5d                	pop    %r13
    45e2:	41 5c                	pop    %r12
    45e4:	5b                   	pop    %rbx
    45e5:	5d                   	pop    %rbp
    45e6:	c3                   	retq   
    45e7:	83 f9 20             	cmp    $0x20,%ecx
    45ea:	0f 82 1a 03 00 00    	jb     490a <guest_func_memcpy+0x48a>
    45f0:	41 83 c0 ff          	add    $0xffffffff,%r8d
    45f4:	41 83 f8 03          	cmp    $0x3,%r8d
    45f8:	0f 83 0c 03 00 00    	jae    490a <guest_func_memcpy+0x48a>
    45fe:	45 89 c0             	mov    %r8d,%r8d
    4601:	4c 8d 0d f2 04 00 00 	lea    0x4f2(%rip),%r9        # 4afa <guest_func_memcpy+0x67a>
    4608:	4f 63 04 81          	movslq (%r9,%r8,4),%r8
    460c:	4d 01 c1             	add    %r8,%r9
    460f:	0f ae e8             	lfence 
    4612:	41 ff e1             	jmpq   *%r9
    4615:	41 89 d0             	mov    %edx,%r8d
    4618:	46 0f b6 4c 07 01    	movzbl 0x1(%rdi,%r8,1),%r9d
    461e:	41 89 da             	mov    %ebx,%r10d
    4621:	45 89 cb             	mov    %r9d,%r11d
    4624:	49 89 f9             	mov    %rdi,%r9
    4627:	40 89 c7             	rex mov %eax,%edi
    462a:	44 89 d8             	mov    %r11d,%eax
    462d:	43 88 44 11 01       	mov    %al,0x1(%r9,%r10,1)
    4632:	43 8b 04 01          	mov    (%r9,%r8,1),%eax
    4636:	43 88 04 11          	mov    %al,(%r9,%r10,1)
    463a:	47 0f b6 44 01 02    	movzbl 0x2(%r9,%r8,1),%r8d
    4640:	45 89 c3             	mov    %r8d,%r11d
    4643:	41 89 d8             	mov    %ebx,%r8d
    4646:	44 89 db             	mov    %r11d,%ebx
    4649:	43 88 5c 11 02       	mov    %bl,0x2(%r9,%r10,1)
    464e:	83 c1 fd             	add    $0xfffffffd,%ecx
    4651:	44 89 c3             	mov    %r8d,%ebx
    4654:	83 c3 03             	add    $0x3,%ebx
    4657:	41 89 f8             	mov    %edi,%r8d
    465a:	4c 89 cf             	mov    %r9,%rdi
    465d:	45 89 c1             	mov    %r8d,%r9d
    4660:	41 01 d9             	add    %ebx,%r9d
    4663:	41 89 d2             	mov    %edx,%r10d
    4666:	45 01 c2             	add    %r8d,%r10d
    4669:	45 89 d3             	mov    %r10d,%r11d
    466c:	41 83 c3 04          	add    $0x4,%r11d
    4670:	45 89 db             	mov    %r11d,%r11d
    4673:	46 8b 1c 1f          	mov    (%rdi,%r11,1),%r11d
    4677:	45 89 dc             	mov    %r11d,%r12d
    467a:	41 c1 e4 08          	shl    $0x8,%r12d
    467e:	c1 e8 18             	shr    $0x18,%eax
    4681:	41 09 c4             	or     %eax,%r12d
    4684:	44 89 c8             	mov    %r9d,%eax
    4687:	44 89 24 07          	mov    %r12d,(%rdi,%rax,1)
    468b:	44 89 c8             	mov    %r9d,%eax
    468e:	83 c0 04             	add    $0x4,%eax
    4691:	45 89 d4             	mov    %r10d,%r12d
    4694:	41 83 c4 08          	add    $0x8,%r12d
    4698:	45 89 e4             	mov    %r12d,%r12d
    469b:	46 8b 24 27          	mov    (%rdi,%r12,1),%r12d
    469f:	45 89 e5             	mov    %r12d,%r13d
    46a2:	41 c1 e5 08          	shl    $0x8,%r13d
    46a6:	41 c1 eb 18          	shr    $0x18,%r11d
    46aa:	45 09 dd             	or     %r11d,%r13d
    46ad:	89 c0                	mov    %eax,%eax
    46af:	44 89 2c 07          	mov    %r13d,(%rdi,%rax,1)
    46b3:	44 89 c8             	mov    %r9d,%eax
    46b6:	83 c0 08             	add    $0x8,%eax
    46b9:	45 89 d3             	mov    %r10d,%r11d
    46bc:	41 83 c3 0c          	add    $0xc,%r11d
    46c0:	45 89 db             	mov    %r11d,%r11d
    46c3:	46 8b 1c 1f          	mov    (%rdi,%r11,1),%r11d
    46c7:	45 89 dd             	mov    %r11d,%r13d
    46ca:	41 c1 e5 08          	shl    $0x8,%r13d
    46ce:	41 c1 ec 18          	shr    $0x18,%r12d
    46d2:	45 09 e5             	or     %r12d,%r13d
    46d5:	89 c0                	mov    %eax,%eax
    46d7:	44 89 2c 07          	mov    %r13d,(%rdi,%rax,1)
    46db:	41 83 c1 0c          	add    $0xc,%r9d
    46df:	41 83 c2 10          	add    $0x10,%r10d
    46e3:	44 89 d0             	mov    %r10d,%eax
    46e6:	8b 04 07             	mov    (%rdi,%rax,1),%eax
    46e9:	41 89 c2             	mov    %eax,%r10d
    46ec:	41 c1 e2 08          	shl    $0x8,%r10d
    46f0:	41 c1 eb 18          	shr    $0x18,%r11d
    46f4:	45 09 da             	or     %r11d,%r10d
    46f7:	45 89 c9             	mov    %r9d,%r9d
    46fa:	46 89 14 0f          	mov    %r10d,(%rdi,%r9,1)
    46fe:	41 83 c0 10          	add    $0x10,%r8d
    4702:	83 c1 f0             	add    $0xfffffff0,%ecx
    4705:	83 f9 10             	cmp    $0x10,%ecx
    4708:	0f 87 4f ff ff ff    	ja     465d <guest_func_memcpy+0x1dd>
    470e:	44 89 c0             	mov    %r8d,%eax
    4711:	01 d8                	add    %ebx,%eax
    4713:	44 01 c2             	add    %r8d,%edx
    4716:	83 c2 03             	add    $0x3,%edx
    4719:	40 89 c3             	rex mov %eax,%ebx
    471c:	e9 e9 01 00 00       	jmpq   490a <guest_func_memcpy+0x48a>
    4721:	41 89 d0             	mov    %edx,%r8d
    4724:	46 8b 0c 07          	mov    (%rdi,%r8,1),%r9d
    4728:	41 89 da             	mov    %ebx,%r10d
    472b:	45 89 cb             	mov    %r9d,%r11d
    472e:	49 89 f9             	mov    %rdi,%r9
    4731:	40 89 c7             	rex mov %eax,%edi
    4734:	44 89 d8             	mov    %r11d,%eax
    4737:	43 88 04 11          	mov    %al,(%r9,%r10,1)
    473b:	47 0f b6 44 01 01    	movzbl 0x1(%r9,%r8,1),%r8d
    4741:	45 89 c3             	mov    %r8d,%r11d
    4744:	41 89 d8             	mov    %ebx,%r8d
    4747:	44 89 db             	mov    %r11d,%ebx
    474a:	43 88 5c 11 01       	mov    %bl,0x1(%r9,%r10,1)
    474f:	83 c1 fe             	add    $0xfffffffe,%ecx
    4752:	44 89 c3             	mov    %r8d,%ebx
    4755:	83 c3 02             	add    $0x2,%ebx
    4758:	41 89 f8             	mov    %edi,%r8d
    475b:	4c 89 cf             	mov    %r9,%rdi
    475e:	45 89 c1             	mov    %r8d,%r9d
    4761:	41 01 d9             	add    %ebx,%r9d
    4764:	41 89 d2             	mov    %edx,%r10d
    4767:	45 01 c2             	add    %r8d,%r10d
    476a:	45 89 d3             	mov    %r10d,%r11d
    476d:	41 83 c3 04          	add    $0x4,%r11d
    4771:	45 89 db             	mov    %r11d,%r11d
    4774:	46 8b 1c 1f          	mov    (%rdi,%r11,1),%r11d
    4778:	45 89 dc             	mov    %r11d,%r12d
    477b:	41 c1 e4 10          	shl    $0x10,%r12d
    477f:	c1 e8 10             	shr    $0x10,%eax
    4782:	41 09 c4             	or     %eax,%r12d
    4785:	44 89 c8             	mov    %r9d,%eax
    4788:	44 89 24 07          	mov    %r12d,(%rdi,%rax,1)
    478c:	44 89 c8             	mov    %r9d,%eax
    478f:	83 c0 04             	add    $0x4,%eax
    4792:	45 89 d4             	mov    %r10d,%r12d
    4795:	41 83 c4 08          	add    $0x8,%r12d
    4799:	45 89 e4             	mov    %r12d,%r12d
    479c:	46 8b 24 27          	mov    (%rdi,%r12,1),%r12d
    47a0:	45 89 e5             	mov    %r12d,%r13d
    47a3:	41 c1 e5 10          	shl    $0x10,%r13d
    47a7:	41 c1 eb 10          	shr    $0x10,%r11d
    47ab:	45 09 dd             	or     %r11d,%r13d
    47ae:	89 c0                	mov    %eax,%eax
    47b0:	44 89 2c 07          	mov    %r13d,(%rdi,%rax,1)
    47b4:	44 89 c8             	mov    %r9d,%eax
    47b7:	83 c0 08             	add    $0x8,%eax
    47ba:	45 89 d3             	mov    %r10d,%r11d
    47bd:	41 83 c3 0c          	add    $0xc,%r11d
    47c1:	45 89 db             	mov    %r11d,%r11d
    47c4:	46 8b 1c 1f          	mov    (%rdi,%r11,1),%r11d
    47c8:	45 89 dd             	mov    %r11d,%r13d
    47cb:	41 c1 e5 10          	shl    $0x10,%r13d
    47cf:	41 c1 ec 10          	shr    $0x10,%r12d
    47d3:	45 09 e5             	or     %r12d,%r13d
    47d6:	89 c0                	mov    %eax,%eax
    47d8:	44 89 2c 07          	mov    %r13d,(%rdi,%rax,1)
    47dc:	41 83 c1 0c          	add    $0xc,%r9d
    47e0:	41 83 c2 10          	add    $0x10,%r10d
    47e4:	44 89 d0             	mov    %r10d,%eax
    47e7:	8b 04 07             	mov    (%rdi,%rax,1),%eax
    47ea:	41 89 c2             	mov    %eax,%r10d
    47ed:	41 c1 e2 10          	shl    $0x10,%r10d
    47f1:	41 c1 eb 10          	shr    $0x10,%r11d
    47f5:	45 09 da             	or     %r11d,%r10d
    47f8:	45 89 c9             	mov    %r9d,%r9d
    47fb:	46 89 14 0f          	mov    %r10d,(%rdi,%r9,1)
    47ff:	41 83 c0 10          	add    $0x10,%r8d
    4803:	83 c1 f0             	add    $0xfffffff0,%ecx
    4806:	83 f9 11             	cmp    $0x11,%ecx
    4809:	0f 87 4f ff ff ff    	ja     475e <guest_func_memcpy+0x2de>
    480f:	44 89 c0             	mov    %r8d,%eax
    4812:	01 d8                	add    %ebx,%eax
    4814:	44 01 c2             	add    %r8d,%edx
    4817:	83 c2 02             	add    $0x2,%edx
    481a:	40 89 c3             	rex mov %eax,%ebx
    481d:	e9 e8 00 00 00       	jmpq   490a <guest_func_memcpy+0x48a>
    4822:	41 89 d0             	mov    %edx,%r8d
    4825:	46 8b 04 07          	mov    (%rdi,%r8,1),%r8d
    4829:	41 89 d9             	mov    %ebx,%r9d
    482c:	45 89 c2             	mov    %r8d,%r10d
    482f:	49 89 f8             	mov    %rdi,%r8
    4832:	40 89 c7             	rex mov %eax,%edi
    4835:	44 89 d0             	mov    %r10d,%eax
    4838:	43 88 04 08          	mov    %al,(%r8,%r9,1)
    483c:	83 c1 ff             	add    $0xffffffff,%ecx
    483f:	83 c3 01             	add    $0x1,%ebx
    4842:	41 89 f9             	mov    %edi,%r9d
    4845:	4c 89 c7             	mov    %r8,%rdi
    4848:	45 89 c8             	mov    %r9d,%r8d
    484b:	45 89 c1             	mov    %r8d,%r9d
    484e:	41 01 d9             	add    %ebx,%r9d
    4851:	41 89 d2             	mov    %edx,%r10d
    4854:	45 01 c2             	add    %r8d,%r10d
    4857:	45 89 d3             	mov    %r10d,%r11d
    485a:	41 83 c3 04          	add    $0x4,%r11d
    485e:	45 89 db             	mov    %r11d,%r11d
    4861:	46 8b 1c 1f          	mov    (%rdi,%r11,1),%r11d
    4865:	45 89 dc             	mov    %r11d,%r12d
    4868:	41 c1 e4 18          	shl    $0x18,%r12d
    486c:	c1 e8 08             	shr    $0x8,%eax
    486f:	41 09 c4             	or     %eax,%r12d
    4872:	44 89 c8             	mov    %r9d,%eax
    4875:	44 89 24 07          	mov    %r12d,(%rdi,%rax,1)
    4879:	44 89 c8             	mov    %r9d,%eax
    487c:	83 c0 04             	add    $0x4,%eax
    487f:	45 89 d4             	mov    %r10d,%r12d
    4882:	41 83 c4 08          	add    $0x8,%r12d
    4886:	45 89 e4             	mov    %r12d,%r12d
    4889:	46 8b 24 27          	mov    (%rdi,%r12,1),%r12d
    488d:	45 89 e5             	mov    %r12d,%r13d
    4890:	41 c1 e5 18          	shl    $0x18,%r13d
    4894:	41 c1 eb 08          	shr    $0x8,%r11d
    4898:	45 09 dd             	or     %r11d,%r13d
    489b:	89 c0                	mov    %eax,%eax
    489d:	44 89 2c 07          	mov    %r13d,(%rdi,%rax,1)
    48a1:	44 89 c8             	mov    %r9d,%eax
    48a4:	83 c0 08             	add    $0x8,%eax
    48a7:	45 89 d3             	mov    %r10d,%r11d
    48aa:	41 83 c3 0c          	add    $0xc,%r11d
    48ae:	45 89 db             	mov    %r11d,%r11d
    48b1:	46 8b 1c 1f          	mov    (%rdi,%r11,1),%r11d
    48b5:	45 89 dd             	mov    %r11d,%r13d
    48b8:	41 c1 e5 18          	shl    $0x18,%r13d
    48bc:	41 c1 ec 08          	shr    $0x8,%r12d
    48c0:	45 09 e5             	or     %r12d,%r13d
    48c3:	89 c0                	mov    %eax,%eax
    48c5:	44 89 2c 07          	mov    %r13d,(%rdi,%rax,1)
    48c9:	41 83 c1 0c          	add    $0xc,%r9d
    48cd:	41 83 c2 10          	add    $0x10,%r10d
    48d1:	44 89 d0             	mov    %r10d,%eax
    48d4:	8b 04 07             	mov    (%rdi,%rax,1),%eax
    48d7:	41 89 c2             	mov    %eax,%r10d
    48da:	41 c1 e2 18          	shl    $0x18,%r10d
    48de:	41 c1 eb 08          	shr    $0x8,%r11d
    48e2:	45 09 da             	or     %r11d,%r10d
    48e5:	45 89 c9             	mov    %r9d,%r9d
    48e8:	46 89 14 0f          	mov    %r10d,(%rdi,%r9,1)
    48ec:	41 83 c0 10          	add    $0x10,%r8d
    48f0:	83 c1 f0             	add    $0xfffffff0,%ecx
    48f3:	83 f9 12             	cmp    $0x12,%ecx
    48f6:	0f 87 4f ff ff ff    	ja     484b <guest_func_memcpy+0x3cb>
    48fc:	44 89 c0             	mov    %r8d,%eax
    48ff:	01 d8                	add    %ebx,%eax
    4901:	44 01 c2             	add    %r8d,%edx
    4904:	83 c2 01             	add    $0x1,%edx
    4907:	40 89 c3             	rex mov %eax,%ebx
    490a:	89 c8                	mov    %ecx,%eax
    490c:	83 e0 10             	and    $0x10,%eax
    490f:	85 c0                	test   %eax,%eax
    4911:	0f 84 c1 00 00 00    	je     49d8 <guest_func_memcpy+0x558>
    4917:	89 d0                	mov    %edx,%eax
    4919:	44 0f b7 04 07       	movzwl (%rdi,%rax,1),%r8d
    491e:	41 89 d9             	mov    %ebx,%r9d
    4921:	66 46 89 04 0f       	mov    %r8w,(%rdi,%r9,1)
    4926:	44 0f b6 44 07 02    	movzbl 0x2(%rdi,%rax,1),%r8d
    492c:	45 89 c2             	mov    %r8d,%r10d
    492f:	49 89 f8             	mov    %rdi,%r8
    4932:	40 89 cf             	rex mov %ecx,%edi
    4935:	44 89 d1             	mov    %r10d,%ecx
    4938:	43 88 4c 08 02       	mov    %cl,0x2(%r8,%r9,1)
    493d:	41 0f b6 4c 00 03    	movzbl 0x3(%r8,%rax,1),%ecx
    4943:	43 88 4c 08 03       	mov    %cl,0x3(%r8,%r9,1)
    4948:	41 0f b6 4c 00 04    	movzbl 0x4(%r8,%rax,1),%ecx
    494e:	43 88 4c 08 04       	mov    %cl,0x4(%r8,%r9,1)
    4953:	41 0f b6 4c 00 05    	movzbl 0x5(%r8,%rax,1),%ecx
    4959:	43 88 4c 08 05       	mov    %cl,0x5(%r8,%r9,1)
    495e:	41 0f b6 4c 00 06    	movzbl 0x6(%r8,%rax,1),%ecx
    4964:	43 88 4c 08 06       	mov    %cl,0x6(%r8,%r9,1)
    4969:	41 0f b6 4c 00 07    	movzbl 0x7(%r8,%rax,1),%ecx
    496f:	43 88 4c 08 07       	mov    %cl,0x7(%r8,%r9,1)
    4974:	41 0f b6 4c 00 08    	movzbl 0x8(%r8,%rax,1),%ecx
    497a:	43 88 4c 08 08       	mov    %cl,0x8(%r8,%r9,1)
    497f:	41 0f b6 4c 00 09    	movzbl 0x9(%r8,%rax,1),%ecx
    4985:	43 88 4c 08 09       	mov    %cl,0x9(%r8,%r9,1)
    498a:	41 0f b6 4c 00 0a    	movzbl 0xa(%r8,%rax,1),%ecx
    4990:	43 88 4c 08 0a       	mov    %cl,0xa(%r8,%r9,1)
    4995:	41 0f b6 4c 00 0b    	movzbl 0xb(%r8,%rax,1),%ecx
    499b:	43 88 4c 08 0b       	mov    %cl,0xb(%r8,%r9,1)
    49a0:	41 0f b6 4c 00 0c    	movzbl 0xc(%r8,%rax,1),%ecx
    49a6:	43 88 4c 08 0c       	mov    %cl,0xc(%r8,%r9,1)
    49ab:	41 0f b6 4c 00 0d    	movzbl 0xd(%r8,%rax,1),%ecx
    49b1:	43 88 4c 08 0d       	mov    %cl,0xd(%r8,%r9,1)
    49b6:	41 0f b6 4c 00 0e    	movzbl 0xe(%r8,%rax,1),%ecx
    49bc:	43 88 4c 08 0e       	mov    %cl,0xe(%r8,%r9,1)
    49c1:	41 0f b6 44 00 0f    	movzbl 0xf(%r8,%rax,1),%eax
    49c7:	43 88 44 08 0f       	mov    %al,0xf(%r8,%r9,1)
    49cc:	83 c3 10             	add    $0x10,%ebx
    49cf:	83 c2 10             	add    $0x10,%edx
    49d2:	40 89 f9             	rex mov %edi,%ecx
    49d5:	4c 89 c7             	mov    %r8,%rdi
    49d8:	89 c8                	mov    %ecx,%eax
    49da:	83 e0 08             	and    $0x8,%eax
    49dd:	85 c0                	test   %eax,%eax
    49df:	74 73                	je     4a54 <guest_func_memcpy+0x5d4>
    49e1:	89 d0                	mov    %edx,%eax
    49e3:	44 0f b6 04 07       	movzbl (%rdi,%rax,1),%r8d
    49e8:	41 89 d9             	mov    %ebx,%r9d
    49eb:	45 89 c2             	mov    %r8d,%r10d
    49ee:	49 89 f8             	mov    %rdi,%r8
    49f1:	40 89 cf             	rex mov %ecx,%edi
    49f4:	44 89 d1             	mov    %r10d,%ecx
    49f7:	43 88 0c 08          	mov    %cl,(%r8,%r9,1)
    49fb:	41 0f b6 4c 00 01    	movzbl 0x1(%r8,%rax,1),%ecx
    4a01:	43 88 4c 08 01       	mov    %cl,0x1(%r8,%r9,1)
    4a06:	41 0f b6 4c 00 02    	movzbl 0x2(%r8,%rax,1),%ecx
    4a0c:	43 88 4c 08 02       	mov    %cl,0x2(%r8,%r9,1)
    4a11:	41 0f b6 4c 00 03    	movzbl 0x3(%r8,%rax,1),%ecx
    4a17:	43 88 4c 08 03       	mov    %cl,0x3(%r8,%r9,1)
    4a1c:	41 0f b6 4c 00 04    	movzbl 0x4(%r8,%rax,1),%ecx
    4a22:	43 88 4c 08 04       	mov    %cl,0x4(%r8,%r9,1)
    4a27:	41 0f b6 4c 00 05    	movzbl 0x5(%r8,%rax,1),%ecx
    4a2d:	43 88 4c 08 05       	mov    %cl,0x5(%r8,%r9,1)
    4a32:	41 0f b6 4c 00 06    	movzbl 0x6(%r8,%rax,1),%ecx
    4a38:	43 88 4c 08 06       	mov    %cl,0x6(%r8,%r9,1)
    4a3d:	41 0f b6 44 00 07    	movzbl 0x7(%r8,%rax,1),%eax
    4a43:	43 88 44 08 07       	mov    %al,0x7(%r8,%r9,1)
    4a48:	83 c3 08             	add    $0x8,%ebx
    4a4b:	83 c2 08             	add    $0x8,%edx
    4a4e:	40 89 f9             	rex mov %edi,%ecx
    4a51:	4c 89 c7             	mov    %r8,%rdi
    4a54:	89 c8                	mov    %ecx,%eax
    4a56:	83 e0 04             	and    $0x4,%eax
    4a59:	85 c0                	test   %eax,%eax
    4a5b:	74 47                	je     4aa4 <guest_func_memcpy+0x624>
    4a5d:	89 d0                	mov    %edx,%eax
    4a5f:	44 0f b6 04 07       	movzbl (%rdi,%rax,1),%r8d
    4a64:	41 89 d9             	mov    %ebx,%r9d
    4a67:	45 89 c2             	mov    %r8d,%r10d
    4a6a:	49 89 f8             	mov    %rdi,%r8
    4a6d:	40 89 cf             	rex mov %ecx,%edi
    4a70:	44 89 d1             	mov    %r10d,%ecx
    4a73:	43 88 0c 08          	mov    %cl,(%r8,%r9,1)
    4a77:	41 0f b6 4c 00 01    	movzbl 0x1(%r8,%rax,1),%ecx
    4a7d:	43 88 4c 08 01       	mov    %cl,0x1(%r8,%r9,1)
    4a82:	41 0f b6 4c 00 02    	movzbl 0x2(%r8,%rax,1),%ecx
    4a88:	43 88 4c 08 02       	mov    %cl,0x2(%r8,%r9,1)
    4a8d:	41 0f b6 44 00 03    	movzbl 0x3(%r8,%rax,1),%eax
    4a93:	43 88 44 08 03       	mov    %al,0x3(%r8,%r9,1)
    4a98:	83 c3 04             	add    $0x4,%ebx
    4a9b:	83 c2 04             	add    $0x4,%edx
    4a9e:	40 89 f9             	rex mov %edi,%ecx
    4aa1:	4c 89 c7             	mov    %r8,%rdi
    4aa4:	89 c8                	mov    %ecx,%eax
    4aa6:	83 e0 02             	and    $0x2,%eax
    4aa9:	85 c0                	test   %eax,%eax
    4aab:	74 31                	je     4ade <guest_func_memcpy+0x65e>
    4aad:	89 d0                	mov    %edx,%eax
    4aaf:	44 0f b6 04 07       	movzbl (%rdi,%rax,1),%r8d
    4ab4:	41 89 d9             	mov    %ebx,%r9d
    4ab7:	45 89 c2             	mov    %r8d,%r10d
    4aba:	49 89 f8             	mov    %rdi,%r8
    4abd:	40 89 cf             	rex mov %ecx,%edi
    4ac0:	44 89 d1             	mov    %r10d,%ecx
    4ac3:	43 88 0c 08          	mov    %cl,(%r8,%r9,1)
    4ac7:	41 0f b6 44 00 01    	movzbl 0x1(%r8,%rax,1),%eax
    4acd:	43 88 44 08 01       	mov    %al,0x1(%r8,%r9,1)
    4ad2:	83 c3 02             	add    $0x2,%ebx
    4ad5:	83 c2 02             	add    $0x2,%edx
    4ad8:	40 89 f9             	rex mov %edi,%ecx
    4adb:	4c 89 c7             	mov    %r8,%rdi
    4ade:	83 e1 01             	and    $0x1,%ecx
    4ae1:	85 c9                	test   %ecx,%ecx
    4ae3:	74 0b                	je     4af0 <guest_func_memcpy+0x670>
    4ae5:	89 d0                	mov    %edx,%eax
    4ae7:	0f b6 04 07          	movzbl (%rdi,%rax,1),%eax
    4aeb:	89 d9                	mov    %ebx,%ecx
    4aed:	88 04 0f             	mov    %al,(%rdi,%rcx,1)
    4af0:	40 89 f0             	rex mov %esi,%eax
    4af3:	41 5d                	pop    %r13
    4af5:	41 5c                	pop    %r12
    4af7:	5b                   	pop    %rbx
    4af8:	5d                   	pop    %rbp
    4af9:	c3                   	retq   
    4afa:	1b fb                	sbb    %ebx,%edi
    4afc:	ff                   	(bad)  
    4afd:	ff 27                	jmpq   *(%rdi)
    4aff:	fc                   	cld    
    4b00:	ff                   	(bad)  
    4b01:	ff 28                	ljmp   *(%rax)
    4b03:	fd                   	std    
    4b04:	ff                   	(bad)  
    4b05:	ff 00                	incl   (%rax)
	...

0000000000004b10 <guest_func_8>:
    4b10:	55                   	push   %rbp
    4b11:	48 89 e5             	mov    %rsp,%rbp
    4b14:	53                   	push   %rbx
    4b15:	41 54                	push   %r12
    4b17:	41 55                	push   %r13
    4b19:	41 56                	push   %r14
    4b1b:	41 57                	push   %r15
    4b1d:	48 83 ec 78          	sub    $0x78,%rsp
    4b21:	48 89 bc 24 38 00 00 	mov    %rdi,0x38(%rsp)
    4b28:	00 
    4b29:	89 b4 24 74 00 00 00 	mov    %esi,0x74(%rsp)
    4b30:	31 c0                	xor    %eax,%eax
    4b32:	89 84 24 70 00 00 00 	mov    %eax,0x70(%rsp)
    4b39:	49 89 ff             	mov    %rdi,%r15
    4b3c:	49 8b 47 f0          	mov    -0x10(%r15),%rax
    4b40:	0f ae e8             	lfence 
    4b43:	8b 00                	mov    (%rax),%eax
    4b45:	89 84 24 6c 00 00 00 	mov    %eax,0x6c(%rsp)
    4b4c:	b8 10 00 00 00       	mov    $0x10,%eax
    4b51:	89 84 24 68 00 00 00 	mov    %eax,0x68(%rsp)
    4b58:	44 8b bc 24 6c 00 00 	mov    0x6c(%rsp),%r15d
    4b5f:	00 
    4b60:	41 83 c7 f0          	add    $0xfffffff0,%r15d
    4b64:	44 89 bc 24 64 00 00 	mov    %r15d,0x64(%rsp)
    4b6b:	00 
    4b6c:	49 89 ff             	mov    %rdi,%r15
    4b6f:	49 8b 47 f0          	mov    -0x10(%r15),%rax
    4b73:	44 8b bc 24 64 00 00 	mov    0x64(%rsp),%r15d
    4b7a:	00 
    4b7b:	0f ae e8             	lfence 
    4b7e:	44 89 38             	mov    %r15d,(%rax)
    4b81:	b8 18 05 00 00       	mov    $0x518,%eax
    4b86:	89 c0                	mov    %eax,%eax
    4b88:	48 89 84 24 30 00 00 	mov    %rax,0x30(%rsp)
    4b8f:	00 
    4b90:	49 89 ff             	mov    %rdi,%r15
    4b93:	49 89 c6             	mov    %rax,%r14
    4b96:	43 8b 04 37          	mov    (%r15,%r14,1),%eax
    4b9a:	0f ae e8             	lfence 
    4b9d:	85 c0                	test   %eax,%eax
    4b9f:	0f 85 a1 01 00 00    	jne    4d46 <guest_func_8+0x236>
    4ba5:	44 8b b4 24 70 00 00 	mov    0x70(%rsp),%r14d
    4bac:	00 
    4bad:	4c 89 ff             	mov    %r15,%rdi
    4bb0:	44 89 f6             	mov    %r14d,%esi
    4bb3:	e8 28 c8 ff ff       	callq  13e0 <guest_func_sbrk>
    4bb8:	b9 00 07 01 00       	mov    $0x10700,%ecx
    4bbd:	89 c2                	mov    %eax,%edx
    4bbf:	81 c2 00 f9 fe ff    	add    $0xfffef900,%edx
    4bc5:	83 fa 59             	cmp    $0x59,%edx
    4bc8:	0f 82 78 01 00 00    	jb     4d46 <guest_func_8+0x236>
    4bce:	bb d8 06 00 00       	mov    $0x6d8,%ebx
    4bd3:	89 db                	mov    %ebx,%ebx
    4bd5:	4c 8b bc 24 38 00 00 	mov    0x38(%rsp),%r15
    4bdc:	00 
    4bdd:	41 8b 34 1f          	mov    (%r15,%rbx,1),%esi
    4be1:	0f ae e8             	lfence 
    4be4:	85 f6                	test   %esi,%esi
    4be6:	75 75                	jne    4c5d <guest_func_8+0x14d>
    4be8:	be e4 06 00 00       	mov    $0x6e4,%esi
    4bed:	48 c7 c7 ff ff ff ff 	mov    $0xffffffffffffffff,%rdi
    4bf4:	89 f6                	mov    %esi,%esi
    4bf6:	49 89 3c 37          	mov    %rdi,(%r15,%rsi,1)
    4bfa:	be dc 06 00 00       	mov    $0x6dc,%esi
    4bff:	48 bf 00 00 01 00 00 	movabs $0x1000000010000,%rdi
    4c06:	00 01 00 
    4c09:	89 f6                	mov    %esi,%esi
    4c0b:	49 89 3c 37          	mov    %rdi,(%r15,%rsi,1)
    4c0f:	44 8b bc 24 6c 00 00 	mov    0x6c(%rsp),%r15d
    4c16:	00 
    4c17:	41 83 c7 f8          	add    $0xfffffff8,%r15d
    4c1b:	41 83 e7 f0          	and    $0xfffffff0,%r15d
    4c1f:	41 81 f7 58 55 55 55 	xor    $0x55555558,%r15d
    4c26:	4c 8b b4 24 38 00 00 	mov    0x38(%rsp),%r14
    4c2d:	00 
    4c2e:	45 89 3c 1e          	mov    %r15d,(%r14,%rbx,1)
    4c32:	bb ec 06 00 00       	mov    $0x6ec,%ebx
    4c37:	89 db                	mov    %ebx,%ebx
    4c39:	44 8b b4 24 70 00 00 	mov    0x70(%rsp),%r14d
    4c40:	00 
    4c41:	4c 8b ac 24 38 00 00 	mov    0x38(%rsp),%r13
    4c48:	00 
    4c49:	45 89 74 1d 00       	mov    %r14d,0x0(%r13,%rbx,1)
    4c4e:	bb bc 06 00 00       	mov    $0x6bc,%ebx
    4c53:	89 db                	mov    %ebx,%ebx
    4c55:	45 89 74 1d 00       	mov    %r14d,0x0(%r13,%rbx,1)
    4c5a:	44 89 fe             	mov    %r15d,%esi
    4c5d:	bb c4 06 00 00       	mov    $0x6c4,%ebx
    4c62:	89 db                	mov    %ebx,%ebx
    4c64:	4c 8b bc 24 38 00 00 	mov    0x38(%rsp),%r15
    4c6b:	00 
    4c6c:	41 89 14 1f          	mov    %edx,(%r15,%rbx,1)
    4c70:	ba c0 06 00 00       	mov    $0x6c0,%edx
    4c75:	89 d2                	mov    %edx,%edx
    4c77:	41 89 0c 17          	mov    %ecx,(%r15,%rdx,1)
    4c7b:	ba 10 05 00 00       	mov    $0x510,%edx
    4c80:	89 d2                	mov    %edx,%edx
    4c82:	41 89 0c 17          	mov    %ecx,(%r15,%rdx,1)
    4c86:	b9 24 05 00 00       	mov    $0x524,%ecx
    4c8b:	89 c9                	mov    %ecx,%ecx
    4c8d:	41 89 34 0f          	mov    %esi,(%r15,%rcx,1)
    4c91:	b9 20 05 00 00       	mov    $0x520,%ecx
    4c96:	ba ff ff ff ff       	mov    $0xffffffff,%edx
    4c9b:	89 c9                	mov    %ecx,%ecx
    4c9d:	41 89 14 0f          	mov    %edx,(%r15,%rcx,1)
    4ca1:	44 8b bc 24 70 00 00 	mov    0x70(%rsp),%r15d
    4ca8:	00 
    4ca9:	eb 03                	jmp    4cae <guest_func_8+0x19e>
    4cab:	41 89 cf             	mov    %ecx,%r15d
    4cae:	44 89 f9             	mov    %r15d,%ecx
    4cb1:	81 c1 30 05 00 00    	add    $0x530,%ecx
    4cb7:	44 89 fa             	mov    %r15d,%edx
    4cba:	81 c2 28 05 00 00    	add    $0x528,%edx
    4cc0:	89 c9                	mov    %ecx,%ecx
    4cc2:	4c 8b b4 24 38 00 00 	mov    0x38(%rsp),%r14
    4cc9:	00 
    4cca:	41 89 14 0e          	mov    %edx,(%r14,%rcx,1)
    4cce:	44 89 f9             	mov    %r15d,%ecx
    4cd1:	81 c1 34 05 00 00    	add    $0x534,%ecx
    4cd7:	89 c9                	mov    %ecx,%ecx
    4cd9:	41 89 14 0e          	mov    %edx,(%r14,%rcx,1)
    4cdd:	44 89 f9             	mov    %r15d,%ecx
    4ce0:	83 c1 08             	add    $0x8,%ecx
    4ce3:	81 f9 00 01 00 00    	cmp    $0x100,%ecx
    4ce9:	75 c0                	jne    4cab <guest_func_8+0x19b>
    4ceb:	b9 0c 07 01 00       	mov    $0x1070c,%ecx
    4cf0:	89 c2                	mov    %eax,%edx
    4cf2:	81 c2 c0 f8 fe ff    	add    $0xfffef8c0,%edx
    4cf8:	89 d3                	mov    %edx,%ebx
    4cfa:	83 cb 01             	or     $0x1,%ebx
    4cfd:	89 c9                	mov    %ecx,%ecx
    4cff:	4d 89 f7             	mov    %r14,%r15
    4d02:	41 89 1c 0f          	mov    %ebx,(%r15,%rcx,1)
    4d06:	b9 1c 05 00 00       	mov    $0x51c,%ecx
    4d0b:	bb e8 06 00 00       	mov    $0x6e8,%ebx
    4d10:	89 db                	mov    %ebx,%ebx
    4d12:	41 8b 1c 1f          	mov    (%r15,%rbx,1),%ebx
    4d16:	89 c9                	mov    %ecx,%ecx
    4d18:	41 89 1c 0f          	mov    %ebx,(%r15,%rcx,1)
    4d1c:	b9 08 07 01 00       	mov    $0x10708,%ecx
    4d21:	4c 8b b4 24 30 00 00 	mov    0x30(%rsp),%r14
    4d28:	00 
    4d29:	43 89 0c 37          	mov    %ecx,(%r15,%r14,1)
    4d2d:	b9 0c 05 00 00       	mov    $0x50c,%ecx
    4d32:	89 c9                	mov    %ecx,%ecx
    4d34:	41 89 14 0f          	mov    %edx,(%r15,%rcx,1)
    4d38:	83 c0 cc             	add    $0xffffffcc,%eax
    4d3b:	b9 38 00 00 00       	mov    $0x38,%ecx
    4d40:	89 c0                	mov    %eax,%eax
    4d42:	41 89 0c 07          	mov    %ecx,(%r15,%rax,1)
    4d46:	44 8b bc 24 74 00 00 	mov    0x74(%rsp),%r15d
    4d4d:	00 
    4d4e:	41 81 ff ec 00 00 00 	cmp    $0xec,%r15d
    4d55:	0f 87 38 06 00 00    	ja     5393 <guest_func_8+0x883>
    4d5b:	b8 00 05 00 00       	mov    $0x500,%eax
    4d60:	89 c0                	mov    %eax,%eax
    4d62:	4c 8b bc 24 38 00 00 	mov    0x38(%rsp),%r15
    4d69:	00 
    4d6a:	41 8b 04 07          	mov    (%r15,%rax,1),%eax
    4d6e:	0f ae e8             	lfence 
    4d71:	89 84 24 60 00 00 00 	mov    %eax,0x60(%rsp)
    4d78:	44 8b bc 24 74 00 00 	mov    0x74(%rsp),%r15d
    4d7f:	00 
    4d80:	41 83 c7 13          	add    $0x13,%r15d
    4d84:	41 83 e7 f0          	and    $0xfffffff0,%r15d
    4d88:	44 89 bc 24 54 00 00 	mov    %r15d,0x54(%rsp)
    4d8f:	00 
    4d90:	44 8b bc 24 74 00 00 	mov    0x74(%rsp),%r15d
    4d97:	00 
    4d98:	41 83 ff 0b          	cmp    $0xb,%r15d
    4d9c:	72 02                	jb     4da0 <guest_func_8+0x290>
    4d9e:	eb 10                	jmp    4db0 <guest_func_8+0x2a0>
    4da0:	44 8b bc 24 68 00 00 	mov    0x68(%rsp),%r15d
    4da7:	00 
    4da8:	44 89 bc 24 54 00 00 	mov    %r15d,0x54(%rsp)
    4daf:	00 
    4db0:	44 8b bc 24 54 00 00 	mov    0x54(%rsp),%r15d
    4db7:	00 
    4db8:	44 89 f8             	mov    %r15d,%eax
    4dbb:	c1 e8 03             	shr    $0x3,%eax
    4dbe:	44 8b bc 24 60 00 00 	mov    0x60(%rsp),%r15d
    4dc5:	00 
    4dc6:	44 89 fa             	mov    %r15d,%edx
    4dc9:	40 89 c1             	rex mov %eax,%ecx
    4dcc:	d3 ea                	shr    %cl,%edx
    4dce:	89 d0                	mov    %edx,%eax
    4dd0:	83 e0 03             	and    $0x3,%eax
    4dd3:	40 89 c3             	rex mov %eax,%ebx
    4dd6:	40 89 c8             	rex mov %ecx,%eax
    4dd9:	40 89 d9             	rex mov %ebx,%ecx
    4ddc:	85 c9                	test   %ecx,%ecx
    4dde:	0f 84 bf 00 00 00    	je     4ea3 <guest_func_8+0x393>
    4de4:	83 e2 01             	and    $0x1,%edx
    4de7:	09 c2                	or     %eax,%edx
    4de9:	40 89 d0             	rex mov %edx,%eax
    4dec:	83 f0 01             	xor    $0x1,%eax
    4def:	89 c1                	mov    %eax,%ecx
    4df1:	c1 e1 03             	shl    $0x3,%ecx
    4df4:	89 ca                	mov    %ecx,%edx
    4df6:	81 c2 30 05 00 00    	add    $0x530,%edx
    4dfc:	89 d2                	mov    %edx,%edx
    4dfe:	4c 8b bc 24 38 00 00 	mov    0x38(%rsp),%r15
    4e05:	00 
    4e06:	41 8b 14 17          	mov    (%r15,%rdx,1),%edx
    4e0a:	0f ae e8             	lfence 
    4e0d:	89 d3                	mov    %edx,%ebx
    4e0f:	83 c3 08             	add    $0x8,%ebx
    4e12:	89 9c 24 70 00 00 00 	mov    %ebx,0x70(%rsp)
    4e19:	89 d3                	mov    %edx,%ebx
    4e1b:	41 8b 74 1f 08       	mov    0x8(%r15,%rbx,1),%esi
    4e20:	0f ae e8             	lfence 
    4e23:	89 cf                	mov    %ecx,%edi
    4e25:	81 c7 28 05 00 00    	add    $0x528,%edi
    4e2b:	39 fe                	cmp    %edi,%esi
    4e2d:	75 33                	jne    4e62 <guest_func_8+0x352>
    4e2f:	be 00 05 00 00       	mov    $0x500,%esi
    4e34:	bf fe ff ff ff       	mov    $0xfffffffe,%edi
    4e39:	41 89 c8             	mov    %ecx,%r8d
    4e3c:	40 89 c1             	rex mov %eax,%ecx
    4e3f:	44 89 c0             	mov    %r8d,%eax
    4e42:	d3 c7                	rol    %cl,%edi
    4e44:	44 8b bc 24 60 00 00 	mov    0x60(%rsp),%r15d
    4e4b:	00 
    4e4c:	44 21 ff             	and    %r15d,%edi
    4e4f:	89 f1                	mov    %esi,%ecx
    4e51:	4c 8b bc 24 38 00 00 	mov    0x38(%rsp),%r15
    4e58:	00 
    4e59:	41 89 3c 0f          	mov    %edi,(%r15,%rcx,1)
    4e5d:	40 89 c1             	rex mov %eax,%ecx
    4e60:	eb 19                	jmp    4e7b <guest_func_8+0x36b>
    4e62:	b8 10 05 00 00       	mov    $0x510,%eax
    4e67:	89 c0                	mov    %eax,%eax
    4e69:	41 8b 04 07          	mov    (%r15,%rax,1),%eax
    4e6d:	89 f8                	mov    %edi,%eax
    4e6f:	41 89 74 07 08       	mov    %esi,0x8(%r15,%rax,1)
    4e74:	89 f0                	mov    %esi,%eax
    4e76:	41 89 7c 07 0c       	mov    %edi,0xc(%r15,%rax,1)
    4e7b:	89 c8                	mov    %ecx,%eax
    4e7d:	83 c8 03             	or     $0x3,%eax
    4e80:	4c 8b bc 24 38 00 00 	mov    0x38(%rsp),%r15
    4e87:	00 
    4e88:	41 89 44 1f 04       	mov    %eax,0x4(%r15,%rbx,1)
    4e8d:	01 d1                	add    %edx,%ecx
    4e8f:	89 c8                	mov    %ecx,%eax
    4e91:	41 8b 4c 07 04       	mov    0x4(%r15,%rax,1),%ecx
    4e96:	83 c9 01             	or     $0x1,%ecx
    4e99:	41 89 4c 07 04       	mov    %ecx,0x4(%r15,%rax,1)
    4e9e:	e9 b3 28 00 00       	jmpq   7756 <guest_func_8+0x2c46>
    4ea3:	b9 08 05 00 00       	mov    $0x508,%ecx
    4ea8:	89 c9                	mov    %ecx,%ecx
    4eaa:	4c 8b bc 24 38 00 00 	mov    0x38(%rsp),%r15
    4eb1:	00 
    4eb2:	41 8b 0c 0f          	mov    (%r15,%rcx,1),%ecx
    4eb6:	0f ae e8             	lfence 
    4eb9:	89 8c 24 5c 00 00 00 	mov    %ecx,0x5c(%rsp)
    4ec0:	44 8b bc 24 54 00 00 	mov    0x54(%rsp),%r15d
    4ec7:	00 
    4ec8:	41 89 ce             	mov    %ecx,%r14d
    4ecb:	45 39 f7             	cmp    %r14d,%r15d
    4ece:	0f 86 07 0a 00 00    	jbe    58db <guest_func_8+0xdcb>
    4ed4:	85 d2                	test   %edx,%edx
    4ed6:	0f 84 3b 02 00 00    	je     5117 <guest_func_8+0x607>
    4edc:	40 89 c1             	rex mov %eax,%ecx
    4edf:	d3 e2                	shl    %cl,%edx
    4ee1:	b8 02 00 00 00       	mov    $0x2,%eax
    4ee6:	d3 e0                	shl    %cl,%eax
    4ee8:	44 8b bc 24 70 00 00 	mov    0x70(%rsp),%r15d
    4eef:	00 
    4ef0:	41 29 c7             	sub    %eax,%r15d
    4ef3:	44 09 f8             	or     %r15d,%eax
    4ef6:	21 c2                	and    %eax,%edx
    4ef8:	44 8b bc 24 70 00 00 	mov    0x70(%rsp),%r15d
    4eff:	00 
    4f00:	41 29 d7             	sub    %edx,%r15d
    4f03:	44 21 fa             	and    %r15d,%edx
    4f06:	83 c2 ff             	add    $0xffffffff,%edx
    4f09:	89 d0                	mov    %edx,%eax
    4f0b:	c1 e8 0c             	shr    $0xc,%eax
    4f0e:	83 e0 10             	and    $0x10,%eax
    4f11:	40 89 c1             	rex mov %eax,%ecx
    4f14:	d3 ea                	shr    %cl,%edx
    4f16:	89 d0                	mov    %edx,%eax
    4f18:	c1 e8 05             	shr    $0x5,%eax
    4f1b:	83 e0 08             	and    $0x8,%eax
    4f1e:	40 89 cb             	rex mov %ecx,%ebx
    4f21:	40 89 c1             	rex mov %eax,%ecx
    4f24:	40 89 d8             	rex mov %ebx,%eax
    4f27:	d3 ea                	shr    %cl,%edx
    4f29:	89 d3                	mov    %edx,%ebx
    4f2b:	c1 eb 02             	shr    $0x2,%ebx
    4f2e:	83 e3 04             	and    $0x4,%ebx
    4f31:	40 89 ce             	rex mov %ecx,%esi
    4f34:	40 89 d9             	rex mov %ebx,%ecx
    4f37:	40 89 f3             	rex mov %esi,%ebx
    4f3a:	d3 ea                	shr    %cl,%edx
    4f3c:	be 01 00 00 00       	mov    $0x1,%esi
    4f41:	89 d7                	mov    %edx,%edi
    4f43:	c1 ef 01             	shr    $0x1,%edi
    4f46:	83 e7 02             	and    $0x2,%edi
    4f49:	41 89 c8             	mov    %ecx,%r8d
    4f4c:	40 89 f9             	rex mov %edi,%ecx
    4f4f:	44 89 c7             	mov    %r8d,%edi
    4f52:	d3 ea                	shr    %cl,%edx
    4f54:	41 89 d0             	mov    %edx,%r8d
    4f57:	41 c1 e8 01          	shr    $0x1,%r8d
    4f5b:	41 83 e0 01          	and    $0x1,%r8d
    4f5f:	09 c3                	or     %eax,%ebx
    4f61:	09 fb                	or     %edi,%ebx
    4f63:	09 cb                	or     %ecx,%ebx
    4f65:	44 89 c0             	mov    %r8d,%eax
    4f68:	09 d8                	or     %ebx,%eax
    4f6a:	44 89 c1             	mov    %r8d,%ecx
    4f6d:	d3 ea                	shr    %cl,%edx
    4f6f:	01 d0                	add    %edx,%eax
    4f71:	89 c1                	mov    %eax,%ecx
    4f73:	c1 e1 03             	shl    $0x3,%ecx
    4f76:	89 ca                	mov    %ecx,%edx
    4f78:	81 c2 30 05 00 00    	add    $0x530,%edx
    4f7e:	89 d2                	mov    %edx,%edx
    4f80:	4c 8b bc 24 38 00 00 	mov    0x38(%rsp),%r15
    4f87:	00 
    4f88:	41 8b 14 17          	mov    (%r15,%rdx,1),%edx
    4f8c:	0f ae e8             	lfence 
    4f8f:	89 d3                	mov    %edx,%ebx
    4f91:	41 8b 7c 1f 08       	mov    0x8(%r15,%rbx,1),%edi
    4f96:	0f ae e8             	lfence 
    4f99:	41 89 c8             	mov    %ecx,%r8d
    4f9c:	41 81 c0 28 05 00 00 	add    $0x528,%r8d
    4fa3:	44 39 c7             	cmp    %r8d,%edi
    4fa6:	75 40                	jne    4fe8 <guest_func_8+0x4d8>
    4fa8:	bf 00 05 00 00       	mov    $0x500,%edi
    4fad:	41 b8 fe ff ff ff    	mov    $0xfffffffe,%r8d
    4fb3:	41 89 c9             	mov    %ecx,%r9d
    4fb6:	40 89 c1             	rex mov %eax,%ecx
    4fb9:	44 89 c8             	mov    %r9d,%eax
    4fbc:	41 d3 c0             	rol    %cl,%r8d
    4fbf:	44 8b bc 24 60 00 00 	mov    0x60(%rsp),%r15d
    4fc6:	00 
    4fc7:	45 21 f8             	and    %r15d,%r8d
    4fca:	44 89 84 24 60 00 00 	mov    %r8d,0x60(%rsp)
    4fd1:	00 
    4fd2:	89 f9                	mov    %edi,%ecx
    4fd4:	45 89 c7             	mov    %r8d,%r15d
    4fd7:	4c 8b b4 24 38 00 00 	mov    0x38(%rsp),%r14
    4fde:	00 
    4fdf:	45 89 3c 0e          	mov    %r15d,(%r14,%rcx,1)
    4fe3:	40 89 c1             	rex mov %eax,%ecx
    4fe6:	eb 1a                	jmp    5002 <guest_func_8+0x4f2>
    4fe8:	b8 10 05 00 00       	mov    $0x510,%eax
    4fed:	89 c0                	mov    %eax,%eax
    4fef:	41 8b 04 07          	mov    (%r15,%rax,1),%eax
    4ff3:	44 89 c0             	mov    %r8d,%eax
    4ff6:	41 89 7c 07 08       	mov    %edi,0x8(%r15,%rax,1)
    4ffb:	89 f8                	mov    %edi,%eax
    4ffd:	45 89 44 07 0c       	mov    %r8d,0xc(%r15,%rax,1)
    5002:	89 d0                	mov    %edx,%eax
    5004:	83 c0 08             	add    $0x8,%eax
    5007:	89 84 24 70 00 00 00 	mov    %eax,0x70(%rsp)
    500e:	44 8b bc 24 54 00 00 	mov    0x54(%rsp),%r15d
    5015:	00 
    5016:	41 83 cf 03          	or     $0x3,%r15d
    501a:	4c 8b b4 24 38 00 00 	mov    0x38(%rsp),%r14
    5021:	00 
    5022:	45 89 7c 1e 04       	mov    %r15d,0x4(%r14,%rbx,1)
    5027:	89 c8                	mov    %ecx,%eax
